
head:     file format elf64-littleriscv


Disassembly of section .text:

0000000080020000 <_start>:
    80020000:	0007c197          	auipc	gp,0x7c
    80020004:	85818193          	addi	gp,gp,-1960 # 8009b858 <__global_pointer$>
    80020008:	0ff0000f          	fence
    8002000c:	0000100f          	fence.i
    80020010:	10401073          	csrw	sie,zero
    80020014:	14401073          	csrw	sip,zero
    80020018:	6299                	lui	t0,0x6
    8002001a:	1002b073          	csrc	sstatus,t0
    8002001e:	e905                	bnez	a0,8002004e <secondary>
    80020020:	0007c697          	auipc	a3,0x7c
    80020024:	02c68693          	addi	a3,a3,44 # 8009c04c <_edata>
    80020028:	0007c717          	auipc	a4,0x7c
    8002002c:	03070713          	addi	a4,a4,48 # 8009c058 <__BSS_END__>
    80020030:	00e6d763          	bge	a3,a4,8002003e <clear_bss_done>

0000000080020034 <clear_bss>:
    80020034:	0006a023          	sw	zero,0(a3)
    80020038:	0691                	addi	a3,a3,4
    8002003a:	fee6cde3          	blt	a3,a4,80020034 <clear_bss>

000000008002003e <clear_bss_done>:
    8002003e:	00004137          	lui	sp,0x4
    80020042:	0151011b          	addiw	sp,sp,21
    80020046:	01111113          	slli	sp,sp,0x11
    8002004a:	7740006f          	j	800207be <boot_kernel>

000000008002004e <secondary>:
    8002004e:	00010137          	lui	sp,0x10
    80020052:	0551011b          	addiw	sp,sp,85
    80020056:	00f11113          	slli	sp,sp,0xf
    8002005a:	7640006f          	j	800207be <boot_kernel>

000000008002005e <loop>:
    8002005e:	10500073          	wfi
    80020062:	bff5                	j	8002005e <loop>

0000000080020064 <get_s0>:
    80020064:	8522                	mv	a0,s0
    80020066:	8082                	ret

0000000080020068 <sbi_console_putchar>:
    80020068:	1101                	addi	sp,sp,-32
    8002006a:	ec22                	sd	s0,24(sp)
    8002006c:	1000                	addi	s0,sp,32
    8002006e:	87aa                	mv	a5,a0
    80020070:	fef42623          	sw	a5,-20(s0)
    80020074:	fec42783          	lw	a5,-20(s0)
    80020078:	853e                	mv	a0,a5
    8002007a:	4581                	li	a1,0
    8002007c:	4601                	li	a2,0
    8002007e:	4885                	li	a7,1
    80020080:	00000073          	ecall
    80020084:	0001                	nop
    80020086:	6462                	ld	s0,24(sp)
    80020088:	6105                	addi	sp,sp,32
    8002008a:	8082                	ret

000000008002008c <local_flush_tlb_all>:
    8002008c:	1141                	addi	sp,sp,-16
    8002008e:	e422                	sd	s0,8(sp)
    80020090:	0800                	addi	s0,sp,16
    80020092:	0ff0000f          	fence
    80020096:	0000100f          	fence.i
    8002009a:	12000073          	sfence.vma
    8002009e:	0ff0000f          	fence
    800200a2:	0000100f          	fence.i
    800200a6:	0001                	nop
    800200a8:	6422                	ld	s0,8(sp)
    800200aa:	0141                	addi	sp,sp,16
    800200ac:	8082                	ret

00000000800200ae <set_satp>:
    800200ae:	7179                	addi	sp,sp,-48
    800200b0:	f422                	sd	s0,40(sp)
    800200b2:	1800                	addi	s0,sp,48
    800200b4:	87aa                	mv	a5,a0
    800200b6:	872e                	mv	a4,a1
    800200b8:	fcc43823          	sd	a2,-48(s0)
    800200bc:	fcf42e23          	sw	a5,-36(s0)
    800200c0:	87ba                	mv	a5,a4
    800200c2:	fcf42c23          	sw	a5,-40(s0)
    800200c6:	fdc46783          	lwu	a5,-36(s0)
    800200ca:	03c79713          	slli	a4,a5,0x3c
    800200ce:	fd846783          	lwu	a5,-40(s0)
    800200d2:	17b2                	slli	a5,a5,0x2c
    800200d4:	8fd9                	or	a5,a5,a4
    800200d6:	fd043703          	ld	a4,-48(s0)
    800200da:	8fd9                	or	a5,a5,a4
    800200dc:	fef43423          	sd	a5,-24(s0)
    800200e0:	fe843783          	ld	a5,-24(s0)
    800200e4:	18079073          	csrw	satp,a5
    800200e8:	0001                	nop
    800200ea:	7422                	ld	s0,40(sp)
    800200ec:	6145                	addi	sp,sp,48
    800200ee:	8082                	ret

00000000800200f0 <get_pfn>:
    800200f0:	1101                	addi	sp,sp,-32
    800200f2:	ec22                	sd	s0,24(sp)
    800200f4:	1000                	addi	s0,sp,32
    800200f6:	fea43423          	sd	a0,-24(s0)
    800200fa:	fe843783          	ld	a5,-24(s0)
    800200fe:	83a9                	srli	a5,a5,0xa
    80020100:	853e                	mv	a0,a5
    80020102:	6462                	ld	s0,24(sp)
    80020104:	6105                	addi	sp,sp,32
    80020106:	8082                	ret

0000000080020108 <set_pfn>:
    80020108:	1101                	addi	sp,sp,-32
    8002010a:	ec22                	sd	s0,24(sp)
    8002010c:	1000                	addi	s0,sp,32
    8002010e:	fea43423          	sd	a0,-24(s0)
    80020112:	feb43023          	sd	a1,-32(s0)
    80020116:	fe843783          	ld	a5,-24(s0)
    8002011a:	639c                	ld	a5,0(a5)
    8002011c:	3ff7f713          	andi	a4,a5,1023
    80020120:	fe043783          	ld	a5,-32(s0)
    80020124:	07aa                	slli	a5,a5,0xa
    80020126:	8f5d                	or	a4,a4,a5
    80020128:	fe843783          	ld	a5,-24(s0)
    8002012c:	e398                	sd	a4,0(a5)
    8002012e:	0001                	nop
    80020130:	6462                	ld	s0,24(sp)
    80020132:	6105                	addi	sp,sp,32
    80020134:	8082                	ret

0000000080020136 <get_attribute>:
    80020136:	1101                	addi	sp,sp,-32
    80020138:	ec22                	sd	s0,24(sp)
    8002013a:	1000                	addi	s0,sp,32
    8002013c:	fea43423          	sd	a0,-24(s0)
    80020140:	feb43023          	sd	a1,-32(s0)
    80020144:	fe843703          	ld	a4,-24(s0)
    80020148:	fe043783          	ld	a5,-32(s0)
    8002014c:	8ff9                	and	a5,a5,a4
    8002014e:	853e                	mv	a0,a5
    80020150:	6462                	ld	s0,24(sp)
    80020152:	6105                	addi	sp,sp,32
    80020154:	8082                	ret

0000000080020156 <set_attribute>:
    80020156:	1101                	addi	sp,sp,-32
    80020158:	ec22                	sd	s0,24(sp)
    8002015a:	1000                	addi	s0,sp,32
    8002015c:	fea43423          	sd	a0,-24(s0)
    80020160:	feb43023          	sd	a1,-32(s0)
    80020164:	fe843783          	ld	a5,-24(s0)
    80020168:	6398                	ld	a4,0(a5)
    8002016a:	fe043783          	ld	a5,-32(s0)
    8002016e:	8f5d                	or	a4,a4,a5
    80020170:	fe843783          	ld	a5,-24(s0)
    80020174:	e398                	sd	a4,0(a5)
    80020176:	0001                	nop
    80020178:	6462                	ld	s0,24(sp)
    8002017a:	6105                	addi	sp,sp,32
    8002017c:	8082                	ret

000000008002017e <clear_pgdir>:
    8002017e:	7179                	addi	sp,sp,-48
    80020180:	f422                	sd	s0,40(sp)
    80020182:	1800                	addi	s0,sp,48
    80020184:	fca43c23          	sd	a0,-40(s0)
    80020188:	fd843783          	ld	a5,-40(s0)
    8002018c:	fef43423          	sd	a5,-24(s0)
    80020190:	fe042223          	sw	zero,-28(s0)
    80020194:	a839                	j	800201b2 <clear_pgdir+0x34>
    80020196:	fe843783          	ld	a5,-24(s0)
    8002019a:	0007b023          	sd	zero,0(a5)
    8002019e:	fe843783          	ld	a5,-24(s0)
    800201a2:	07a1                	addi	a5,a5,8
    800201a4:	fef43423          	sd	a5,-24(s0)
    800201a8:	fe442783          	lw	a5,-28(s0)
    800201ac:	2785                	addiw	a5,a5,1
    800201ae:	fef42223          	sw	a5,-28(s0)
    800201b2:	fe442783          	lw	a5,-28(s0)
    800201b6:	0007871b          	sext.w	a4,a5
    800201ba:	1ff00793          	li	a5,511
    800201be:	fce7dce3          	bge	a5,a4,80020196 <clear_pgdir+0x18>
    800201c2:	0001                	nop
    800201c4:	7422                	ld	s0,40(sp)
    800201c6:	6145                	addi	sp,sp,48
    800201c8:	8082                	ret

00000000800201ca <is_elf_format>:
    800201ca:	7179                	addi	sp,sp,-48
    800201cc:	f422                	sd	s0,40(sp)
    800201ce:	1800                	addi	s0,sp,48
    800201d0:	fca43c23          	sd	a0,-40(s0)
    800201d4:	fd843783          	ld	a5,-40(s0)
    800201d8:	fef43423          	sd	a5,-24(s0)
    800201dc:	fe843783          	ld	a5,-24(s0)
    800201e0:	0007c783          	lbu	a5,0(a5)
    800201e4:	eb9d                	bnez	a5,8002021a <is_elf_format+0x50>
    800201e6:	fe843783          	ld	a5,-24(s0)
    800201ea:	0017c783          	lbu	a5,1(a5)
    800201ee:	873e                	mv	a4,a5
    800201f0:	4785                	li	a5,1
    800201f2:	02f71463          	bne	a4,a5,8002021a <is_elf_format+0x50>
    800201f6:	fe843783          	ld	a5,-24(s0)
    800201fa:	0027c783          	lbu	a5,2(a5)
    800201fe:	873e                	mv	a4,a5
    80020200:	4789                	li	a5,2
    80020202:	00f71c63          	bne	a4,a5,8002021a <is_elf_format+0x50>
    80020206:	fe843783          	ld	a5,-24(s0)
    8002020a:	0037c783          	lbu	a5,3(a5)
    8002020e:	873e                	mv	a4,a5
    80020210:	478d                	li	a5,3
    80020212:	00f71463          	bne	a4,a5,8002021a <is_elf_format+0x50>
    80020216:	4781                	li	a5,0
    80020218:	a011                	j	8002021c <is_elf_format+0x52>
    8002021a:	4785                	li	a5,1
    8002021c:	853e                	mv	a0,a5
    8002021e:	7422                	ld	s0,40(sp)
    80020220:	6145                	addi	sp,sp,48
    80020222:	8082                	ret

0000000080020224 <alloc_page>:
    80020224:	1141                	addi	sp,sp,-16
    80020226:	e422                	sd	s0,8(sp)
    80020228:	0800                	addi	s0,sp,16
    8002022a:	0007c797          	auipc	a5,0x7c
    8002022e:	e1678793          	addi	a5,a5,-490 # 8009c040 <pagetop>
    80020232:	6398                	ld	a4,0(a5)
    80020234:	6785                	lui	a5,0x1
    80020236:	973e                	add	a4,a4,a5
    80020238:	0007c797          	auipc	a5,0x7c
    8002023c:	e0878793          	addi	a5,a5,-504 # 8009c040 <pagetop>
    80020240:	e398                	sd	a4,0(a5)
    80020242:	0001                	nop
    80020244:	853e                	mv	a0,a5
    80020246:	6422                	ld	s0,8(sp)
    80020248:	0141                	addi	sp,sp,16
    8002024a:	8082                	ret

000000008002024c <itoa>:
    8002024c:	1101                	addi	sp,sp,-32
    8002024e:	ec22                	sd	s0,24(sp)
    80020250:	1000                	addi	s0,sp,32
    80020252:	fea43423          	sd	a0,-24(s0)
    80020256:	feb43023          	sd	a1,-32(s0)
    8002025a:	a81d                	j	80020290 <itoa+0x44>
    8002025c:	fe843703          	ld	a4,-24(s0)
    80020260:	47a9                	li	a5,10
    80020262:	02f777b3          	remu	a5,a4,a5
    80020266:	0ff7f713          	andi	a4,a5,255
    8002026a:	fe043783          	ld	a5,-32(s0)
    8002026e:	00178693          	addi	a3,a5,1
    80020272:	fed43023          	sd	a3,-32(s0)
    80020276:	0307071b          	addiw	a4,a4,48
    8002027a:	0ff77713          	andi	a4,a4,255
    8002027e:	00e78023          	sb	a4,0(a5)
    80020282:	fe843703          	ld	a4,-24(s0)
    80020286:	47a9                	li	a5,10
    80020288:	02f757b3          	divu	a5,a4,a5
    8002028c:	fef43423          	sd	a5,-24(s0)
    80020290:	fe843783          	ld	a5,-24(s0)
    80020294:	f7e1                	bnez	a5,8002025c <itoa+0x10>
    80020296:	fe043783          	ld	a5,-32(s0)
    8002029a:	00178713          	addi	a4,a5,1
    8002029e:	fee43023          	sd	a4,-32(s0)
    800202a2:	4729                	li	a4,10
    800202a4:	00e78023          	sb	a4,0(a5)
    800202a8:	fe043783          	ld	a5,-32(s0)
    800202ac:	00078023          	sb	zero,0(a5)
    800202b0:	0001                	nop
    800202b2:	6462                	ld	s0,24(sp)
    800202b4:	6105                	addi	sp,sp,32
    800202b6:	8082                	ret

00000000800202b8 <map_page>:
    800202b8:	711d                	addi	sp,sp,-96
    800202ba:	ec86                	sd	ra,88(sp)
    800202bc:	e8a2                	sd	s0,80(sp)
    800202be:	1080                	addi	s0,sp,96
    800202c0:	faa43c23          	sd	a0,-72(s0)
    800202c4:	fab43823          	sd	a1,-80(s0)
    800202c8:	fac43423          	sd	a2,-88(s0)
    800202cc:	fb843783          	ld	a5,-72(s0)
    800202d0:	83f9                	srli	a5,a5,0x1e
    800202d2:	1ff7f793          	andi	a5,a5,511
    800202d6:	fef43023          	sd	a5,-32(s0)
    800202da:	fb043783          	ld	a5,-80(s0)
    800202de:	83d5                	srli	a5,a5,0x15
    800202e0:	fcf43c23          	sd	a5,-40(s0)
    800202e4:	fb843783          	ld	a5,-72(s0)
    800202e8:	83d5                	srli	a5,a5,0x15
    800202ea:	1ff7f793          	andi	a5,a5,511
    800202ee:	fcf43823          	sd	a5,-48(s0)
    800202f2:	fe043783          	ld	a5,-32(s0)
    800202f6:	078e                	slli	a5,a5,0x3
    800202f8:	fa843703          	ld	a4,-88(s0)
    800202fc:	97ba                	add	a5,a5,a4
    800202fe:	fef43423          	sd	a5,-24(s0)
    80020302:	fe843783          	ld	a5,-24(s0)
    80020306:	639c                	ld	a5,0(a5)
    80020308:	4585                	li	a1,1
    8002030a:	853e                	mv	a0,a5
    8002030c:	e2bff0ef          	jal	ra,80020136 <get_attribute>
    80020310:	87aa                	mv	a5,a0
    80020312:	efa1                	bnez	a5,8002036a <map_page+0xb2>
    80020314:	f11ff0ef          	jal	ra,80020224 <alloc_page>
    80020318:	0007c797          	auipc	a5,0x7c
    8002031c:	d2878793          	addi	a5,a5,-728 # 8009c040 <pagetop>
    80020320:	639c                	ld	a5,0(a5)
    80020322:	853e                	mv	a0,a5
    80020324:	e5bff0ef          	jal	ra,8002017e <clear_pgdir>
    80020328:	0007c797          	auipc	a5,0x7c
    8002032c:	d1878793          	addi	a5,a5,-744 # 8009c040 <pagetop>
    80020330:	639c                	ld	a5,0(a5)
    80020332:	83b1                	srli	a5,a5,0xc
    80020334:	fcf43423          	sd	a5,-56(s0)
    80020338:	fc843583          	ld	a1,-56(s0)
    8002033c:	fe843503          	ld	a0,-24(s0)
    80020340:	dc9ff0ef          	jal	ra,80020108 <set_pfn>
    80020344:	0c100593          	li	a1,193
    80020348:	fe843503          	ld	a0,-24(s0)
    8002034c:	e0bff0ef          	jal	ra,80020156 <set_attribute>
    80020350:	fd043783          	ld	a5,-48(s0)
    80020354:	00379713          	slli	a4,a5,0x3
    80020358:	0007c797          	auipc	a5,0x7c
    8002035c:	ce878793          	addi	a5,a5,-792 # 8009c040 <pagetop>
    80020360:	639c                	ld	a5,0(a5)
    80020362:	97ba                	add	a5,a5,a4
    80020364:	fef43423          	sd	a5,-24(s0)
    80020368:	a005                	j	80020388 <map_page+0xd0>
    8002036a:	fe843783          	ld	a5,-24(s0)
    8002036e:	639c                	ld	a5,0(a5)
    80020370:	853e                	mv	a0,a5
    80020372:	d7fff0ef          	jal	ra,800200f0 <get_pfn>
    80020376:	87aa                	mv	a5,a0
    80020378:	00c79713          	slli	a4,a5,0xc
    8002037c:	fd043783          	ld	a5,-48(s0)
    80020380:	078e                	slli	a5,a5,0x3
    80020382:	97ba                	add	a5,a5,a4
    80020384:	fef43423          	sd	a5,-24(s0)
    80020388:	fd843783          	ld	a5,-40(s0)
    8002038c:	07a6                	slli	a5,a5,0x9
    8002038e:	85be                	mv	a1,a5
    80020390:	fe843503          	ld	a0,-24(s0)
    80020394:	d75ff0ef          	jal	ra,80020108 <set_pfn>
    80020398:	0cf00593          	li	a1,207
    8002039c:	fe843503          	ld	a0,-24(s0)
    800203a0:	db7ff0ef          	jal	ra,80020156 <set_attribute>
    800203a4:	0001                	nop
    800203a6:	60e6                	ld	ra,88(sp)
    800203a8:	6446                	ld	s0,80(sp)
    800203aa:	6125                	addi	sp,sp,96
    800203ac:	8082                	ret

00000000800203ae <enable_vm>:
    800203ae:	1141                	addi	sp,sp,-16
    800203b0:	e406                	sd	ra,8(sp)
    800203b2:	e022                	sd	s0,0(sp)
    800203b4:	0800                	addi	s0,sp,16
    800203b6:	000807b7          	lui	a5,0x80
    800203ba:	2fd78613          	addi	a2,a5,765 # 802fd <_start-0x7ff9fd03>
    800203be:	4581                	li	a1,0
    800203c0:	4521                	li	a0,8
    800203c2:	cedff0ef          	jal	ra,800200ae <set_satp>
    800203c6:	cc7ff0ef          	jal	ra,8002008c <local_flush_tlb_all>
    800203ca:	0001                	nop
    800203cc:	60a2                	ld	ra,8(sp)
    800203ce:	6402                	ld	s0,0(sp)
    800203d0:	0141                	addi	sp,sp,16
    800203d2:	8082                	ret

00000000800203d4 <setup_vm>:
    800203d4:	1101                	addi	sp,sp,-32
    800203d6:	ec06                	sd	ra,24(sp)
    800203d8:	e822                	sd	s0,16(sp)
    800203da:	1000                	addi	s0,sp,32
    800203dc:	000807b7          	lui	a5,0x80
    800203e0:	2fd78793          	addi	a5,a5,765 # 802fd <_start-0x7ff9fd03>
    800203e4:	00c79513          	slli	a0,a5,0xc
    800203e8:	d97ff0ef          	jal	ra,8002017e <clear_pgdir>
    800203ec:	800007b7          	lui	a5,0x80000
    800203f0:	fef43423          	sd	a5,-24(s0)
    800203f4:	a805                	j	80020424 <setup_vm+0x50>
    800203f6:	fe843703          	ld	a4,-24(s0)
    800203fa:	57fd                	li	a5,-1
    800203fc:	9381                	srli	a5,a5,0x20
    800203fe:	8f7d                	and	a4,a4,a5
    80020400:	000807b7          	lui	a5,0x80
    80020404:	2fd78793          	addi	a5,a5,765 # 802fd <_start-0x7ff9fd03>
    80020408:	00c79613          	slli	a2,a5,0xc
    8002040c:	85ba                	mv	a1,a4
    8002040e:	fe843503          	ld	a0,-24(s0)
    80020412:	ea7ff0ef          	jal	ra,800202b8 <map_page>
    80020416:	fe843703          	ld	a4,-24(s0)
    8002041a:	002007b7          	lui	a5,0x200
    8002041e:	97ba                	add	a5,a5,a4
    80020420:	fef43423          	sd	a5,-24(s0)
    80020424:	fe843703          	ld	a4,-24(s0)
    80020428:	806007b7          	lui	a5,0x80600
    8002042c:	fcf765e3          	bltu	a4,a5,800203f6 <setup_vm+0x22>
    80020430:	040017b7          	lui	a5,0x4001
    80020434:	0796                	slli	a5,a5,0x5
    80020436:	fef43023          	sd	a5,-32(s0)
    8002043a:	a025                	j	80020462 <setup_vm+0x8e>
    8002043c:	000807b7          	lui	a5,0x80
    80020440:	2fd78793          	addi	a5,a5,765 # 802fd <_start-0x7ff9fd03>
    80020444:	00c79613          	slli	a2,a5,0xc
    80020448:	fe043583          	ld	a1,-32(s0)
    8002044c:	fe043503          	ld	a0,-32(s0)
    80020450:	e69ff0ef          	jal	ra,800202b8 <map_page>
    80020454:	fe043703          	ld	a4,-32(s0)
    80020458:	002007b7          	lui	a5,0x200
    8002045c:	97ba                	add	a5,a5,a4
    8002045e:	fef43023          	sd	a5,-32(s0)
    80020462:	fe043703          	ld	a4,-32(s0)
    80020466:	008037b7          	lui	a5,0x803
    8002046a:	07a2                	slli	a5,a5,0x8
    8002046c:	fcf768e3          	bltu	a4,a5,8002043c <setup_vm+0x68>
    80020470:	f3fff0ef          	jal	ra,800203ae <enable_vm>
    80020474:	0001                	nop
    80020476:	60e2                	ld	ra,24(sp)
    80020478:	6442                	ld	s0,16(sp)
    8002047a:	6105                	addi	sp,sp,32
    8002047c:	8082                	ret

000000008002047e <directmap>:
    8002047e:	1101                	addi	sp,sp,-32
    80020480:	ec22                	sd	s0,24(sp)
    80020482:	1000                	addi	s0,sp,32
    80020484:	fea43423          	sd	a0,-24(s0)
    80020488:	feb43023          	sd	a1,-32(s0)
    8002048c:	fe843783          	ld	a5,-24(s0)
    80020490:	853e                	mv	a0,a5
    80020492:	6462                	ld	s0,24(sp)
    80020494:	6105                	addi	sp,sp,32
    80020496:	8082                	ret

0000000080020498 <load_elf>:
    80020498:	7171                	addi	sp,sp,-176
    8002049a:	f506                	sd	ra,168(sp)
    8002049c:	f122                	sd	s0,160(sp)
    8002049e:	1900                	addi	s0,sp,176
    800204a0:	f6a43c23          	sd	a0,-136(s0)
    800204a4:	87ae                	mv	a5,a1
    800204a6:	f6c43423          	sd	a2,-152(s0)
    800204aa:	f6d43023          	sd	a3,-160(s0)
    800204ae:	f4e43c23          	sd	a4,-168(s0)
    800204b2:	f6f42a23          	sw	a5,-140(s0)
    800204b6:	f7843783          	ld	a5,-136(s0)
    800204ba:	faf43823          	sd	a5,-80(s0)
    800204be:	fa043423          	sd	zero,-88(s0)
    800204c2:	fe043423          	sd	zero,-24(s0)
    800204c6:	fe043023          	sd	zero,-32(s0)
    800204ca:	fc043c23          	sd	zero,-40(s0)
    800204ce:	fc042823          	sw	zero,-48(s0)
    800204d2:	f7442783          	lw	a5,-140(s0)
    800204d6:	0007871b          	sext.w	a4,a5
    800204da:	478d                	li	a5,3
    800204dc:	00e7f863          	bgeu	a5,a4,800204ec <load_elf+0x54>
    800204e0:	f7843503          	ld	a0,-136(s0)
    800204e4:	ce7ff0ef          	jal	ra,800201ca <is_elf_format>
    800204e8:	87aa                	mv	a5,a0
    800204ea:	e399                	bnez	a5,800204f0 <load_elf+0x58>
    800204ec:	4781                	li	a5,0
    800204ee:	a4d9                	j	800207b4 <load_elf+0x31c>
    800204f0:	fb043783          	ld	a5,-80(s0)
    800204f4:	739c                	ld	a5,32(a5)
    800204f6:	f7843703          	ld	a4,-136(s0)
    800204fa:	97ba                	add	a5,a5,a4
    800204fc:	fef43023          	sd	a5,-32(s0)
    80020500:	fb043783          	ld	a5,-80(s0)
    80020504:	779c                	ld	a5,40(a5)
    80020506:	f7843703          	ld	a4,-136(s0)
    8002050a:	97ba                	add	a5,a5,a4
    8002050c:	fcf43c23          	sd	a5,-40(s0)
    80020510:	fb043783          	ld	a5,-80(s0)
    80020514:	0387d783          	lhu	a5,56(a5) # 803038 <_start-0x7f81cfc8>
    80020518:	fcf41b23          	sh	a5,-42(s0)
    8002051c:	fb043783          	ld	a5,-80(s0)
    80020520:	0367d783          	lhu	a5,54(a5)
    80020524:	faf41323          	sh	a5,-90(s0)
    80020528:	fb043783          	ld	a5,-80(s0)
    8002052c:	03c7d783          	lhu	a5,60(a5)
    80020530:	faf41223          	sh	a5,-92(s0)
    80020534:	fb043783          	ld	a5,-80(s0)
    80020538:	03a7d783          	lhu	a5,58(a5)
    8002053c:	faf41123          	sh	a5,-94(s0)
    80020540:	fc043423          	sd	zero,-56(s0)
    80020544:	aa7d                	j	80020702 <load_elf+0x26a>
    80020546:	fe043783          	ld	a5,-32(s0)
    8002054a:	faf43423          	sd	a5,-88(s0)
    8002054e:	fa843783          	ld	a5,-88(s0)
    80020552:	439c                	lw	a5,0(a5)
    80020554:	873e                	mv	a4,a5
    80020556:	4785                	li	a5,1
    80020558:	00f70c63          	beq	a4,a5,80020570 <load_elf+0xd8>
    8002055c:	fa843783          	ld	a5,-88(s0)
    80020560:	439c                	lw	a5,0(a5)
    80020562:	873e                	mv	a4,a5
    80020564:	6474e7b7          	lui	a5,0x6474e
    80020568:	55278793          	addi	a5,a5,1362 # 6474e552 <_start-0x1b8d1aae>
    8002056c:	18f71463          	bne	a4,a5,800206f4 <load_elf+0x25c>
    80020570:	fc843783          	ld	a5,-56(s0)
    80020574:	e791                	bnez	a5,80020580 <load_elf+0xe8>
    80020576:	fa843783          	ld	a5,-88(s0)
    8002057a:	6b9c                	ld	a5,16(a5)
    8002057c:	fcf43423          	sd	a5,-56(s0)
    80020580:	fc042823          	sw	zero,-48(s0)
    80020584:	a28d                	j	800206e6 <load_elf+0x24e>
    80020586:	fa843783          	ld	a5,-88(s0)
    8002058a:	6b98                	ld	a4,16(a5)
    8002058c:	fd042783          	lw	a5,-48(s0)
    80020590:	973e                	add	a4,a4,a5
    80020592:	6785                	lui	a5,0x1
    80020594:	17fd                	addi	a5,a5,-1
    80020596:	8ff9                	and	a5,a5,a4
    80020598:	f8f43c23          	sd	a5,-104(s0)
    8002059c:	fd042703          	lw	a4,-48(s0)
    800205a0:	fa843783          	ld	a5,-88(s0)
    800205a4:	739c                	ld	a5,32(a5)
    800205a6:	0cf77863          	bgeu	a4,a5,80020676 <load_elf+0x1de>
    800205aa:	fa843783          	ld	a5,-88(s0)
    800205ae:	6b98                	ld	a4,16(a5)
    800205b0:	fd042783          	lw	a5,-48(s0)
    800205b4:	97ba                	add	a5,a5,a4
    800205b6:	f6043703          	ld	a4,-160(s0)
    800205ba:	4639                	li	a2,14
    800205bc:	f6843583          	ld	a1,-152(s0)
    800205c0:	853e                	mv	a0,a5
    800205c2:	9702                	jalr	a4
    800205c4:	87aa                	mv	a5,a0
    800205c6:	f8f43823          	sd	a5,-112(s0)
    800205ca:	6705                	lui	a4,0x1
    800205cc:	f9843783          	ld	a5,-104(s0)
    800205d0:	40f706b3          	sub	a3,a4,a5
    800205d4:	fa843783          	ld	a5,-88(s0)
    800205d8:	7398                	ld	a4,32(a5)
    800205da:	fd042783          	lw	a5,-48(s0)
    800205de:	8f1d                	sub	a4,a4,a5
    800205e0:	87b6                	mv	a5,a3
    800205e2:	00f77363          	bgeu	a4,a5,800205e8 <load_elf+0x150>
    800205e6:	87ba                	mv	a5,a4
    800205e8:	fcf43023          	sd	a5,-64(s0)
    800205ec:	f9043703          	ld	a4,-112(s0)
    800205f0:	f9843783          	ld	a5,-104(s0)
    800205f4:	00f706b3          	add	a3,a4,a5
    800205f8:	fa843783          	ld	a5,-88(s0)
    800205fc:	6798                	ld	a4,8(a5)
    800205fe:	fd042783          	lw	a5,-48(s0)
    80020602:	97ba                	add	a5,a5,a4
    80020604:	f7843703          	ld	a4,-136(s0)
    80020608:	97ba                	add	a5,a5,a4
    8002060a:	fc043703          	ld	a4,-64(s0)
    8002060e:	2701                	sext.w	a4,a4
    80020610:	863a                	mv	a2,a4
    80020612:	85be                	mv	a1,a5
    80020614:	8536                	mv	a0,a3
    80020616:	262000ef          	jal	ra,80020878 <memcpy>
    8002061a:	f9843703          	ld	a4,-104(s0)
    8002061e:	fc043783          	ld	a5,-64(s0)
    80020622:	973e                	add	a4,a4,a5
    80020624:	6785                	lui	a5,0x1
    80020626:	0af77663          	bgeu	a4,a5,800206d2 <load_elf+0x23a>
    8002062a:	f9843783          	ld	a5,-104(s0)
    8002062e:	0007871b          	sext.w	a4,a5
    80020632:	fc043783          	ld	a5,-64(s0)
    80020636:	2781                	sext.w	a5,a5
    80020638:	9fb9                	addw	a5,a5,a4
    8002063a:	2781                	sext.w	a5,a5
    8002063c:	faf42e23          	sw	a5,-68(s0)
    80020640:	a829                	j	8002065a <load_elf+0x1c2>
    80020642:	fbc42783          	lw	a5,-68(s0)
    80020646:	f9043703          	ld	a4,-112(s0)
    8002064a:	97ba                	add	a5,a5,a4
    8002064c:	00078023          	sb	zero,0(a5) # 1000 <_start-0x8001f000>
    80020650:	fbc42783          	lw	a5,-68(s0)
    80020654:	2785                	addiw	a5,a5,1
    80020656:	faf42e23          	sw	a5,-68(s0)
    8002065a:	fbc42783          	lw	a5,-68(s0)
    8002065e:	873e                	mv	a4,a5
    80020660:	6785                	lui	a5,0x1
    80020662:	fef760e3          	bltu	a4,a5,80020642 <load_elf+0x1aa>
    80020666:	6705                	lui	a4,0x1
    80020668:	f9843783          	ld	a5,-104(s0)
    8002066c:	40f707b3          	sub	a5,a4,a5
    80020670:	fcf43023          	sd	a5,-64(s0)
    80020674:	a8b9                	j	800206d2 <load_elf+0x23a>
    80020676:	fa843783          	ld	a5,-88(s0)
    8002067a:	6b98                	ld	a4,16(a5)
    8002067c:	fd042783          	lw	a5,-48(s0)
    80020680:	97ba                	add	a5,a5,a4
    80020682:	f6043703          	ld	a4,-160(s0)
    80020686:	4639                	li	a2,14
    80020688:	f6843583          	ld	a1,-152(s0)
    8002068c:	853e                	mv	a0,a5
    8002068e:	9702                	jalr	a4
    80020690:	87aa                	mv	a5,a0
    80020692:	f8f43423          	sd	a5,-120(s0)
    80020696:	6705                	lui	a4,0x1
    80020698:	f9843783          	ld	a5,-104(s0)
    8002069c:	40f707b3          	sub	a5,a4,a5
    800206a0:	fcf43023          	sd	a5,-64(s0)
    800206a4:	f9843783          	ld	a5,-104(s0)
    800206a8:	faf42c23          	sw	a5,-72(s0)
    800206ac:	a829                	j	800206c6 <load_elf+0x22e>
    800206ae:	fb842783          	lw	a5,-72(s0)
    800206b2:	f8843703          	ld	a4,-120(s0)
    800206b6:	97ba                	add	a5,a5,a4
    800206b8:	00078023          	sb	zero,0(a5) # 1000 <_start-0x8001f000>
    800206bc:	fb842783          	lw	a5,-72(s0)
    800206c0:	2785                	addiw	a5,a5,1
    800206c2:	faf42c23          	sw	a5,-72(s0)
    800206c6:	fb842783          	lw	a5,-72(s0)
    800206ca:	873e                	mv	a4,a5
    800206cc:	6785                	lui	a5,0x1
    800206ce:	fef760e3          	bltu	a4,a5,800206ae <load_elf+0x216>
    800206d2:	fc043783          	ld	a5,-64(s0)
    800206d6:	0007871b          	sext.w	a4,a5
    800206da:	fd042783          	lw	a5,-48(s0)
    800206de:	9fb9                	addw	a5,a5,a4
    800206e0:	2781                	sext.w	a5,a5
    800206e2:	fcf42823          	sw	a5,-48(s0)
    800206e6:	fd042703          	lw	a4,-48(s0)
    800206ea:	fa843783          	ld	a5,-88(s0)
    800206ee:	779c                	ld	a5,40(a5)
    800206f0:	e8f76be3          	bltu	a4,a5,80020586 <load_elf+0xee>
    800206f4:	fa645783          	lhu	a5,-90(s0)
    800206f8:	fe043703          	ld	a4,-32(s0)
    800206fc:	97ba                	add	a5,a5,a4
    800206fe:	fef43023          	sd	a5,-32(s0)
    80020702:	fd645783          	lhu	a5,-42(s0)
    80020706:	fff7871b          	addiw	a4,a5,-1
    8002070a:	fce41b23          	sh	a4,-42(s0)
    8002070e:	e2079ce3          	bnez	a5,80020546 <load_elf+0xae>
    80020712:	fa245783          	lhu	a5,-94(s0)
    80020716:	fd843703          	ld	a4,-40(s0)
    8002071a:	97ba                	add	a5,a5,a4
    8002071c:	fcf43c23          	sd	a5,-40(s0)
    80020720:	fd843783          	ld	a5,-40(s0)
    80020724:	fef43423          	sd	a5,-24(s0)
    80020728:	a821                	j	80020740 <load_elf+0x2a8>
    8002072a:	fa245783          	lhu	a5,-94(s0)
    8002072e:	fd843703          	ld	a4,-40(s0)
    80020732:	97ba                	add	a5,a5,a4
    80020734:	fcf43c23          	sd	a5,-40(s0)
    80020738:	fd843783          	ld	a5,-40(s0)
    8002073c:	fef43423          	sd	a5,-24(s0)
    80020740:	fe843783          	ld	a5,-24(s0)
    80020744:	679c                	ld	a5,8(a5)
    80020746:	8b89                	andi	a5,a5,2
    80020748:	f3ed                	bnez	a5,8002072a <load_elf+0x292>
    8002074a:	fa245783          	lhu	a5,-94(s0)
    8002074e:	40f007b3          	neg	a5,a5
    80020752:	fd843703          	ld	a4,-40(s0)
    80020756:	97ba                	add	a5,a5,a4
    80020758:	fef43423          	sd	a5,-24(s0)
    8002075c:	fb043783          	ld	a5,-80(s0)
    80020760:	7398                	ld	a4,32(a5)
    80020762:	fc843783          	ld	a5,-56(s0)
    80020766:	973e                	add	a4,a4,a5
    80020768:	f5843783          	ld	a5,-168(s0)
    8002076c:	e398                	sd	a4,0(a5)
    8002076e:	fb043783          	ld	a5,-80(s0)
    80020772:	0367d783          	lhu	a5,54(a5) # 1036 <_start-0x8001efca>
    80020776:	873e                	mv	a4,a5
    80020778:	f5843783          	ld	a5,-168(s0)
    8002077c:	e798                	sd	a4,8(a5)
    8002077e:	fb043783          	ld	a5,-80(s0)
    80020782:	0387d783          	lhu	a5,56(a5)
    80020786:	873e                	mv	a4,a5
    80020788:	f5843783          	ld	a5,-168(s0)
    8002078c:	eb98                	sd	a4,16(a5)
    8002078e:	fb043783          	ld	a5,-80(s0)
    80020792:	6f98                	ld	a4,24(a5)
    80020794:	f5843783          	ld	a5,-168(s0)
    80020798:	ef98                	sd	a4,24(a5)
    8002079a:	fe843783          	ld	a5,-24(s0)
    8002079e:	6b98                	ld	a4,16(a5)
    800207a0:	fe843783          	ld	a5,-24(s0)
    800207a4:	739c                	ld	a5,32(a5)
    800207a6:	973e                	add	a4,a4,a5
    800207a8:	f5843783          	ld	a5,-168(s0)
    800207ac:	f398                	sd	a4,32(a5)
    800207ae:	fb043783          	ld	a5,-80(s0)
    800207b2:	6f9c                	ld	a5,24(a5)
    800207b4:	853e                	mv	a0,a5
    800207b6:	70aa                	ld	ra,168(sp)
    800207b8:	740a                	ld	s0,160(sp)
    800207ba:	614d                	addi	sp,sp,176
    800207bc:	8082                	ret

00000000800207be <boot_kernel>:
    800207be:	715d                	addi	sp,sp,-80
    800207c0:	e486                	sd	ra,72(sp)
    800207c2:	e0a2                	sd	s0,64(sp)
    800207c4:	0880                	addi	s0,sp,80
    800207c6:	faa43c23          	sd	a0,-72(s0)
    800207ca:	fab43823          	sd	a1,-80(s0)
    800207ce:	fb843783          	ld	a5,-72(s0)
    800207d2:	e3b9                	bnez	a5,80020818 <boot_kernel+0x5a>
    800207d4:	c01ff0ef          	jal	ra,800203d4 <setup_vm>
    800207d8:	0007c797          	auipc	a5,0x7c
    800207dc:	87078793          	addi	a5,a5,-1936 # 8009c048 <_length_main>
    800207e0:	438c                	lw	a1,0(a5)
    800207e2:	fc840793          	addi	a5,s0,-56
    800207e6:	873e                	mv	a4,a5
    800207e8:	00000697          	auipc	a3,0x0
    800207ec:	c9668693          	addi	a3,a3,-874 # 8002047e <directmap>
    800207f0:	000807b7          	lui	a5,0x80
    800207f4:	2fd78793          	addi	a5,a5,765 # 802fd <_start-0x7ff9fd03>
    800207f8:	00c79613          	slli	a2,a5,0xc
    800207fc:	00000517          	auipc	a0,0x0
    80020800:	40450513          	addi	a0,a0,1028 # 80020c00 <_elf_main>
    80020804:	c95ff0ef          	jal	ra,80020498 <load_elf>
    80020808:	87aa                	mv	a5,a0
    8002080a:	873e                	mv	a4,a5
    8002080c:	0007c797          	auipc	a5,0x7c
    80020810:	84478793          	addi	a5,a5,-1980 # 8009c050 <start_kernel>
    80020814:	e398                	sd	a4,0(a5)
    80020816:	a031                	j	80020822 <boot_kernel+0x64>
    80020818:	03600513          	li	a0,54
    8002081c:	84dff0ef          	jal	ra,80020068 <sbi_console_putchar>
    80020820:	bfe5                	j	80020818 <boot_kernel+0x5a>
    80020822:	0007c797          	auipc	a5,0x7c
    80020826:	82e78793          	addi	a5,a5,-2002 # 8009c050 <start_kernel>
    8002082a:	639c                	ld	a5,0(a5)
    8002082c:	fb043583          	ld	a1,-80(s0)
    80020830:	fb843503          	ld	a0,-72(s0)
    80020834:	9782                	jalr	a5
    80020836:	4781                	li	a5,0
    80020838:	853e                	mv	a0,a5
    8002083a:	60a6                	ld	ra,72(sp)
    8002083c:	6406                	ld	s0,64(sp)
    8002083e:	6161                	addi	sp,sp,80
    80020840:	8082                	ret

0000000080020842 <strlen>:
    80020842:	7179                	addi	sp,sp,-48
    80020844:	f422                	sd	s0,40(sp)
    80020846:	1800                	addi	s0,sp,48
    80020848:	fca43c23          	sd	a0,-40(s0)
    8002084c:	fe042623          	sw	zero,-20(s0)
    80020850:	a031                	j	8002085c <strlen+0x1a>
    80020852:	fec42783          	lw	a5,-20(s0)
    80020856:	2785                	addiw	a5,a5,1
    80020858:	fef42623          	sw	a5,-20(s0)
    8002085c:	fec42783          	lw	a5,-20(s0)
    80020860:	fd843703          	ld	a4,-40(s0)
    80020864:	97ba                	add	a5,a5,a4
    80020866:	0007c783          	lbu	a5,0(a5)
    8002086a:	f7e5                	bnez	a5,80020852 <strlen+0x10>
    8002086c:	fec42783          	lw	a5,-20(s0)
    80020870:	853e                	mv	a0,a5
    80020872:	7422                	ld	s0,40(sp)
    80020874:	6145                	addi	sp,sp,48
    80020876:	8082                	ret

0000000080020878 <memcpy>:
    80020878:	7179                	addi	sp,sp,-48
    8002087a:	f422                	sd	s0,40(sp)
    8002087c:	1800                	addi	s0,sp,48
    8002087e:	fea43423          	sd	a0,-24(s0)
    80020882:	feb43023          	sd	a1,-32(s0)
    80020886:	87b2                	mv	a5,a2
    80020888:	fcf42e23          	sw	a5,-36(s0)
    8002088c:	a035                	j	800208b8 <memcpy+0x40>
    8002088e:	fe043703          	ld	a4,-32(s0)
    80020892:	00170793          	addi	a5,a4,1 # 1001 <_start-0x8001efff>
    80020896:	fef43023          	sd	a5,-32(s0)
    8002089a:	fe843783          	ld	a5,-24(s0)
    8002089e:	00178693          	addi	a3,a5,1
    800208a2:	fed43423          	sd	a3,-24(s0)
    800208a6:	00074703          	lbu	a4,0(a4)
    800208aa:	00e78023          	sb	a4,0(a5)
    800208ae:	fdc42783          	lw	a5,-36(s0)
    800208b2:	37fd                	addiw	a5,a5,-1
    800208b4:	fcf42e23          	sw	a5,-36(s0)
    800208b8:	fdc42783          	lw	a5,-36(s0)
    800208bc:	2781                	sext.w	a5,a5
    800208be:	fbe1                	bnez	a5,8002088e <memcpy+0x16>
    800208c0:	0001                	nop
    800208c2:	7422                	ld	s0,40(sp)
    800208c4:	6145                	addi	sp,sp,48
    800208c6:	8082                	ret

00000000800208c8 <memcmp>:
    800208c8:	7139                	addi	sp,sp,-64
    800208ca:	fc22                	sd	s0,56(sp)
    800208cc:	0080                	addi	s0,sp,64
    800208ce:	fca43c23          	sd	a0,-40(s0)
    800208d2:	fcb43823          	sd	a1,-48(s0)
    800208d6:	fcc43423          	sd	a2,-56(s0)
    800208da:	fe042623          	sw	zero,-20(s0)
    800208de:	a8a1                	j	80020936 <memcmp+0x6e>
    800208e0:	fec42783          	lw	a5,-20(s0)
    800208e4:	fd843703          	ld	a4,-40(s0)
    800208e8:	97ba                	add	a5,a5,a4
    800208ea:	0007c683          	lbu	a3,0(a5)
    800208ee:	fec42783          	lw	a5,-20(s0)
    800208f2:	fd043703          	ld	a4,-48(s0)
    800208f6:	97ba                	add	a5,a5,a4
    800208f8:	0007c783          	lbu	a5,0(a5)
    800208fc:	8736                	mv	a4,a3
    800208fe:	02f70763          	beq	a4,a5,8002092c <memcmp+0x64>
    80020902:	fec42783          	lw	a5,-20(s0)
    80020906:	fd843703          	ld	a4,-40(s0)
    8002090a:	97ba                	add	a5,a5,a4
    8002090c:	0007c783          	lbu	a5,0(a5)
    80020910:	0007871b          	sext.w	a4,a5
    80020914:	fec42783          	lw	a5,-20(s0)
    80020918:	fd043683          	ld	a3,-48(s0)
    8002091c:	97b6                	add	a5,a5,a3
    8002091e:	0007c783          	lbu	a5,0(a5)
    80020922:	2781                	sext.w	a5,a5
    80020924:	40f707bb          	subw	a5,a4,a5
    80020928:	2781                	sext.w	a5,a5
    8002092a:	a829                	j	80020944 <memcmp+0x7c>
    8002092c:	fec42783          	lw	a5,-20(s0)
    80020930:	2785                	addiw	a5,a5,1
    80020932:	fef42623          	sw	a5,-20(s0)
    80020936:	fec42783          	lw	a5,-20(s0)
    8002093a:	fc843703          	ld	a4,-56(s0)
    8002093e:	fae7e1e3          	bltu	a5,a4,800208e0 <memcmp+0x18>
    80020942:	4781                	li	a5,0
    80020944:	853e                	mv	a0,a5
    80020946:	7462                	ld	s0,56(sp)
    80020948:	6121                	addi	sp,sp,64
    8002094a:	8082                	ret

000000008002094c <memmove>:
    8002094c:	715d                	addi	sp,sp,-80
    8002094e:	e4a2                	sd	s0,72(sp)
    80020950:	0880                	addi	s0,sp,80
    80020952:	fca43423          	sd	a0,-56(s0)
    80020956:	fcb43023          	sd	a1,-64(s0)
    8002095a:	fac42e23          	sw	a2,-68(s0)
    8002095e:	860a                	mv	a2,sp
    80020960:	8532                	mv	a0,a2
    80020962:	fbc42603          	lw	a2,-68(s0)
    80020966:	02061593          	slli	a1,a2,0x20
    8002096a:	9181                	srli	a1,a1,0x20
    8002096c:	15fd                	addi	a1,a1,-1
    8002096e:	feb43423          	sd	a1,-24(s0)
    80020972:	02061593          	slli	a1,a2,0x20
    80020976:	9181                	srli	a1,a1,0x20
    80020978:	8e2e                	mv	t3,a1
    8002097a:	4e81                	li	t4,0
    8002097c:	03de5593          	srli	a1,t3,0x3d
    80020980:	003e9713          	slli	a4,t4,0x3
    80020984:	8f4d                	or	a4,a4,a1
    80020986:	003e1693          	slli	a3,t3,0x3
    8002098a:	02061713          	slli	a4,a2,0x20
    8002098e:	9301                	srli	a4,a4,0x20
    80020990:	833a                	mv	t1,a4
    80020992:	4381                	li	t2,0
    80020994:	03d35713          	srli	a4,t1,0x3d
    80020998:	00339813          	slli	a6,t2,0x3
    8002099c:	01076833          	or	a6,a4,a6
    800209a0:	00331793          	slli	a5,t1,0x3
    800209a4:	02061793          	slli	a5,a2,0x20
    800209a8:	9381                	srli	a5,a5,0x20
    800209aa:	07bd                	addi	a5,a5,15
    800209ac:	8391                	srli	a5,a5,0x4
    800209ae:	0792                	slli	a5,a5,0x4
    800209b0:	40f10133          	sub	sp,sp,a5
    800209b4:	878a                	mv	a5,sp
    800209b6:	00078793          	mv	a5,a5
    800209ba:	fef43023          	sd	a5,-32(s0)
    800209be:	fc042e23          	sw	zero,-36(s0)
    800209c2:	a02d                	j	800209ec <memmove+0xa0>
    800209c4:	fc043783          	ld	a5,-64(s0)
    800209c8:	00178713          	addi	a4,a5,1
    800209cc:	fce43023          	sd	a4,-64(s0)
    800209d0:	0007c703          	lbu	a4,0(a5)
    800209d4:	fe043683          	ld	a3,-32(s0)
    800209d8:	fdc42783          	lw	a5,-36(s0)
    800209dc:	97b6                	add	a5,a5,a3
    800209de:	00e78023          	sb	a4,0(a5)
    800209e2:	fbc42783          	lw	a5,-68(s0)
    800209e6:	37fd                	addiw	a5,a5,-1
    800209e8:	faf42e23          	sw	a5,-68(s0)
    800209ec:	fbc42783          	lw	a5,-68(s0)
    800209f0:	2781                	sext.w	a5,a5
    800209f2:	fbe9                	bnez	a5,800209c4 <memmove+0x78>
    800209f4:	a02d                	j	80020a1e <memmove+0xd2>
    800209f6:	fc843783          	ld	a5,-56(s0)
    800209fa:	00178713          	addi	a4,a5,1
    800209fe:	fce43423          	sd	a4,-56(s0)
    80020a02:	fe043683          	ld	a3,-32(s0)
    80020a06:	fdc42703          	lw	a4,-36(s0)
    80020a0a:	9736                	add	a4,a4,a3
    80020a0c:	00074703          	lbu	a4,0(a4)
    80020a10:	00e78023          	sb	a4,0(a5)
    80020a14:	fbc42783          	lw	a5,-68(s0)
    80020a18:	37fd                	addiw	a5,a5,-1
    80020a1a:	faf42e23          	sw	a5,-68(s0)
    80020a1e:	fbc42783          	lw	a5,-68(s0)
    80020a22:	2781                	sext.w	a5,a5
    80020a24:	fbe9                	bnez	a5,800209f6 <memmove+0xaa>
    80020a26:	812a                	mv	sp,a0
    80020a28:	0001                	nop
    80020a2a:	fb040113          	addi	sp,s0,-80
    80020a2e:	6426                	ld	s0,72(sp)
    80020a30:	6161                	addi	sp,sp,80
    80020a32:	8082                	ret

0000000080020a34 <memset>:
    80020a34:	7179                	addi	sp,sp,-48
    80020a36:	f422                	sd	s0,40(sp)
    80020a38:	1800                	addi	s0,sp,48
    80020a3a:	fca43c23          	sd	a0,-40(s0)
    80020a3e:	87ae                	mv	a5,a1
    80020a40:	8732                	mv	a4,a2
    80020a42:	fcf40ba3          	sb	a5,-41(s0)
    80020a46:	87ba                	mv	a5,a4
    80020a48:	fcf42823          	sw	a5,-48(s0)
    80020a4c:	fd843783          	ld	a5,-40(s0)
    80020a50:	fef43423          	sd	a5,-24(s0)
    80020a54:	a005                	j	80020a74 <memset+0x40>
    80020a56:	fe843783          	ld	a5,-24(s0)
    80020a5a:	00178713          	addi	a4,a5,1
    80020a5e:	fee43423          	sd	a4,-24(s0)
    80020a62:	fd744703          	lbu	a4,-41(s0)
    80020a66:	00e78023          	sb	a4,0(a5)
    80020a6a:	fd042783          	lw	a5,-48(s0)
    80020a6e:	37fd                	addiw	a5,a5,-1
    80020a70:	fcf42823          	sw	a5,-48(s0)
    80020a74:	fd042783          	lw	a5,-48(s0)
    80020a78:	2781                	sext.w	a5,a5
    80020a7a:	fff1                	bnez	a5,80020a56 <memset+0x22>
    80020a7c:	0001                	nop
    80020a7e:	7422                	ld	s0,40(sp)
    80020a80:	6145                	addi	sp,sp,48
    80020a82:	8082                	ret

0000000080020a84 <bzero>:
    80020a84:	1101                	addi	sp,sp,-32
    80020a86:	ec06                	sd	ra,24(sp)
    80020a88:	e822                	sd	s0,16(sp)
    80020a8a:	1000                	addi	s0,sp,32
    80020a8c:	fea43423          	sd	a0,-24(s0)
    80020a90:	87ae                	mv	a5,a1
    80020a92:	fef42223          	sw	a5,-28(s0)
    80020a96:	fe442783          	lw	a5,-28(s0)
    80020a9a:	863e                	mv	a2,a5
    80020a9c:	4581                	li	a1,0
    80020a9e:	fe843503          	ld	a0,-24(s0)
    80020aa2:	f93ff0ef          	jal	ra,80020a34 <memset>
    80020aa6:	0001                	nop
    80020aa8:	60e2                	ld	ra,24(sp)
    80020aaa:	6442                	ld	s0,16(sp)
    80020aac:	6105                	addi	sp,sp,32
    80020aae:	8082                	ret

0000000080020ab0 <strcmp>:
    80020ab0:	1101                	addi	sp,sp,-32
    80020ab2:	ec22                	sd	s0,24(sp)
    80020ab4:	1000                	addi	s0,sp,32
    80020ab6:	fea43423          	sd	a0,-24(s0)
    80020aba:	feb43023          	sd	a1,-32(s0)
    80020abe:	a0a1                	j	80020b06 <strcmp+0x56>
    80020ac0:	fe843783          	ld	a5,-24(s0)
    80020ac4:	0007c703          	lbu	a4,0(a5)
    80020ac8:	fe043783          	ld	a5,-32(s0)
    80020acc:	0007c783          	lbu	a5,0(a5)
    80020ad0:	02f70163          	beq	a4,a5,80020af2 <strcmp+0x42>
    80020ad4:	fe843783          	ld	a5,-24(s0)
    80020ad8:	0007c783          	lbu	a5,0(a5)
    80020adc:	0007871b          	sext.w	a4,a5
    80020ae0:	fe043783          	ld	a5,-32(s0)
    80020ae4:	0007c783          	lbu	a5,0(a5)
    80020ae8:	2781                	sext.w	a5,a5
    80020aea:	40f707bb          	subw	a5,a4,a5
    80020aee:	2781                	sext.w	a5,a5
    80020af0:	a099                	j	80020b36 <strcmp+0x86>
    80020af2:	fe843783          	ld	a5,-24(s0)
    80020af6:	0785                	addi	a5,a5,1
    80020af8:	fef43423          	sd	a5,-24(s0)
    80020afc:	fe043783          	ld	a5,-32(s0)
    80020b00:	0785                	addi	a5,a5,1
    80020b02:	fef43023          	sd	a5,-32(s0)
    80020b06:	fe843783          	ld	a5,-24(s0)
    80020b0a:	0007c783          	lbu	a5,0(a5)
    80020b0e:	c791                	beqz	a5,80020b1a <strcmp+0x6a>
    80020b10:	fe043783          	ld	a5,-32(s0)
    80020b14:	0007c783          	lbu	a5,0(a5)
    80020b18:	f7c5                	bnez	a5,80020ac0 <strcmp+0x10>
    80020b1a:	fe843783          	ld	a5,-24(s0)
    80020b1e:	0007c783          	lbu	a5,0(a5)
    80020b22:	0007871b          	sext.w	a4,a5
    80020b26:	fe043783          	ld	a5,-32(s0)
    80020b2a:	0007c783          	lbu	a5,0(a5)
    80020b2e:	2781                	sext.w	a5,a5
    80020b30:	40f707bb          	subw	a5,a4,a5
    80020b34:	2781                	sext.w	a5,a5
    80020b36:	853e                	mv	a0,a5
    80020b38:	6462                	ld	s0,24(sp)
    80020b3a:	6105                	addi	sp,sp,32
    80020b3c:	8082                	ret

0000000080020b3e <strcpy>:
    80020b3e:	7179                	addi	sp,sp,-48
    80020b40:	f422                	sd	s0,40(sp)
    80020b42:	1800                	addi	s0,sp,48
    80020b44:	fca43c23          	sd	a0,-40(s0)
    80020b48:	fcb43823          	sd	a1,-48(s0)
    80020b4c:	fd843783          	ld	a5,-40(s0)
    80020b50:	fef43423          	sd	a5,-24(s0)
    80020b54:	a00d                	j	80020b76 <strcpy+0x38>
    80020b56:	fd043703          	ld	a4,-48(s0)
    80020b5a:	00170793          	addi	a5,a4,1
    80020b5e:	fcf43823          	sd	a5,-48(s0)
    80020b62:	fd843783          	ld	a5,-40(s0)
    80020b66:	00178693          	addi	a3,a5,1
    80020b6a:	fcd43c23          	sd	a3,-40(s0)
    80020b6e:	00074703          	lbu	a4,0(a4)
    80020b72:	00e78023          	sb	a4,0(a5)
    80020b76:	fd043783          	ld	a5,-48(s0)
    80020b7a:	0007c783          	lbu	a5,0(a5)
    80020b7e:	ffe1                	bnez	a5,80020b56 <strcpy+0x18>
    80020b80:	fd843783          	ld	a5,-40(s0)
    80020b84:	00078023          	sb	zero,0(a5)
    80020b88:	fe843783          	ld	a5,-24(s0)
    80020b8c:	853e                	mv	a0,a5
    80020b8e:	7422                	ld	s0,40(sp)
    80020b90:	6145                	addi	sp,sp,48
    80020b92:	8082                	ret

0000000080020b94 <strcat>:
    80020b94:	7179                	addi	sp,sp,-48
    80020b96:	f422                	sd	s0,40(sp)
    80020b98:	1800                	addi	s0,sp,48
    80020b9a:	fca43c23          	sd	a0,-40(s0)
    80020b9e:	fcb43823          	sd	a1,-48(s0)
    80020ba2:	fd843783          	ld	a5,-40(s0)
    80020ba6:	fef43423          	sd	a5,-24(s0)
    80020baa:	a031                	j	80020bb6 <strcat+0x22>
    80020bac:	fd843783          	ld	a5,-40(s0)
    80020bb0:	0785                	addi	a5,a5,1
    80020bb2:	fcf43c23          	sd	a5,-40(s0)
    80020bb6:	fd843783          	ld	a5,-40(s0)
    80020bba:	0007c783          	lbu	a5,0(a5)
    80020bbe:	f7fd                	bnez	a5,80020bac <strcat+0x18>
    80020bc0:	a00d                	j	80020be2 <strcat+0x4e>
    80020bc2:	fd043703          	ld	a4,-48(s0)
    80020bc6:	00170793          	addi	a5,a4,1
    80020bca:	fcf43823          	sd	a5,-48(s0)
    80020bce:	fd843783          	ld	a5,-40(s0)
    80020bd2:	00178693          	addi	a3,a5,1
    80020bd6:	fcd43c23          	sd	a3,-40(s0)
    80020bda:	00074703          	lbu	a4,0(a4)
    80020bde:	00e78023          	sb	a4,0(a5)
    80020be2:	fd043783          	ld	a5,-48(s0)
    80020be6:	0007c783          	lbu	a5,0(a5)
    80020bea:	ffe1                	bnez	a5,80020bc2 <strcat+0x2e>
    80020bec:	fd843783          	ld	a5,-40(s0)
    80020bf0:	00078023          	sb	zero,0(a5)
    80020bf4:	fe843783          	ld	a5,-24(s0)
    80020bf8:	853e                	mv	a0,a5
    80020bfa:	7422                	ld	s0,40(sp)
    80020bfc:	6145                	addi	sp,sp,48
    80020bfe:	8082                	ret
