
main:     file format elf64-littleriscv


Disassembly of section .text:

ffffffff80400000 <_start>:
ffffffff80400000:	00019197          	auipc	gp,0x19
ffffffff80400004:	e2818193          	addi	gp,gp,-472 # ffffffff80418e28 <__global_pointer$>
ffffffff80400008:	0ff0000f          	fence
ffffffff8040000c:	0000100f          	fence.i
ffffffff80400010:	10401073          	csrw	sie,zero
ffffffff80400014:	14401073          	csrw	sip,zero
ffffffff80400018:	6299                	lui	t0,0x6
ffffffff8040001a:	1002b073          	csrc	sstatus,t0
ffffffff8040001e:	00018697          	auipc	a3,0x18
ffffffff80400022:	66668693          	addi	a3,a3,1638 # ffffffff80418684 <_edata>
ffffffff80400026:	00027717          	auipc	a4,0x27
ffffffff8040002a:	73a70713          	addi	a4,a4,1850 # ffffffff80427760 <__BSS_END__>
ffffffff8040002e:	00e6d763          	bge	a3,a4,ffffffff8040003c <clear_bss_done>

ffffffff80400032 <clear_bss>:
ffffffff80400032:	0006a023          	sw	zero,0(a3)
ffffffff80400036:	0691                	addi	a3,a3,4
ffffffff80400038:	fee6cde3          	blt	a3,a4,ffffffff80400032 <clear_bss>

ffffffff8040003c <clear_bss_done>:
ffffffff8040003c:	0000e217          	auipc	tp,0xe
ffffffff80400040:	05c20213          	addi	tp,tp,92 # ffffffff8040e098 <pid0_pcb>
ffffffff80400044:	00018117          	auipc	sp,0x18
ffffffff80400048:	5e413103          	ld	sp,1508(sp) # ffffffff80418628 <pid0_stack>
ffffffff8040004c:	14001073          	csrw	sscratch,zero
ffffffff80400050:	3b70006f          	j	ffffffff80400c06 <main>

ffffffff80400054 <secondary>:
ffffffff80400054:	0000e217          	auipc	tp,0xe
ffffffff80400058:	30420213          	addi	tp,tp,772 # ffffffff8040e358 <pid0_pcb2>
ffffffff8040005c:	00018117          	auipc	sp,0x18
ffffffff80400060:	5d413103          	ld	sp,1492(sp) # ffffffff80418630 <pid0_stack2>
ffffffff80400064:	14001073          	csrw	sscratch,zero
ffffffff80400068:	39f0006f          	j	ffffffff80400c06 <main>

ffffffff8040006c <loop>:
ffffffff8040006c:	10500073          	wfi
ffffffff80400070:	bff5                	j	ffffffff8040006c <loop>
	...

ffffffff80400074 <setup_exception>:
ffffffff80400074:	00000297          	auipc	t0,0x0
ffffffff80400078:	15428293          	addi	t0,t0,340 # ffffffff804001c8 <exception_handler_entry>
ffffffff8040007c:	028d                	addi	t0,t0,3
ffffffff8040007e:	5371                	li	t1,-4
ffffffff80400080:	0062f2b3          	and	t0,t0,t1
ffffffff80400084:	10529073          	csrw	stvec,t0
ffffffff80400088:	8082                	ret
ffffffff8040008a:	0001                	nop

ffffffff8040008c <clear_interrupt>:
ffffffff8040008c:	14401073          	csrw	sip,zero
ffffffff80400090:	8082                	ret
	...

ffffffff804000a0 <enable_preempt>:
ffffffff804000a0:	00020317          	auipc	t1,0x20
ffffffff804000a4:	9e833303          	ld	t1,-1560(t1) # ffffffff8041fa88 <current_running>
ffffffff804000a8:	01033283          	ld	t0,16(t1)
ffffffff804000ac:	00028863          	beqz	t0,ffffffff804000bc <do_enable>
ffffffff804000b0:	12fd                	addi	t0,t0,-1
ffffffff804000b2:	00533823          	sd	t0,16(t1)
ffffffff804000b6:	00028363          	beqz	t0,ffffffff804000bc <do_enable>
ffffffff804000ba:	8082                	ret

ffffffff804000bc <do_enable>:
ffffffff804000bc:	fff04293          	not	t0,zero
ffffffff804000c0:	1042a073          	csrs	sie,t0
ffffffff804000c4:	8082                	ret
ffffffff804000c6:	0001                	nop

ffffffff804000c8 <disable_preempt>:
ffffffff804000c8:	10401073          	csrw	sie,zero
ffffffff804000cc:	00020317          	auipc	t1,0x20
ffffffff804000d0:	9bc33303          	ld	t1,-1604(t1) # ffffffff8041fa88 <current_running>
ffffffff804000d4:	01033283          	ld	t0,16(t1)
ffffffff804000d8:	0285                	addi	t0,t0,1
ffffffff804000da:	00533823          	sd	t0,16(t1)
ffffffff804000de:	8082                	ret

ffffffff804000e0 <enable_interrupt>:
ffffffff804000e0:	4289                	li	t0,2
ffffffff804000e2:	1002a073          	csrs	sstatus,t0
ffffffff804000e6:	8082                	ret

ffffffff804000e8 <disable_interrupt>:
ffffffff804000e8:	4289                	li	t0,2
ffffffff804000ea:	1002b073          	csrc	sstatus,t0
ffffffff804000ee:	8082                	ret

ffffffff804000f0 <switch_to>:
ffffffff804000f0:	00050213          	mv	tp,a0
ffffffff804000f4:	7159                	addi	sp,sp,-112
ffffffff804000f6:	e006                	sd	ra,0(sp)
ffffffff804000f8:	e822                	sd	s0,16(sp)
ffffffff804000fa:	ec26                	sd	s1,24(sp)
ffffffff804000fc:	f04a                	sd	s2,32(sp)
ffffffff804000fe:	f44e                	sd	s3,40(sp)
ffffffff80400100:	f852                	sd	s4,48(sp)
ffffffff80400102:	fc56                	sd	s5,56(sp)
ffffffff80400104:	e0da                	sd	s6,64(sp)
ffffffff80400106:	e4de                	sd	s7,72(sp)
ffffffff80400108:	e8e2                	sd	s8,80(sp)
ffffffff8040010a:	ece6                	sd	s9,88(sp)
ffffffff8040010c:	f0ea                	sd	s10,96(sp)
ffffffff8040010e:	f4ee                	sd	s11,104(sp)
ffffffff80400110:	00223023          	sd	sp,0(tp) # 0 <_start-0xffffffff80400000>
ffffffff80400114:	00058213          	mv	tp,a1
ffffffff80400118:	00023103          	ld	sp,0(tp) # 0 <_start-0xffffffff80400000>
ffffffff8040011c:	6442                	ld	s0,16(sp)
ffffffff8040011e:	64e2                	ld	s1,24(sp)
ffffffff80400120:	7902                	ld	s2,32(sp)
ffffffff80400122:	79a2                	ld	s3,40(sp)
ffffffff80400124:	7a42                	ld	s4,48(sp)
ffffffff80400126:	7ae2                	ld	s5,56(sp)
ffffffff80400128:	6b06                	ld	s6,64(sp)
ffffffff8040012a:	6ba6                	ld	s7,72(sp)
ffffffff8040012c:	6c46                	ld	s8,80(sp)
ffffffff8040012e:	6ce6                	ld	s9,88(sp)
ffffffff80400130:	7d06                	ld	s10,96(sp)
ffffffff80400132:	7da6                	ld	s11,104(sp)
ffffffff80400134:	6082                	ld	ra,0(sp)
ffffffff80400136:	6165                	addi	sp,sp,112
ffffffff80400138:	8082                	ret
ffffffff8040013a:	0001                	nop

ffffffff8040013c <ret_from_exception>:
ffffffff8040013c:	00013003          	ld	zero,0(sp)
ffffffff80400140:	60a2                	ld	ra,8(sp)
ffffffff80400142:	61e2                	ld	gp,24(sp)
ffffffff80400144:	7202                	ld	tp,32(sp)
ffffffff80400146:	72a2                	ld	t0,40(sp)
ffffffff80400148:	7342                	ld	t1,48(sp)
ffffffff8040014a:	73e2                	ld	t2,56(sp)
ffffffff8040014c:	64a6                	ld	s1,72(sp)
ffffffff8040014e:	6546                	ld	a0,80(sp)
ffffffff80400150:	65e6                	ld	a1,88(sp)
ffffffff80400152:	7606                	ld	a2,96(sp)
ffffffff80400154:	76a6                	ld	a3,104(sp)
ffffffff80400156:	7746                	ld	a4,112(sp)
ffffffff80400158:	77e6                	ld	a5,120(sp)
ffffffff8040015a:	680a                	ld	a6,128(sp)
ffffffff8040015c:	68aa                	ld	a7,136(sp)
ffffffff8040015e:	694a                	ld	s2,144(sp)
ffffffff80400160:	69ea                	ld	s3,152(sp)
ffffffff80400162:	7a0a                	ld	s4,160(sp)
ffffffff80400164:	7aaa                	ld	s5,168(sp)
ffffffff80400166:	7b4a                	ld	s6,176(sp)
ffffffff80400168:	7bea                	ld	s7,184(sp)
ffffffff8040016a:	6c0e                	ld	s8,192(sp)
ffffffff8040016c:	6cae                	ld	s9,200(sp)
ffffffff8040016e:	6d4e                	ld	s10,208(sp)
ffffffff80400170:	6dee                	ld	s11,216(sp)
ffffffff80400172:	7e0e                	ld	t3,224(sp)
ffffffff80400174:	7eae                	ld	t4,232(sp)
ffffffff80400176:	7f4e                	ld	t5,240(sp)
ffffffff80400178:	7fee                	ld	t6,248(sp)
ffffffff8040017a:	6412                	ld	s0,256(sp)
ffffffff8040017c:	10041073          	csrw	sstatus,s0
ffffffff80400180:	6432                	ld	s0,264(sp)
ffffffff80400182:	14141073          	csrw	sepc,s0
ffffffff80400186:	7412                	ld	s0,288(sp)
ffffffff80400188:	0ff0000f          	fence
ffffffff8040018c:	0000100f          	fence.i
ffffffff80400190:	12000073          	sfence.vma
ffffffff80400194:	0ff0000f          	fence
ffffffff80400198:	0000100f          	fence.i
ffffffff8040019c:	18041073          	csrw	satp,s0
ffffffff804001a0:	0ff0000f          	fence
ffffffff804001a4:	0000100f          	fence.i
ffffffff804001a8:	12000073          	sfence.vma
ffffffff804001ac:	0ff0000f          	fence
ffffffff804001b0:	0000100f          	fence.i
ffffffff804001b4:	6406                	ld	s0,64(sp)
ffffffff804001b6:	12810113          	addi	sp,sp,296
ffffffff804001ba:	00223023          	sd	sp,0(tp) # 0 <_start-0xffffffff80400000>
ffffffff804001be:	00823103          	ld	sp,8(tp) # 8 <_start-0xffffffff803ffff8>
ffffffff804001c2:	10200073          	sret
ffffffff804001c6:	0001                	nop

ffffffff804001c8 <exception_handler_entry>:
ffffffff804001c8:	00000013          	nop
ffffffff804001cc:	00000013          	nop

ffffffff804001d0 <_save_context>:
ffffffff804001d0:	00223423          	sd	sp,8(tp) # 8 <_start-0xffffffff803ffff8>
ffffffff804001d4:	00023103          	ld	sp,0(tp) # 0 <_start-0xffffffff80400000>
ffffffff804001d8:	ed810113          	addi	sp,sp,-296
ffffffff804001dc:	e002                	sd	zero,0(sp)
ffffffff804001de:	e406                	sd	ra,8(sp)
ffffffff804001e0:	00223023          	sd	sp,0(tp) # 0 <_start-0xffffffff80400000>
ffffffff804001e4:	ec0e                	sd	gp,24(sp)
ffffffff804001e6:	f012                	sd	tp,32(sp)
ffffffff804001e8:	f416                	sd	t0,40(sp)
ffffffff804001ea:	f81a                	sd	t1,48(sp)
ffffffff804001ec:	fc1e                	sd	t2,56(sp)
ffffffff804001ee:	e0a2                	sd	s0,64(sp)
ffffffff804001f0:	e4a6                	sd	s1,72(sp)
ffffffff804001f2:	e8aa                	sd	a0,80(sp)
ffffffff804001f4:	ecae                	sd	a1,88(sp)
ffffffff804001f6:	f0b2                	sd	a2,96(sp)
ffffffff804001f8:	f4b6                	sd	a3,104(sp)
ffffffff804001fa:	f8ba                	sd	a4,112(sp)
ffffffff804001fc:	fcbe                	sd	a5,120(sp)
ffffffff804001fe:	e142                	sd	a6,128(sp)
ffffffff80400200:	e546                	sd	a7,136(sp)
ffffffff80400202:	e94a                	sd	s2,144(sp)
ffffffff80400204:	ed4e                	sd	s3,152(sp)
ffffffff80400206:	f152                	sd	s4,160(sp)
ffffffff80400208:	f556                	sd	s5,168(sp)
ffffffff8040020a:	f95a                	sd	s6,176(sp)
ffffffff8040020c:	fd5e                	sd	s7,184(sp)
ffffffff8040020e:	e1e2                	sd	s8,192(sp)
ffffffff80400210:	e5e6                	sd	s9,200(sp)
ffffffff80400212:	e9ea                	sd	s10,208(sp)
ffffffff80400214:	edee                	sd	s11,216(sp)
ffffffff80400216:	f1f2                	sd	t3,224(sp)
ffffffff80400218:	f5f6                	sd	t4,232(sp)
ffffffff8040021a:	f9fa                	sd	t5,240(sp)
ffffffff8040021c:	fdfe                	sd	t6,248(sp)
ffffffff8040021e:	000462b7          	lui	t0,0x46
ffffffff80400222:	10002473          	csrr	s0,sstatus
ffffffff80400226:	e222                	sd	s0,256(sp)
ffffffff80400228:	14102473          	csrr	s0,sepc
ffffffff8040022c:	e622                	sd	s0,264(sp)
ffffffff8040022e:	14302473          	csrr	s0,stval
ffffffff80400232:	ea22                	sd	s0,272(sp)
ffffffff80400234:	14202473          	csrr	s0,scause
ffffffff80400238:	ee22                	sd	s0,280(sp)
ffffffff8040023a:	18002473          	csrr	s0,satp
ffffffff8040023e:	f222                	sd	s0,288(sp)
ffffffff80400240:	00019197          	auipc	gp,0x19
ffffffff80400244:	be818193          	addi	gp,gp,-1048 # ffffffff80418e28 <__global_pointer$>
ffffffff80400248:	14001073          	csrw	sscratch,zero
ffffffff8040024c:	00000097          	auipc	ra,0x0
ffffffff80400250:	ef008093          	addi	ra,ra,-272 # ffffffff8040013c <ret_from_exception>
ffffffff80400254:	00023503          	ld	a0,0(tp) # 0 <_start-0xffffffff80400000>
ffffffff80400258:	143025f3          	csrr	a1,stval
ffffffff8040025c:	14202673          	csrr	a2,scause
ffffffff80400260:	8692                	mv	a3,tp
ffffffff80400262:	00001297          	auipc	t0,0x1
ffffffff80400266:	e2628293          	addi	t0,t0,-474 # ffffffff80401088 <interrupt_helper>
ffffffff8040026a:	8282                	jr	t0

ffffffff8040026c <do_sret>:
ffffffff8040026c:	14109073          	csrw	sepc,ra
ffffffff80400270:	10200073          	sret
	...

ffffffff80400280 <get_current_cpu_id>:
ffffffff80400280:	f1402573          	csrr	a0,mhartid
ffffffff80400284:	8082                	ret
ffffffff80400286:	0001                	nop

ffffffff80400288 <read_satp>:
ffffffff80400288:	18002573          	csrr	a0,satp
ffffffff8040028c:	8082                	ret
ffffffff8040028e:	0001                	nop

ffffffff80400290 <read_sip>:
ffffffff80400290:	14402573          	csrr	a0,sip
ffffffff80400294:	8082                	ret
ffffffff80400296:	0001                	nop

ffffffff80400298 <read_sie>:
ffffffff80400298:	10402573          	csrr	a0,sie
ffffffff8040029c:	8082                	ret
ffffffff8040029e:	0001                	nop

ffffffff804002a0 <direct_set_satp>:
ffffffff804002a0:	18051073          	csrw	satp,a0
ffffffff804002a4:	8082                	ret
ffffffff804002a6:	0001                	nop

ffffffff804002a8 <read_gp>:
ffffffff804002a8:	850e                	mv	a0,gp
ffffffff804002aa:	8082                	ret

ffffffff804002ac <get_a2>:
ffffffff804002ac:	8532                	mv	a0,a2
ffffffff804002ae:	8082                	ret

ffffffff804002b0 <sbi_console_putstr>:
ffffffff804002b0:	1101                	addi	sp,sp,-32
ffffffff804002b2:	ec22                	sd	s0,24(sp)
ffffffff804002b4:	1000                	addi	s0,sp,32
ffffffff804002b6:	fea43423          	sd	a0,-24(s0)
ffffffff804002ba:	a005                	j	ffffffff804002da <sbi_console_putstr+0x2a>
ffffffff804002bc:	fe843783          	ld	a5,-24(s0)
ffffffff804002c0:	0007c783          	lbu	a5,0(a5)
ffffffff804002c4:	853e                	mv	a0,a5
ffffffff804002c6:	4581                	li	a1,0
ffffffff804002c8:	4601                	li	a2,0
ffffffff804002ca:	4885                	li	a7,1
ffffffff804002cc:	00000073          	ecall
ffffffff804002d0:	fe843783          	ld	a5,-24(s0)
ffffffff804002d4:	0785                	addi	a5,a5,1
ffffffff804002d6:	fef43423          	sd	a5,-24(s0)
ffffffff804002da:	fe843783          	ld	a5,-24(s0)
ffffffff804002de:	0007c783          	lbu	a5,0(a5)
ffffffff804002e2:	ffe9                	bnez	a5,ffffffff804002bc <sbi_console_putstr+0xc>
ffffffff804002e4:	0001                	nop
ffffffff804002e6:	6462                	ld	s0,24(sp)
ffffffff804002e8:	6105                	addi	sp,sp,32
ffffffff804002ea:	8082                	ret

ffffffff804002ec <sbi_console_putchar>:
ffffffff804002ec:	1101                	addi	sp,sp,-32
ffffffff804002ee:	ec22                	sd	s0,24(sp)
ffffffff804002f0:	1000                	addi	s0,sp,32
ffffffff804002f2:	87aa                	mv	a5,a0
ffffffff804002f4:	fef42623          	sw	a5,-20(s0)
ffffffff804002f8:	fec42783          	lw	a5,-20(s0)
ffffffff804002fc:	853e                	mv	a0,a5
ffffffff804002fe:	4581                	li	a1,0
ffffffff80400300:	4601                	li	a2,0
ffffffff80400302:	4885                	li	a7,1
ffffffff80400304:	00000073          	ecall
ffffffff80400308:	0001                	nop
ffffffff8040030a:	6462                	ld	s0,24(sp)
ffffffff8040030c:	6105                	addi	sp,sp,32
ffffffff8040030e:	8082                	ret

ffffffff80400310 <port_write_ch>:
ffffffff80400310:	1101                	addi	sp,sp,-32
ffffffff80400312:	ec06                	sd	ra,24(sp)
ffffffff80400314:	e822                	sd	s0,16(sp)
ffffffff80400316:	1000                	addi	s0,sp,32
ffffffff80400318:	87aa                	mv	a5,a0
ffffffff8040031a:	fef407a3          	sb	a5,-17(s0)
ffffffff8040031e:	fef44783          	lbu	a5,-17(s0)
ffffffff80400322:	2781                	sext.w	a5,a5
ffffffff80400324:	853e                	mv	a0,a5
ffffffff80400326:	fc7ff0ef          	jal	ra,ffffffff804002ec <sbi_console_putchar>
ffffffff8040032a:	0001                	nop
ffffffff8040032c:	60e2                	ld	ra,24(sp)
ffffffff8040032e:	6442                	ld	s0,16(sp)
ffffffff80400330:	6105                	addi	sp,sp,32
ffffffff80400332:	8082                	ret

ffffffff80400334 <port_write>:
ffffffff80400334:	1101                	addi	sp,sp,-32
ffffffff80400336:	ec06                	sd	ra,24(sp)
ffffffff80400338:	e822                	sd	s0,16(sp)
ffffffff8040033a:	1000                	addi	s0,sp,32
ffffffff8040033c:	fea43423          	sd	a0,-24(s0)
ffffffff80400340:	fe843503          	ld	a0,-24(s0)
ffffffff80400344:	f6dff0ef          	jal	ra,ffffffff804002b0 <sbi_console_putstr>
ffffffff80400348:	0001                	nop
ffffffff8040034a:	60e2                	ld	ra,24(sp)
ffffffff8040034c:	6442                	ld	s0,16(sp)
ffffffff8040034e:	6105                	addi	sp,sp,32
ffffffff80400350:	8082                	ret

ffffffff80400352 <init_list_head>:
ffffffff80400352:	1101                	addi	sp,sp,-32
ffffffff80400354:	ec22                	sd	s0,24(sp)
ffffffff80400356:	1000                	addi	s0,sp,32
ffffffff80400358:	fea43423          	sd	a0,-24(s0)
ffffffff8040035c:	fe843783          	ld	a5,-24(s0)
ffffffff80400360:	fe843703          	ld	a4,-24(s0)
ffffffff80400364:	e398                	sd	a4,0(a5)
ffffffff80400366:	fe843783          	ld	a5,-24(s0)
ffffffff8040036a:	fe843703          	ld	a4,-24(s0)
ffffffff8040036e:	e798                	sd	a4,8(a5)
ffffffff80400370:	0001                	nop
ffffffff80400372:	6462                	ld	s0,24(sp)
ffffffff80400374:	6105                	addi	sp,sp,32
ffffffff80400376:	8082                	ret

ffffffff80400378 <_list_add>:
ffffffff80400378:	7179                	addi	sp,sp,-48
ffffffff8040037a:	f422                	sd	s0,40(sp)
ffffffff8040037c:	1800                	addi	s0,sp,48
ffffffff8040037e:	fea43423          	sd	a0,-24(s0)
ffffffff80400382:	feb43023          	sd	a1,-32(s0)
ffffffff80400386:	fcc43c23          	sd	a2,-40(s0)
ffffffff8040038a:	fd843783          	ld	a5,-40(s0)
ffffffff8040038e:	fe843703          	ld	a4,-24(s0)
ffffffff80400392:	e798                	sd	a4,8(a5)
ffffffff80400394:	fe843783          	ld	a5,-24(s0)
ffffffff80400398:	fd843703          	ld	a4,-40(s0)
ffffffff8040039c:	e398                	sd	a4,0(a5)
ffffffff8040039e:	fe843783          	ld	a5,-24(s0)
ffffffff804003a2:	fe043703          	ld	a4,-32(s0)
ffffffff804003a6:	e798                	sd	a4,8(a5)
ffffffff804003a8:	fe043783          	ld	a5,-32(s0)
ffffffff804003ac:	fe843703          	ld	a4,-24(s0)
ffffffff804003b0:	e398                	sd	a4,0(a5)
ffffffff804003b2:	0001                	nop
ffffffff804003b4:	7422                	ld	s0,40(sp)
ffffffff804003b6:	6145                	addi	sp,sp,48
ffffffff804003b8:	8082                	ret

ffffffff804003ba <list_add_tail>:
ffffffff804003ba:	1101                	addi	sp,sp,-32
ffffffff804003bc:	ec06                	sd	ra,24(sp)
ffffffff804003be:	e822                	sd	s0,16(sp)
ffffffff804003c0:	1000                	addi	s0,sp,32
ffffffff804003c2:	fea43423          	sd	a0,-24(s0)
ffffffff804003c6:	feb43023          	sd	a1,-32(s0)
ffffffff804003ca:	fe043783          	ld	a5,-32(s0)
ffffffff804003ce:	679c                	ld	a5,8(a5)
ffffffff804003d0:	fe043603          	ld	a2,-32(s0)
ffffffff804003d4:	85be                	mv	a1,a5
ffffffff804003d6:	fe843503          	ld	a0,-24(s0)
ffffffff804003da:	f9fff0ef          	jal	ra,ffffffff80400378 <_list_add>
ffffffff804003de:	0001                	nop
ffffffff804003e0:	60e2                	ld	ra,24(sp)
ffffffff804003e2:	6442                	ld	s0,16(sp)
ffffffff804003e4:	6105                	addi	sp,sp,32
ffffffff804003e6:	8082                	ret

ffffffff804003e8 <sbi_set_timer>:
ffffffff804003e8:	1101                	addi	sp,sp,-32
ffffffff804003ea:	ec22                	sd	s0,24(sp)
ffffffff804003ec:	1000                	addi	s0,sp,32
ffffffff804003ee:	fea43423          	sd	a0,-24(s0)
ffffffff804003f2:	fe843503          	ld	a0,-24(s0)
ffffffff804003f6:	4581                	li	a1,0
ffffffff804003f8:	4601                	li	a2,0
ffffffff804003fa:	4881                	li	a7,0
ffffffff804003fc:	00000073          	ecall
ffffffff80400400:	0001                	nop
ffffffff80400402:	6462                	ld	s0,24(sp)
ffffffff80400404:	6105                	addi	sp,sp,32
ffffffff80400406:	8082                	ret

ffffffff80400408 <pa2kva>:
ffffffff80400408:	1101                	addi	sp,sp,-32
ffffffff8040040a:	ec22                	sd	s0,24(sp)
ffffffff8040040c:	1000                	addi	s0,sp,32
ffffffff8040040e:	fea43423          	sd	a0,-24(s0)
ffffffff80400412:	fe843703          	ld	a4,-24(s0)
ffffffff80400416:	57fd                	li	a5,-1
ffffffff80400418:	1782                	slli	a5,a5,0x20
ffffffff8040041a:	97ba                	add	a5,a5,a4
ffffffff8040041c:	853e                	mv	a0,a5
ffffffff8040041e:	6462                	ld	s0,24(sp)
ffffffff80400420:	6105                	addi	sp,sp,32
ffffffff80400422:	8082                	ret

ffffffff80400424 <clear_pgdir>:
ffffffff80400424:	7179                	addi	sp,sp,-48
ffffffff80400426:	f422                	sd	s0,40(sp)
ffffffff80400428:	1800                	addi	s0,sp,48
ffffffff8040042a:	fca43c23          	sd	a0,-40(s0)
ffffffff8040042e:	fd843783          	ld	a5,-40(s0)
ffffffff80400432:	fef43423          	sd	a5,-24(s0)
ffffffff80400436:	fe042223          	sw	zero,-28(s0)
ffffffff8040043a:	a839                	j	ffffffff80400458 <clear_pgdir+0x34>
ffffffff8040043c:	fe843783          	ld	a5,-24(s0)
ffffffff80400440:	0007b023          	sd	zero,0(a5)
ffffffff80400444:	fe843783          	ld	a5,-24(s0)
ffffffff80400448:	07a1                	addi	a5,a5,8
ffffffff8040044a:	fef43423          	sd	a5,-24(s0)
ffffffff8040044e:	fe442783          	lw	a5,-28(s0)
ffffffff80400452:	2785                	addiw	a5,a5,1
ffffffff80400454:	fef42223          	sw	a5,-28(s0)
ffffffff80400458:	fe442783          	lw	a5,-28(s0)
ffffffff8040045c:	0007871b          	sext.w	a4,a5
ffffffff80400460:	1ff00793          	li	a5,511
ffffffff80400464:	fce7dce3          	bge	a5,a4,ffffffff8040043c <clear_pgdir+0x18>
ffffffff80400468:	0001                	nop
ffffffff8040046a:	7422                	ld	s0,40(sp)
ffffffff8040046c:	6145                	addi	sp,sp,48
ffffffff8040046e:	8082                	ret

ffffffff80400470 <init_pcb_default>:
ffffffff80400470:	7179                	addi	sp,sp,-48
ffffffff80400472:	f406                	sd	ra,40(sp)
ffffffff80400474:	f022                	sd	s0,32(sp)
ffffffff80400476:	1800                	addi	s0,sp,48
ffffffff80400478:	fca43c23          	sd	a0,-40(s0)
ffffffff8040047c:	87ae                	mv	a5,a1
ffffffff8040047e:	fcf42a23          	sw	a5,-44(s0)
ffffffff80400482:	fd843783          	ld	a5,-40(s0)
ffffffff80400486:	0007b823          	sd	zero,16(a5)
ffffffff8040048a:	fd843703          	ld	a4,-40(s0)
ffffffff8040048e:	fd843783          	ld	a5,-40(s0)
ffffffff80400492:	ff98                	sd	a4,56(a5)
ffffffff80400494:	00018797          	auipc	a5,0x18
ffffffff80400498:	1b478793          	addi	a5,a5,436 # ffffffff80418648 <process_id>
ffffffff8040049c:	439c                	lw	a5,0(a5)
ffffffff8040049e:	0017871b          	addiw	a4,a5,1
ffffffff804004a2:	0007069b          	sext.w	a3,a4
ffffffff804004a6:	00018717          	auipc	a4,0x18
ffffffff804004aa:	1a270713          	addi	a4,a4,418 # ffffffff80418648 <process_id>
ffffffff804004ae:	c314                	sw	a3,0(a4)
ffffffff804004b0:	fd843703          	ld	a4,-40(s0)
ffffffff804004b4:	cf3c                	sw	a5,88(a4)
ffffffff804004b6:	fd843783          	ld	a5,-40(s0)
ffffffff804004ba:	fd442703          	lw	a4,-44(s0)
ffffffff804004be:	cff8                	sw	a4,92(a5)
ffffffff804004c0:	fd843783          	ld	a5,-40(s0)
ffffffff804004c4:	04078793          	addi	a5,a5,64
ffffffff804004c8:	853e                	mv	a0,a5
ffffffff804004ca:	e89ff0ef          	jal	ra,ffffffff80400352 <init_list_head>
ffffffff804004ce:	fd843783          	ld	a5,-40(s0)
ffffffff804004d2:	4709                	li	a4,2
ffffffff804004d4:	d3b8                	sw	a4,96(a5)
ffffffff804004d6:	fd843783          	ld	a5,-40(s0)
ffffffff804004da:	4705                	li	a4,1
ffffffff804004dc:	d7f8                	sw	a4,108(a5)
ffffffff804004de:	fd843783          	ld	a5,-40(s0)
ffffffff804004e2:	57f8                	lw	a4,108(a5)
ffffffff804004e4:	fd843783          	ld	a5,-40(s0)
ffffffff804004e8:	dbb8                	sw	a4,112(a5)
ffffffff804004ea:	fd843783          	ld	a5,-40(s0)
ffffffff804004ee:	4705                	li	a4,1
ffffffff804004f0:	d3f8                	sw	a4,100(a5)
ffffffff804004f2:	fd843783          	ld	a5,-40(s0)
ffffffff804004f6:	0607a423          	sw	zero,104(a5)
ffffffff804004fa:	fd843783          	ld	a5,-40(s0)
ffffffff804004fe:	4705                	li	a4,1
ffffffff80400500:	08e7a423          	sw	a4,136(a5)
ffffffff80400504:	fd843783          	ld	a5,-40(s0)
ffffffff80400508:	4705                	li	a4,1
ffffffff8040050a:	08e7a623          	sw	a4,140(a5)
ffffffff8040050e:	fd843783          	ld	a5,-40(s0)
ffffffff80400512:	473d                	li	a4,15
ffffffff80400514:	ffb8                	sd	a4,120(a5)
ffffffff80400516:	fd843783          	ld	a5,-40(s0)
ffffffff8040051a:	0807bc23          	sd	zero,152(a5)
ffffffff8040051e:	fd843783          	ld	a5,-40(s0)
ffffffff80400522:	0c078023          	sb	zero,192(a5)
ffffffff80400526:	fd843783          	ld	a5,-40(s0)
ffffffff8040052a:	4705                	li	a4,1
ffffffff8040052c:	0ce78c23          	sb	a4,216(a5)
ffffffff80400530:	fd843783          	ld	a5,-40(s0)
ffffffff80400534:	0c078423          	sb	zero,200(a5)
ffffffff80400538:	fd843783          	ld	a5,-40(s0)
ffffffff8040053c:	0e078023          	sb	zero,224(a5)
ffffffff80400540:	fd843783          	ld	a5,-40(s0)
ffffffff80400544:	4705                	li	a4,1
ffffffff80400546:	0ee78c23          	sb	a4,248(a5)
ffffffff8040054a:	fd843783          	ld	a5,-40(s0)
ffffffff8040054e:	4705                	li	a4,1
ffffffff80400550:	0ee78423          	sb	a4,232(a5)
ffffffff80400554:	4789                	li	a5,2
ffffffff80400556:	fef42623          	sw	a5,-20(s0)
ffffffff8040055a:	a831                	j	ffffffff80400576 <init_pcb_default+0x106>
ffffffff8040055c:	fd843703          	ld	a4,-40(s0)
ffffffff80400560:	fec42783          	lw	a5,-20(s0)
ffffffff80400564:	0796                	slli	a5,a5,0x5
ffffffff80400566:	97ba                	add	a5,a5,a4
ffffffff80400568:	0c078c23          	sb	zero,216(a5)
ffffffff8040056c:	fec42783          	lw	a5,-20(s0)
ffffffff80400570:	2785                	addiw	a5,a5,1
ffffffff80400572:	fef42623          	sw	a5,-20(s0)
ffffffff80400576:	fec42783          	lw	a5,-20(s0)
ffffffff8040057a:	0007871b          	sext.w	a4,a5
ffffffff8040057e:	47bd                	li	a5,15
ffffffff80400580:	fce7dee3          	bge	a5,a4,ffffffff8040055c <init_pcb_default+0xec>
ffffffff80400584:	fd843783          	ld	a5,-40(s0)
ffffffff80400588:	0a07b823          	sd	zero,176(a5)
ffffffff8040058c:	fd843783          	ld	a5,-40(s0)
ffffffff80400590:	0a07bc23          	sd	zero,184(a5)
ffffffff80400594:	0001                	nop
ffffffff80400596:	70a2                	ld	ra,40(sp)
ffffffff80400598:	7402                	ld	s0,32(sp)
ffffffff8040059a:	6145                	addi	sp,sp,48
ffffffff8040059c:	8082                	ret

ffffffff8040059e <is_elf_format>:
ffffffff8040059e:	7179                	addi	sp,sp,-48
ffffffff804005a0:	f422                	sd	s0,40(sp)
ffffffff804005a2:	1800                	addi	s0,sp,48
ffffffff804005a4:	fca43c23          	sd	a0,-40(s0)
ffffffff804005a8:	fd843783          	ld	a5,-40(s0)
ffffffff804005ac:	fef43423          	sd	a5,-24(s0)
ffffffff804005b0:	fe843783          	ld	a5,-24(s0)
ffffffff804005b4:	0007c783          	lbu	a5,0(a5)
ffffffff804005b8:	eb9d                	bnez	a5,ffffffff804005ee <is_elf_format+0x50>
ffffffff804005ba:	fe843783          	ld	a5,-24(s0)
ffffffff804005be:	0017c783          	lbu	a5,1(a5)
ffffffff804005c2:	873e                	mv	a4,a5
ffffffff804005c4:	4785                	li	a5,1
ffffffff804005c6:	02f71463          	bne	a4,a5,ffffffff804005ee <is_elf_format+0x50>
ffffffff804005ca:	fe843783          	ld	a5,-24(s0)
ffffffff804005ce:	0027c783          	lbu	a5,2(a5)
ffffffff804005d2:	873e                	mv	a4,a5
ffffffff804005d4:	4789                	li	a5,2
ffffffff804005d6:	00f71c63          	bne	a4,a5,ffffffff804005ee <is_elf_format+0x50>
ffffffff804005da:	fe843783          	ld	a5,-24(s0)
ffffffff804005de:	0037c783          	lbu	a5,3(a5)
ffffffff804005e2:	873e                	mv	a4,a5
ffffffff804005e4:	478d                	li	a5,3
ffffffff804005e6:	00f71463          	bne	a4,a5,ffffffff804005ee <is_elf_format+0x50>
ffffffff804005ea:	4781                	li	a5,0
ffffffff804005ec:	a011                	j	ffffffff804005f0 <is_elf_format+0x52>
ffffffff804005ee:	4785                	li	a5,1
ffffffff804005f0:	853e                	mv	a0,a5
ffffffff804005f2:	7422                	ld	s0,40(sp)
ffffffff804005f4:	6145                	addi	sp,sp,48
ffffffff804005f6:	8082                	ret

ffffffff804005f8 <load_elf>:
ffffffff804005f8:	7159                	addi	sp,sp,-112
ffffffff804005fa:	f486                	sd	ra,104(sp)
ffffffff804005fc:	f0a2                	sd	s0,96(sp)
ffffffff804005fe:	1880                	addi	s0,sp,112
ffffffff80400600:	faa43423          	sd	a0,-88(s0)
ffffffff80400604:	87ae                	mv	a5,a1
ffffffff80400606:	f8c43c23          	sd	a2,-104(s0)
ffffffff8040060a:	f8d43823          	sd	a3,-112(s0)
ffffffff8040060e:	faf42223          	sw	a5,-92(s0)
ffffffff80400612:	fa843783          	ld	a5,-88(s0)
ffffffff80400616:	fcf43823          	sd	a5,-48(s0)
ffffffff8040061a:	fc043423          	sd	zero,-56(s0)
ffffffff8040061e:	fe043423          	sd	zero,-24(s0)
ffffffff80400622:	fe042023          	sw	zero,-32(s0)
ffffffff80400626:	fa442783          	lw	a5,-92(s0)
ffffffff8040062a:	0007871b          	sext.w	a4,a5
ffffffff8040062e:	478d                	li	a5,3
ffffffff80400630:	00e7f863          	bgeu	a5,a4,ffffffff80400640 <load_elf+0x48>
ffffffff80400634:	fa843503          	ld	a0,-88(s0)
ffffffff80400638:	f67ff0ef          	jal	ra,ffffffff8040059e <is_elf_format>
ffffffff8040063c:	87aa                	mv	a5,a0
ffffffff8040063e:	e399                	bnez	a5,ffffffff80400644 <load_elf+0x4c>
ffffffff80400640:	4781                	li	a5,0
ffffffff80400642:	a269                	j	ffffffff804007cc <load_elf+0x1d4>
ffffffff80400644:	fd043783          	ld	a5,-48(s0)
ffffffff80400648:	739c                	ld	a5,32(a5)
ffffffff8040064a:	fa843703          	ld	a4,-88(s0)
ffffffff8040064e:	97ba                	add	a5,a5,a4
ffffffff80400650:	fef43423          	sd	a5,-24(s0)
ffffffff80400654:	fd043783          	ld	a5,-48(s0)
ffffffff80400658:	0387d783          	lhu	a5,56(a5)
ffffffff8040065c:	fef41323          	sh	a5,-26(s0)
ffffffff80400660:	fd043783          	ld	a5,-48(s0)
ffffffff80400664:	0367d783          	lhu	a5,54(a5)
ffffffff80400668:	fcf41323          	sh	a5,-58(s0)
ffffffff8040066c:	a2a9                	j	ffffffff804007b6 <load_elf+0x1be>
ffffffff8040066e:	fe843783          	ld	a5,-24(s0)
ffffffff80400672:	fcf43423          	sd	a5,-56(s0)
ffffffff80400676:	fc843783          	ld	a5,-56(s0)
ffffffff8040067a:	439c                	lw	a5,0(a5)
ffffffff8040067c:	873e                	mv	a4,a5
ffffffff8040067e:	4785                	li	a5,1
ffffffff80400680:	12f71463          	bne	a4,a5,ffffffff804007a8 <load_elf+0x1b0>
ffffffff80400684:	fe042023          	sw	zero,-32(s0)
ffffffff80400688:	aa09                	j	ffffffff8040079a <load_elf+0x1a2>
ffffffff8040068a:	fe042703          	lw	a4,-32(s0)
ffffffff8040068e:	fc843783          	ld	a5,-56(s0)
ffffffff80400692:	739c                	ld	a5,32(a5)
ffffffff80400694:	0af77563          	bgeu	a4,a5,ffffffff8040073e <load_elf+0x146>
ffffffff80400698:	fc843783          	ld	a5,-56(s0)
ffffffff8040069c:	6b98                	ld	a4,16(a5)
ffffffff8040069e:	fe042783          	lw	a5,-32(s0)
ffffffff804006a2:	97ba                	add	a5,a5,a4
ffffffff804006a4:	f9043703          	ld	a4,-112(s0)
ffffffff804006a8:	4639                	li	a2,14
ffffffff804006aa:	f9843583          	ld	a1,-104(s0)
ffffffff804006ae:	853e                	mv	a0,a5
ffffffff804006b0:	9702                	jalr	a4
ffffffff804006b2:	87aa                	mv	a5,a0
ffffffff804006b4:	faf43c23          	sd	a5,-72(s0)
ffffffff804006b8:	fc843783          	ld	a5,-56(s0)
ffffffff804006bc:	6798                	ld	a4,8(a5)
ffffffff804006be:	fe042783          	lw	a5,-32(s0)
ffffffff804006c2:	97ba                	add	a5,a5,a4
ffffffff804006c4:	fa843703          	ld	a4,-88(s0)
ffffffff804006c8:	00f706b3          	add	a3,a4,a5
ffffffff804006cc:	fc843783          	ld	a5,-56(s0)
ffffffff804006d0:	7398                	ld	a4,32(a5)
ffffffff804006d2:	fe042783          	lw	a5,-32(s0)
ffffffff804006d6:	40f707b3          	sub	a5,a4,a5
ffffffff804006da:	6705                	lui	a4,0x1
ffffffff804006dc:	00f77363          	bgeu	a4,a5,ffffffff804006e2 <load_elf+0xea>
ffffffff804006e0:	6785                	lui	a5,0x1
ffffffff804006e2:	2781                	sext.w	a5,a5
ffffffff804006e4:	863e                	mv	a2,a5
ffffffff804006e6:	85b6                	mv	a1,a3
ffffffff804006e8:	fb843503          	ld	a0,-72(s0)
ffffffff804006ec:	48c050ef          	jal	ra,ffffffff80405b78 <memcpy>
ffffffff804006f0:	fc843783          	ld	a5,-56(s0)
ffffffff804006f4:	7398                	ld	a4,32(a5)
ffffffff804006f6:	fe042783          	lw	a5,-32(s0)
ffffffff804006fa:	8f1d                	sub	a4,a4,a5
ffffffff804006fc:	6785                	lui	a5,0x1
ffffffff804006fe:	08f77763          	bgeu	a4,a5,ffffffff8040078c <load_elf+0x194>
ffffffff80400702:	fc843783          	ld	a5,-56(s0)
ffffffff80400706:	739c                	ld	a5,32(a5)
ffffffff80400708:	0007871b          	sext.w	a4,a5
ffffffff8040070c:	6785                	lui	a5,0x1
ffffffff8040070e:	17fd                	addi	a5,a5,-1
ffffffff80400710:	8ff9                	and	a5,a5,a4
ffffffff80400712:	fcf42e23          	sw	a5,-36(s0)
ffffffff80400716:	a829                	j	ffffffff80400730 <load_elf+0x138>
ffffffff80400718:	fdc42783          	lw	a5,-36(s0)
ffffffff8040071c:	fb843703          	ld	a4,-72(s0)
ffffffff80400720:	97ba                	add	a5,a5,a4
ffffffff80400722:	00078023          	sb	zero,0(a5) # 1000 <_start-0xffffffff803ff000>
ffffffff80400726:	fdc42783          	lw	a5,-36(s0)
ffffffff8040072a:	2785                	addiw	a5,a5,1
ffffffff8040072c:	fcf42e23          	sw	a5,-36(s0)
ffffffff80400730:	fdc42783          	lw	a5,-36(s0)
ffffffff80400734:	873e                	mv	a4,a5
ffffffff80400736:	6785                	lui	a5,0x1
ffffffff80400738:	fef760e3          	bltu	a4,a5,ffffffff80400718 <load_elf+0x120>
ffffffff8040073c:	a881                	j	ffffffff8040078c <load_elf+0x194>
ffffffff8040073e:	fc843783          	ld	a5,-56(s0)
ffffffff80400742:	6b98                	ld	a4,16(a5)
ffffffff80400744:	fe042783          	lw	a5,-32(s0)
ffffffff80400748:	97ba                	add	a5,a5,a4
ffffffff8040074a:	f9043703          	ld	a4,-112(s0)
ffffffff8040074e:	4639                	li	a2,14
ffffffff80400750:	f9843583          	ld	a1,-104(s0)
ffffffff80400754:	853e                	mv	a0,a5
ffffffff80400756:	9702                	jalr	a4
ffffffff80400758:	87aa                	mv	a5,a0
ffffffff8040075a:	faf43823          	sd	a5,-80(s0)
ffffffff8040075e:	fc042c23          	sw	zero,-40(s0)
ffffffff80400762:	a831                	j	ffffffff8040077e <load_elf+0x186>
ffffffff80400764:	fd842783          	lw	a5,-40(s0)
ffffffff80400768:	078e                	slli	a5,a5,0x3
ffffffff8040076a:	fb043703          	ld	a4,-80(s0)
ffffffff8040076e:	97ba                	add	a5,a5,a4
ffffffff80400770:	0007b023          	sd	zero,0(a5) # 1000 <_start-0xffffffff803ff000>
ffffffff80400774:	fd842783          	lw	a5,-40(s0)
ffffffff80400778:	2785                	addiw	a5,a5,1
ffffffff8040077a:	fcf42c23          	sw	a5,-40(s0)
ffffffff8040077e:	fd842783          	lw	a5,-40(s0)
ffffffff80400782:	873e                	mv	a4,a5
ffffffff80400784:	1ff00793          	li	a5,511
ffffffff80400788:	fce7fee3          	bgeu	a5,a4,ffffffff80400764 <load_elf+0x16c>
ffffffff8040078c:	fe042703          	lw	a4,-32(s0)
ffffffff80400790:	6785                	lui	a5,0x1
ffffffff80400792:	9fb9                	addw	a5,a5,a4
ffffffff80400794:	2781                	sext.w	a5,a5
ffffffff80400796:	fef42023          	sw	a5,-32(s0)
ffffffff8040079a:	fe042703          	lw	a4,-32(s0)
ffffffff8040079e:	fc843783          	ld	a5,-56(s0)
ffffffff804007a2:	779c                	ld	a5,40(a5)
ffffffff804007a4:	eef763e3          	bltu	a4,a5,ffffffff8040068a <load_elf+0x92>
ffffffff804007a8:	fc645783          	lhu	a5,-58(s0)
ffffffff804007ac:	fe843703          	ld	a4,-24(s0)
ffffffff804007b0:	97ba                	add	a5,a5,a4
ffffffff804007b2:	fef43423          	sd	a5,-24(s0)
ffffffff804007b6:	fe645783          	lhu	a5,-26(s0)
ffffffff804007ba:	fff7871b          	addiw	a4,a5,-1
ffffffff804007be:	fee41323          	sh	a4,-26(s0)
ffffffff804007c2:	ea0796e3          	bnez	a5,ffffffff8040066e <load_elf+0x76>
ffffffff804007c6:	fd043783          	ld	a5,-48(s0)
ffffffff804007ca:	6f9c                	ld	a5,24(a5)
ffffffff804007cc:	853e                	mv	a0,a5
ffffffff804007ce:	70a6                	ld	ra,104(sp)
ffffffff804007d0:	7406                	ld	s0,96(sp)
ffffffff804007d2:	6165                	addi	sp,sp,112
ffffffff804007d4:	8082                	ret

ffffffff804007d6 <init_pcb>:
ffffffff804007d6:	715d                	addi	sp,sp,-80
ffffffff804007d8:	e486                	sd	ra,72(sp)
ffffffff804007da:	e0a2                	sd	s0,64(sp)
ffffffff804007dc:	0880                	addi	s0,sp,80
ffffffff804007de:	0001f797          	auipc	a5,0x1f
ffffffff804007e2:	2aa78793          	addi	a5,a5,682 # ffffffff8041fa88 <current_running>
ffffffff804007e6:	0000e717          	auipc	a4,0xe
ffffffff804007ea:	8b270713          	addi	a4,a4,-1870 # ffffffff8040e098 <pid0_pcb>
ffffffff804007ee:	e398                	sd	a4,0(a5)
ffffffff804007f0:	0001f797          	auipc	a5,0x1f
ffffffff804007f4:	2a078793          	addi	a5,a5,672 # ffffffff8041fa90 <pcb>
ffffffff804007f8:	fef43023          	sd	a5,-32(s0)
ffffffff804007fc:	2d9030ef          	jal	ra,ffffffff804042d4 <allocPage>
ffffffff80400800:	872a                	mv	a4,a0
ffffffff80400802:	6785                	lui	a5,0x1
ffffffff80400804:	97ba                	add	a5,a5,a4
ffffffff80400806:	fcf43c23          	sd	a5,-40(s0)
ffffffff8040080a:	000f07b7          	lui	a5,0xf0
ffffffff8040080e:	0785                	addi	a5,a5,1
ffffffff80400810:	07c2                	slli	a5,a5,0x10
ffffffff80400812:	fcf43823          	sd	a5,-48(s0)
ffffffff80400816:	4581                	li	a1,0
ffffffff80400818:	fe043503          	ld	a0,-32(s0)
ffffffff8040081c:	c55ff0ef          	jal	ra,ffffffff80400470 <init_pcb_default>
ffffffff80400820:	fb440713          	addi	a4,s0,-76
ffffffff80400824:	fb840793          	addi	a5,s0,-72
ffffffff80400828:	863a                	mv	a2,a4
ffffffff8040082a:	85be                	mv	a1,a5
ffffffff8040082c:	0000d517          	auipc	a0,0xd
ffffffff80400830:	b8450513          	addi	a0,a0,-1148 # ffffffff8040d3b0 <get_elf_file+0xa2>
ffffffff80400834:	2db0c0ef          	jal	ra,ffffffff8040d30e <get_elf_file>
ffffffff80400838:	29d030ef          	jal	ra,ffffffff804042d4 <allocPage>
ffffffff8040083c:	fca43423          	sd	a0,-56(s0)
ffffffff80400840:	fc843503          	ld	a0,-56(s0)
ffffffff80400844:	be1ff0ef          	jal	ra,ffffffff80400424 <clear_pgdir>
ffffffff80400848:	fd043703          	ld	a4,-48(s0)
ffffffff8040084c:	77fd                	lui	a5,0xfffff
ffffffff8040084e:	97ba                	add	a5,a5,a4
ffffffff80400850:	0d600613          	li	a2,214
ffffffff80400854:	fc843583          	ld	a1,-56(s0)
ffffffff80400858:	853e                	mv	a0,a5
ffffffff8040085a:	4e7040ef          	jal	ra,ffffffff80405540 <alloc_page_helper>
ffffffff8040085e:	fb843783          	ld	a5,-72(s0)
ffffffff80400862:	fb442703          	lw	a4,-76(s0)
ffffffff80400866:	2701                	sext.w	a4,a4
ffffffff80400868:	00005697          	auipc	a3,0x5
ffffffff8040086c:	cd868693          	addi	a3,a3,-808 # ffffffff80405540 <alloc_page_helper>
ffffffff80400870:	fc843603          	ld	a2,-56(s0)
ffffffff80400874:	85ba                	mv	a1,a4
ffffffff80400876:	853e                	mv	a0,a5
ffffffff80400878:	d81ff0ef          	jal	ra,ffffffff804005f8 <load_elf>
ffffffff8040087c:	fca43023          	sd	a0,-64(s0)
ffffffff80400880:	0001e797          	auipc	a5,0x1e
ffffffff80400884:	78878793          	addi	a5,a5,1928 # ffffffff8041f008 <shell_pgdir>
ffffffff80400888:	fc843703          	ld	a4,-56(s0)
ffffffff8040088c:	e398                	sd	a4,0(a5)
ffffffff8040088e:	fe043803          	ld	a6,-32(s0)
ffffffff80400892:	4781                	li	a5,0
ffffffff80400894:	4701                	li	a4,0
ffffffff80400896:	fc043683          	ld	a3,-64(s0)
ffffffff8040089a:	fd043603          	ld	a2,-48(s0)
ffffffff8040089e:	fd843583          	ld	a1,-40(s0)
ffffffff804008a2:	fc843503          	ld	a0,-56(s0)
ffffffff804008a6:	336020ef          	jal	ra,ffffffff80402bdc <init_pcb_stack>
ffffffff804008aa:	fe043783          	ld	a5,-32(s0)
ffffffff804008ae:	02878793          	addi	a5,a5,40
ffffffff804008b2:	0000e597          	auipc	a1,0xe
ffffffff804008b6:	d6658593          	addi	a1,a1,-666 # ffffffff8040e618 <ready_queue>
ffffffff804008ba:	853e                	mv	a0,a5
ffffffff804008bc:	affff0ef          	jal	ra,ffffffff804003ba <list_add_tail>
ffffffff804008c0:	4785                	li	a5,1
ffffffff804008c2:	fef42623          	sw	a5,-20(s0)
ffffffff804008c6:	a8fd                	j	ffffffff804009c4 <init_pcb+0x1ee>
ffffffff804008c8:	fec42703          	lw	a4,-20(s0)
ffffffff804008cc:	2c000793          	li	a5,704
ffffffff804008d0:	02f70733          	mul	a4,a4,a5
ffffffff804008d4:	0001f797          	auipc	a5,0x1f
ffffffff804008d8:	1bc78793          	addi	a5,a5,444 # ffffffff8041fa90 <pcb>
ffffffff804008dc:	97ba                	add	a5,a5,a4
ffffffff804008de:	863e                	mv	a2,a5
ffffffff804008e0:	0001f717          	auipc	a4,0x1f
ffffffff804008e4:	1b070713          	addi	a4,a4,432 # ffffffff8041fa90 <pcb>
ffffffff804008e8:	fec42683          	lw	a3,-20(s0)
ffffffff804008ec:	2c000793          	li	a5,704
ffffffff804008f0:	02f687b3          	mul	a5,a3,a5
ffffffff804008f4:	97ba                	add	a5,a5,a4
ffffffff804008f6:	ff90                	sd	a2,56(a5)
ffffffff804008f8:	0001f717          	auipc	a4,0x1f
ffffffff804008fc:	19870713          	addi	a4,a4,408 # ffffffff8041fa90 <pcb>
ffffffff80400900:	fec42683          	lw	a3,-20(s0)
ffffffff80400904:	2c000793          	li	a5,704
ffffffff80400908:	02f687b3          	mul	a5,a3,a5
ffffffff8040090c:	97ba                	add	a5,a5,a4
ffffffff8040090e:	0407ac23          	sw	zero,88(a5)
ffffffff80400912:	fec42703          	lw	a4,-20(s0)
ffffffff80400916:	2c000793          	li	a5,704
ffffffff8040091a:	02f707b3          	mul	a5,a4,a5
ffffffff8040091e:	04078713          	addi	a4,a5,64
ffffffff80400922:	0001f797          	auipc	a5,0x1f
ffffffff80400926:	16e78793          	addi	a5,a5,366 # ffffffff8041fa90 <pcb>
ffffffff8040092a:	973e                	add	a4,a4,a5
ffffffff8040092c:	0001f697          	auipc	a3,0x1f
ffffffff80400930:	16468693          	addi	a3,a3,356 # ffffffff8041fa90 <pcb>
ffffffff80400934:	fec42603          	lw	a2,-20(s0)
ffffffff80400938:	2c000793          	li	a5,704
ffffffff8040093c:	02f607b3          	mul	a5,a2,a5
ffffffff80400940:	97b6                	add	a5,a5,a3
ffffffff80400942:	e3b8                	sd	a4,64(a5)
ffffffff80400944:	fec42703          	lw	a4,-20(s0)
ffffffff80400948:	2c000793          	li	a5,704
ffffffff8040094c:	02f707b3          	mul	a5,a4,a5
ffffffff80400950:	04078713          	addi	a4,a5,64
ffffffff80400954:	0001f797          	auipc	a5,0x1f
ffffffff80400958:	13c78793          	addi	a5,a5,316 # ffffffff8041fa90 <pcb>
ffffffff8040095c:	973e                	add	a4,a4,a5
ffffffff8040095e:	0001f697          	auipc	a3,0x1f
ffffffff80400962:	13268693          	addi	a3,a3,306 # ffffffff8041fa90 <pcb>
ffffffff80400966:	fec42603          	lw	a2,-20(s0)
ffffffff8040096a:	2c000793          	li	a5,704
ffffffff8040096e:	02f607b3          	mul	a5,a2,a5
ffffffff80400972:	97b6                	add	a5,a5,a3
ffffffff80400974:	e7b8                	sd	a4,72(a5)
ffffffff80400976:	0001f717          	auipc	a4,0x1f
ffffffff8040097a:	11a70713          	addi	a4,a4,282 # ffffffff8041fa90 <pcb>
ffffffff8040097e:	fec42683          	lw	a3,-20(s0)
ffffffff80400982:	2c000793          	li	a5,704
ffffffff80400986:	02f687b3          	mul	a5,a3,a5
ffffffff8040098a:	97ba                	add	a5,a5,a4
ffffffff8040098c:	4711                	li	a4,4
ffffffff8040098e:	d3b8                	sw	a4,96(a5)
ffffffff80400990:	fec42703          	lw	a4,-20(s0)
ffffffff80400994:	2c000793          	li	a5,704
ffffffff80400998:	02f707b3          	mul	a5,a4,a5
ffffffff8040099c:	02078713          	addi	a4,a5,32
ffffffff804009a0:	0001f797          	auipc	a5,0x1f
ffffffff804009a4:	0f078793          	addi	a5,a5,240 # ffffffff8041fa90 <pcb>
ffffffff804009a8:	97ba                	add	a5,a5,a4
ffffffff804009aa:	07a1                	addi	a5,a5,8
ffffffff804009ac:	0000e597          	auipc	a1,0xe
ffffffff804009b0:	c9c58593          	addi	a1,a1,-868 # ffffffff8040e648 <available_queue>
ffffffff804009b4:	853e                	mv	a0,a5
ffffffff804009b6:	a05ff0ef          	jal	ra,ffffffff804003ba <list_add_tail>
ffffffff804009ba:	fec42783          	lw	a5,-20(s0)
ffffffff804009be:	2785                	addiw	a5,a5,1
ffffffff804009c0:	fef42623          	sw	a5,-20(s0)
ffffffff804009c4:	fec42783          	lw	a5,-20(s0)
ffffffff804009c8:	0007871b          	sext.w	a4,a5
ffffffff804009cc:	47bd                	li	a5,15
ffffffff804009ce:	eee7dde3          	bge	a5,a4,ffffffff804008c8 <init_pcb+0xf2>
ffffffff804009d2:	0000d797          	auipc	a5,0xd
ffffffff804009d6:	6c678793          	addi	a5,a5,1734 # ffffffff8040e098 <pid0_pcb>
ffffffff804009da:	0000d717          	auipc	a4,0xd
ffffffff804009de:	6e670713          	addi	a4,a4,1766 # ffffffff8040e0c0 <pid0_pcb+0x28>
ffffffff804009e2:	f798                	sd	a4,40(a5)
ffffffff804009e4:	0000d797          	auipc	a5,0xd
ffffffff804009e8:	6b478793          	addi	a5,a5,1716 # ffffffff8040e098 <pid0_pcb>
ffffffff804009ec:	0000d717          	auipc	a4,0xd
ffffffff804009f0:	6d470713          	addi	a4,a4,1748 # ffffffff8040e0c0 <pid0_pcb+0x28>
ffffffff804009f4:	fb98                	sd	a4,48(a5)
ffffffff804009f6:	0000d717          	auipc	a4,0xd
ffffffff804009fa:	6a270713          	addi	a4,a4,1698 # ffffffff8040e098 <pid0_pcb>
ffffffff804009fe:	0000d797          	auipc	a5,0xd
ffffffff80400a02:	69a78793          	addi	a5,a5,1690 # ffffffff8040e098 <pid0_pcb>
ffffffff80400a06:	ff98                	sd	a4,56(a5)
ffffffff80400a08:	0000d797          	auipc	a5,0xd
ffffffff80400a0c:	69078793          	addi	a5,a5,1680 # ffffffff8040e098 <pid0_pcb>
ffffffff80400a10:	0000d717          	auipc	a4,0xd
ffffffff80400a14:	6c870713          	addi	a4,a4,1736 # ffffffff8040e0d8 <pid0_pcb+0x40>
ffffffff80400a18:	e3b8                	sd	a4,64(a5)
ffffffff80400a1a:	0000d797          	auipc	a5,0xd
ffffffff80400a1e:	67e78793          	addi	a5,a5,1662 # ffffffff8040e098 <pid0_pcb>
ffffffff80400a22:	0000d717          	auipc	a4,0xd
ffffffff80400a26:	6b670713          	addi	a4,a4,1718 # ffffffff8040e0d8 <pid0_pcb+0x40>
ffffffff80400a2a:	e7b8                	sd	a4,72(a5)
ffffffff80400a2c:	0000e797          	auipc	a5,0xe
ffffffff80400a30:	92c78793          	addi	a5,a5,-1748 # ffffffff8040e358 <pid0_pcb2>
ffffffff80400a34:	0000e717          	auipc	a4,0xe
ffffffff80400a38:	94c70713          	addi	a4,a4,-1716 # ffffffff8040e380 <pid0_pcb2+0x28>
ffffffff80400a3c:	f798                	sd	a4,40(a5)
ffffffff80400a3e:	0000e797          	auipc	a5,0xe
ffffffff80400a42:	91a78793          	addi	a5,a5,-1766 # ffffffff8040e358 <pid0_pcb2>
ffffffff80400a46:	0000e717          	auipc	a4,0xe
ffffffff80400a4a:	93a70713          	addi	a4,a4,-1734 # ffffffff8040e380 <pid0_pcb2+0x28>
ffffffff80400a4e:	fb98                	sd	a4,48(a5)
ffffffff80400a50:	0000e717          	auipc	a4,0xe
ffffffff80400a54:	90870713          	addi	a4,a4,-1784 # ffffffff8040e358 <pid0_pcb2>
ffffffff80400a58:	0000e797          	auipc	a5,0xe
ffffffff80400a5c:	90078793          	addi	a5,a5,-1792 # ffffffff8040e358 <pid0_pcb2>
ffffffff80400a60:	ff98                	sd	a4,56(a5)
ffffffff80400a62:	0000e797          	auipc	a5,0xe
ffffffff80400a66:	8f678793          	addi	a5,a5,-1802 # ffffffff8040e358 <pid0_pcb2>
ffffffff80400a6a:	0000e717          	auipc	a4,0xe
ffffffff80400a6e:	92e70713          	addi	a4,a4,-1746 # ffffffff8040e398 <pid0_pcb2+0x40>
ffffffff80400a72:	e3b8                	sd	a4,64(a5)
ffffffff80400a74:	0000e797          	auipc	a5,0xe
ffffffff80400a78:	8e478793          	addi	a5,a5,-1820 # ffffffff8040e358 <pid0_pcb2>
ffffffff80400a7c:	0000e717          	auipc	a4,0xe
ffffffff80400a80:	91c70713          	addi	a4,a4,-1764 # ffffffff8040e398 <pid0_pcb2+0x40>
ffffffff80400a84:	e7b8                	sd	a4,72(a5)
ffffffff80400a86:	0001                	nop
ffffffff80400a88:	60a6                	ld	ra,72(sp)
ffffffff80400a8a:	6406                	ld	s0,64(sp)
ffffffff80400a8c:	6161                	addi	sp,sp,80
ffffffff80400a8e:	8082                	ret

ffffffff80400a90 <init_syscall>:
ffffffff80400a90:	1141                	addi	sp,sp,-16
ffffffff80400a92:	e422                	sd	s0,8(sp)
ffffffff80400a94:	0800                	addi	s0,sp,16
ffffffff80400a96:	00022797          	auipc	a5,0x22
ffffffff80400a9a:	bfa78793          	addi	a5,a5,-1030 # ffffffff80422690 <syscall>
ffffffff80400a9e:	00001717          	auipc	a4,0x1
ffffffff80400aa2:	00470713          	addi	a4,a4,4 # ffffffff80401aa2 <screen_write>
ffffffff80400aa6:	f3d8                	sd	a4,160(a5)
ffffffff80400aa8:	00022797          	auipc	a5,0x22
ffffffff80400aac:	be878793          	addi	a5,a5,-1048 # ffffffff80422690 <syscall>
ffffffff80400ab0:	00001717          	auipc	a4,0x1
ffffffff80400ab4:	fb270713          	addi	a4,a4,-78 # ffffffff80401a62 <screen_move_cursor>
ffffffff80400ab8:	fbd8                	sd	a4,176(a5)
ffffffff80400aba:	00022797          	auipc	a5,0x22
ffffffff80400abe:	bd678793          	addi	a5,a5,-1066 # ffffffff80422690 <syscall>
ffffffff80400ac2:	00002717          	auipc	a4,0x2
ffffffff80400ac6:	7a470713          	addi	a4,a4,1956 # ffffffff80403266 <do_exit>
ffffffff80400aca:	2ee7b423          	sd	a4,744(a5)
ffffffff80400ace:	00022797          	auipc	a5,0x22
ffffffff80400ad2:	bc278793          	addi	a5,a5,-1086 # ffffffff80422690 <syscall>
ffffffff80400ad6:	00009717          	auipc	a4,0x9
ffffffff80400ada:	ac270713          	addi	a4,a4,-1342 # ffffffff80409598 <do_testdisk>
ffffffff80400ade:	1ce7b823          	sd	a4,464(a5)
ffffffff80400ae2:	00022797          	auipc	a5,0x22
ffffffff80400ae6:	bae78793          	addi	a5,a5,-1106 # ffffffff80422690 <syscall>
ffffffff80400aea:	0000a717          	auipc	a4,0xa
ffffffff80400aee:	77270713          	addi	a4,a4,1906 # ffffffff8040b25c <fat32_write>
ffffffff80400af2:	20e7b023          	sd	a4,512(a5)
ffffffff80400af6:	00022797          	auipc	a5,0x22
ffffffff80400afa:	b9a78793          	addi	a5,a5,-1126 # ffffffff80422690 <syscall>
ffffffff80400afe:	0000a717          	auipc	a4,0xa
ffffffff80400b02:	1c070713          	addi	a4,a4,448 # ffffffff8040acbe <fat32_read_test>
ffffffff80400b06:	1ce7bc23          	sd	a4,472(a5)
ffffffff80400b0a:	00022797          	auipc	a5,0x22
ffffffff80400b0e:	b8678793          	addi	a5,a5,-1146 # ffffffff80422690 <syscall>
ffffffff80400b12:	00003717          	auipc	a4,0x3
ffffffff80400b16:	c4470713          	addi	a4,a4,-956 # ffffffff80403756 <do_getpid>
ffffffff80400b1a:	56e7b023          	sd	a4,1376(a5)
ffffffff80400b1e:	00022797          	auipc	a5,0x22
ffffffff80400b22:	b7278793          	addi	a5,a5,-1166 # ffffffff80422690 <syscall>
ffffffff80400b26:	0000c717          	auipc	a4,0xc
ffffffff80400b2a:	75070713          	addi	a4,a4,1872 # ffffffff8040d276 <do_uname>
ffffffff80400b2e:	50e7b023          	sd	a4,1280(a5)
ffffffff80400b32:	00022797          	auipc	a5,0x22
ffffffff80400b36:	b5e78793          	addi	a5,a5,-1186 # ffffffff80422690 <syscall>
ffffffff80400b3a:	00002717          	auipc	a4,0x2
ffffffff80400b3e:	f1070713          	addi	a4,a4,-240 # ffffffff80402a4a <do_scheduler>
ffffffff80400b42:	3ee7b023          	sd	a4,992(a5)
ffffffff80400b46:	00022797          	auipc	a5,0x22
ffffffff80400b4a:	b4a78793          	addi	a5,a5,-1206 # ffffffff80422690 <syscall>
ffffffff80400b4e:	00003717          	auipc	a4,0x3
ffffffff80400b52:	eaa70713          	addi	a4,a4,-342 # ffffffff804039f8 <do_times>
ffffffff80400b56:	4ce7b423          	sd	a4,1224(a5)
ffffffff80400b5a:	00022797          	auipc	a5,0x22
ffffffff80400b5e:	b3678793          	addi	a5,a5,-1226 # ffffffff80422690 <syscall>
ffffffff80400b62:	00003717          	auipc	a4,0x3
ffffffff80400b66:	f7c70713          	addi	a4,a4,-132 # ffffffff80403ade <do_gettimeofday>
ffffffff80400b6a:	54e7b423          	sd	a4,1352(a5)
ffffffff80400b6e:	00022797          	auipc	a5,0x22
ffffffff80400b72:	b2278793          	addi	a5,a5,-1246 # ffffffff80422690 <syscall>
ffffffff80400b76:	00002717          	auipc	a4,0x2
ffffffff80400b7a:	24270713          	addi	a4,a4,578 # ffffffff80402db8 <do_clone>
ffffffff80400b7e:	6ee7b023          	sd	a4,1760(a5)
ffffffff80400b82:	00022717          	auipc	a4,0x22
ffffffff80400b86:	b0e70713          	addi	a4,a4,-1266 # ffffffff80422690 <syscall>
ffffffff80400b8a:	6785                	lui	a5,0x1
ffffffff80400b8c:	97ba                	add	a5,a5,a4
ffffffff80400b8e:	00002717          	auipc	a4,0x2
ffffffff80400b92:	3d670713          	addi	a4,a4,982 # ffffffff80402f64 <do_wait4>
ffffffff80400b96:	82e7b023          	sd	a4,-2016(a5) # 820 <_start-0xffffffff803ff7e0>
ffffffff80400b9a:	00022797          	auipc	a5,0x22
ffffffff80400b9e:	af678793          	addi	a5,a5,-1290 # ffffffff80422690 <syscall>
ffffffff80400ba2:	00003717          	auipc	a4,0x3
ffffffff80400ba6:	bce70713          	addi	a4,a4,-1074 # ffffffff80403770 <do_getppid>
ffffffff80400baa:	56e7b423          	sd	a4,1384(a5)
ffffffff80400bae:	00022797          	auipc	a5,0x22
ffffffff80400bb2:	ae278793          	addi	a5,a5,-1310 # ffffffff80422690 <syscall>
ffffffff80400bb6:	00002717          	auipc	a4,0x2
ffffffff80400bba:	54e70713          	addi	a4,a4,1358 # ffffffff80403104 <do_nanosleep>
ffffffff80400bbe:	32e7b423          	sd	a4,808(a5)
ffffffff80400bc2:	00022797          	auipc	a5,0x22
ffffffff80400bc6:	ace78793          	addi	a5,a5,-1330 # ffffffff80422690 <syscall>
ffffffff80400bca:	0000b717          	auipc	a4,0xb
ffffffff80400bce:	3ce70713          	addi	a4,a4,974 # ffffffff8040bf98 <fat32_mkdir>
ffffffff80400bd2:	10e7b823          	sd	a4,272(a5)
ffffffff80400bd6:	00022797          	auipc	a5,0x22
ffffffff80400bda:	aba78793          	addi	a5,a5,-1350 # ffffffff80422690 <syscall>
ffffffff80400bde:	0000c717          	auipc	a4,0xc
ffffffff80400be2:	f3870713          	addi	a4,a4,-200 # ffffffff8040cb16 <fat32_open>
ffffffff80400be6:	1ce7b023          	sd	a4,448(a5)
ffffffff80400bea:	00022797          	auipc	a5,0x22
ffffffff80400bee:	aa678793          	addi	a5,a5,-1370 # ffffffff80422690 <syscall>
ffffffff80400bf2:	0000c717          	auipc	a4,0xc
ffffffff80400bf6:	38c70713          	addi	a4,a4,908 # ffffffff8040cf7e <fat32_close>
ffffffff80400bfa:	1ce7b423          	sd	a4,456(a5)
ffffffff80400bfe:	0001                	nop
ffffffff80400c00:	6422                	ld	s0,8(sp)
ffffffff80400c02:	0141                	addi	sp,sp,16
ffffffff80400c04:	8082                	ret

ffffffff80400c06 <main>:
ffffffff80400c06:	1101                	addi	sp,sp,-32
ffffffff80400c08:	ec06                	sd	ra,24(sp)
ffffffff80400c0a:	e822                	sd	s0,16(sp)
ffffffff80400c0c:	e426                	sd	s1,8(sp)
ffffffff80400c0e:	1000                	addi	s0,sp,32
ffffffff80400c10:	bc7ff0ef          	jal	ra,ffffffff804007d6 <init_pcb>
ffffffff80400c14:	0000c517          	auipc	a0,0xc
ffffffff80400c18:	7a450513          	addi	a0,a0,1956 # ffffffff8040d3b8 <get_elf_file+0xaa>
ffffffff80400c1c:	341050ef          	jal	ra,ffffffff8040675c <printk>
ffffffff80400c20:	00018797          	auipc	a5,0x18
ffffffff80400c24:	a7078793          	addi	a5,a5,-1424 # ffffffff80418690 <time_base>
ffffffff80400c28:	00633737          	lui	a4,0x633
ffffffff80400c2c:	ea070713          	addi	a4,a4,-352 # 632ea0 <_start-0xffffffff7fdcd160>
ffffffff80400c30:	c398                	sw	a4,0(a5)
ffffffff80400c32:	514000ef          	jal	ra,ffffffff80401146 <init_exception>
ffffffff80400c36:	0000c517          	auipc	a0,0xc
ffffffff80400c3a:	7b250513          	addi	a0,a0,1970 # ffffffff8040d3e8 <get_elf_file+0xda>
ffffffff80400c3e:	31f050ef          	jal	ra,ffffffff8040675c <printk>
ffffffff80400c42:	e4fff0ef          	jal	ra,ffffffff80400a90 <init_syscall>
ffffffff80400c46:	0000c517          	auipc	a0,0xc
ffffffff80400c4a:	7e250513          	addi	a0,a0,2018 # ffffffff8040d428 <get_elf_file+0x11a>
ffffffff80400c4e:	30f050ef          	jal	ra,ffffffff8040675c <printk>
ffffffff80400c52:	702070ef          	jal	ra,ffffffff80408354 <fpioa_pin_init>
ffffffff80400c56:	0000d517          	auipc	a0,0xd
ffffffff80400c5a:	80a50513          	addi	a0,a0,-2038 # ffffffff8040d460 <get_elf_file+0x152>
ffffffff80400c5e:	2ff050ef          	jal	ra,ffffffff8040675c <printk>
ffffffff80400c62:	6585                	lui	a1,0x1
ffffffff80400c64:	579d                	li	a5,-25
ffffffff80400c66:	01b79513          	slli	a0,a5,0x1b
ffffffff80400c6a:	5c5040ef          	jal	ra,ffffffff80405a2e <ioremap>
ffffffff80400c6e:	65c1                	lui	a1,0x10
ffffffff80400c70:	f8100793          	li	a5,-127
ffffffff80400c74:	01979513          	slli	a0,a5,0x19
ffffffff80400c78:	5b7040ef          	jal	ra,ffffffff80405a2e <ioremap>
ffffffff80400c7c:	004005b7          	lui	a1,0x400
ffffffff80400c80:	86100793          	li	a5,-1951
ffffffff80400c84:	01579513          	slli	a0,a5,0x15
ffffffff80400c88:	5a7040ef          	jal	ra,ffffffff80405a2e <ioremap>
ffffffff80400c8c:	6585                	lui	a1,0x1
ffffffff80400c8e:	fff387b7          	lui	a5,0xfff38
ffffffff80400c92:	0785                	addi	a5,a5,1
ffffffff80400c94:	00c79513          	slli	a0,a5,0xc
ffffffff80400c98:	597040ef          	jal	ra,ffffffff80405a2e <ioremap>
ffffffff80400c9c:	6585                	lui	a1,0x1
ffffffff80400c9e:	a8100793          	li	a5,-1407
ffffffff80400ca2:	01579513          	slli	a0,a5,0x15
ffffffff80400ca6:	589040ef          	jal	ra,ffffffff80405a2e <ioremap>
ffffffff80400caa:	6585                	lui	a1,0x1
ffffffff80400cac:	fd4097b7          	lui	a5,0xfd409
ffffffff80400cb0:	00679513          	slli	a0,a5,0x6
ffffffff80400cb4:	57b040ef          	jal	ra,ffffffff80405a2e <ioremap>
ffffffff80400cb8:	6585                	lui	a1,0x1
ffffffff80400cba:	fff387b7          	lui	a5,0xfff38
ffffffff80400cbe:	0785                	addi	a5,a5,1
ffffffff80400cc0:	00c79513          	slli	a0,a5,0xc
ffffffff80400cc4:	56b040ef          	jal	ra,ffffffff80405a2e <ioremap>
ffffffff80400cc8:	6585                	lui	a1,0x1
ffffffff80400cca:	fa900793          	li	a5,-87
ffffffff80400cce:	01979513          	slli	a0,a5,0x19
ffffffff80400cd2:	55d040ef          	jal	ra,ffffffff80405a2e <ioremap>
ffffffff80400cd6:	6585                	lui	a1,0x1
ffffffff80400cd8:	f5300793          	li	a5,-173
ffffffff80400cdc:	01879513          	slli	a0,a5,0x18
ffffffff80400ce0:	54f040ef          	jal	ra,ffffffff80405a2e <ioremap>
ffffffff80400ce4:	6585                	lui	a1,0x1
ffffffff80400ce6:	fd500793          	li	a5,-43
ffffffff80400cea:	01a79513          	slli	a0,a5,0x1a
ffffffff80400cee:	541040ef          	jal	ra,ffffffff80405a2e <ioremap>
ffffffff80400cf2:	0000c517          	auipc	a0,0xc
ffffffff80400cf6:	79e50513          	addi	a0,a0,1950 # ffffffff8040d490 <get_elf_file+0x182>
ffffffff80400cfa:	263050ef          	jal	ra,ffffffff8040675c <printk>
ffffffff80400cfe:	0001e797          	auipc	a5,0x1e
ffffffff80400d02:	30a78793          	addi	a5,a5,778 # ffffffff8041f008 <shell_pgdir>
ffffffff80400d06:	6384                	ld	s1,0(a5)
ffffffff80400d08:	008037b7          	lui	a5,0x803
ffffffff80400d0c:	00879513          	slli	a0,a5,0x8
ffffffff80400d10:	ef8ff0ef          	jal	ra,ffffffff80400408 <pa2kva>
ffffffff80400d14:	87aa                	mv	a5,a0
ffffffff80400d16:	85be                	mv	a1,a5
ffffffff80400d18:	8526                	mv	a0,s1
ffffffff80400d1a:	78c040ef          	jal	ra,ffffffff804054a6 <share_pgtable>
ffffffff80400d1e:	0000c517          	auipc	a0,0xc
ffffffff80400d22:	7a250513          	addi	a0,a0,1954 # ffffffff8040d4c0 <get_elf_file+0x1b2>
ffffffff80400d26:	237050ef          	jal	ra,ffffffff8040675c <printk>
ffffffff80400d2a:	3eb050ef          	jal	ra,ffffffff80406914 <sdcard_init>
ffffffff80400d2e:	0000c517          	auipc	a0,0xc
ffffffff80400d32:	7ca50513          	addi	a0,a0,1994 # ffffffff8040d4f8 <get_elf_file+0x1ea>
ffffffff80400d36:	227050ef          	jal	ra,ffffffff8040675c <printk>
ffffffff80400d3a:	479090ef          	jal	ra,ffffffff8040a9b2 <fat32_init>
ffffffff80400d3e:	0000c517          	auipc	a0,0xc
ffffffff80400d42:	7ea50513          	addi	a0,a0,2026 # ffffffff8040d528 <get_elf_file+0x21a>
ffffffff80400d46:	217050ef          	jal	ra,ffffffff8040675c <printk>
ffffffff80400d4a:	471000ef          	jal	ra,ffffffff804019ba <init_screen>
ffffffff80400d4e:	0000d517          	auipc	a0,0xd
ffffffff80400d52:	80a50513          	addi	a0,a0,-2038 # ffffffff8040d558 <get_elf_file+0x24a>
ffffffff80400d56:	207050ef          	jal	ra,ffffffff8040675c <printk>
ffffffff80400d5a:	703020ef          	jal	ra,ffffffff80403c5c <get_ticks>
ffffffff80400d5e:	872a                	mv	a4,a0
ffffffff80400d60:	00018797          	auipc	a5,0x18
ffffffff80400d64:	93078793          	addi	a5,a5,-1744 # ffffffff80418690 <time_base>
ffffffff80400d68:	439c                	lw	a5,0(a5)
ffffffff80400d6a:	86be                	mv	a3,a5
ffffffff80400d6c:	0c800793          	li	a5,200
ffffffff80400d70:	02f6d7bb          	divuw	a5,a3,a5
ffffffff80400d74:	2781                	sext.w	a5,a5
ffffffff80400d76:	1782                	slli	a5,a5,0x20
ffffffff80400d78:	9381                	srli	a5,a5,0x20
ffffffff80400d7a:	97ba                	add	a5,a5,a4
ffffffff80400d7c:	853e                	mv	a0,a5
ffffffff80400d7e:	e6aff0ef          	jal	ra,ffffffff804003e8 <sbi_set_timer>
ffffffff80400d82:	b0aff0ef          	jal	ra,ffffffff8040008c <clear_interrupt>
ffffffff80400d86:	aeeff0ef          	jal	ra,ffffffff80400074 <setup_exception>
ffffffff80400d8a:	b56ff0ef          	jal	ra,ffffffff804000e0 <enable_interrupt>
ffffffff80400d8e:	10500073          	wfi
ffffffff80400d92:	bff5                	j	ffffffff80400d8e <main+0x188>

ffffffff80400d94 <_list_add>:
ffffffff80400d94:	7179                	addi	sp,sp,-48
ffffffff80400d96:	f422                	sd	s0,40(sp)
ffffffff80400d98:	1800                	addi	s0,sp,48
ffffffff80400d9a:	fea43423          	sd	a0,-24(s0)
ffffffff80400d9e:	feb43023          	sd	a1,-32(s0)
ffffffff80400da2:	fcc43c23          	sd	a2,-40(s0)
ffffffff80400da6:	fd843783          	ld	a5,-40(s0)
ffffffff80400daa:	fe843703          	ld	a4,-24(s0)
ffffffff80400dae:	e798                	sd	a4,8(a5)
ffffffff80400db0:	fe843783          	ld	a5,-24(s0)
ffffffff80400db4:	fd843703          	ld	a4,-40(s0)
ffffffff80400db8:	e398                	sd	a4,0(a5)
ffffffff80400dba:	fe843783          	ld	a5,-24(s0)
ffffffff80400dbe:	fe043703          	ld	a4,-32(s0)
ffffffff80400dc2:	e798                	sd	a4,8(a5)
ffffffff80400dc4:	fe043783          	ld	a5,-32(s0)
ffffffff80400dc8:	fe843703          	ld	a4,-24(s0)
ffffffff80400dcc:	e398                	sd	a4,0(a5)
ffffffff80400dce:	0001                	nop
ffffffff80400dd0:	7422                	ld	s0,40(sp)
ffffffff80400dd2:	6145                	addi	sp,sp,48
ffffffff80400dd4:	8082                	ret

ffffffff80400dd6 <_list_del>:
ffffffff80400dd6:	1101                	addi	sp,sp,-32
ffffffff80400dd8:	ec22                	sd	s0,24(sp)
ffffffff80400dda:	1000                	addi	s0,sp,32
ffffffff80400ddc:	fea43423          	sd	a0,-24(s0)
ffffffff80400de0:	feb43023          	sd	a1,-32(s0)
ffffffff80400de4:	fe043783          	ld	a5,-32(s0)
ffffffff80400de8:	fe843703          	ld	a4,-24(s0)
ffffffff80400dec:	e798                	sd	a4,8(a5)
ffffffff80400dee:	fe843783          	ld	a5,-24(s0)
ffffffff80400df2:	fe043703          	ld	a4,-32(s0)
ffffffff80400df6:	e398                	sd	a4,0(a5)
ffffffff80400df8:	0001                	nop
ffffffff80400dfa:	6462                	ld	s0,24(sp)
ffffffff80400dfc:	6105                	addi	sp,sp,32
ffffffff80400dfe:	8082                	ret

ffffffff80400e00 <list_del>:
ffffffff80400e00:	1101                	addi	sp,sp,-32
ffffffff80400e02:	ec06                	sd	ra,24(sp)
ffffffff80400e04:	e822                	sd	s0,16(sp)
ffffffff80400e06:	1000                	addi	s0,sp,32
ffffffff80400e08:	fea43423          	sd	a0,-24(s0)
ffffffff80400e0c:	fe843783          	ld	a5,-24(s0)
ffffffff80400e10:	679c                	ld	a5,8(a5)
ffffffff80400e12:	c79d                	beqz	a5,ffffffff80400e40 <list_del+0x40>
ffffffff80400e14:	fe843783          	ld	a5,-24(s0)
ffffffff80400e18:	639c                	ld	a5,0(a5)
ffffffff80400e1a:	c39d                	beqz	a5,ffffffff80400e40 <list_del+0x40>
ffffffff80400e1c:	fe843783          	ld	a5,-24(s0)
ffffffff80400e20:	6798                	ld	a4,8(a5)
ffffffff80400e22:	fe843783          	ld	a5,-24(s0)
ffffffff80400e26:	639c                	ld	a5,0(a5)
ffffffff80400e28:	85be                	mv	a1,a5
ffffffff80400e2a:	853a                	mv	a0,a4
ffffffff80400e2c:	fabff0ef          	jal	ra,ffffffff80400dd6 <_list_del>
ffffffff80400e30:	fe843783          	ld	a5,-24(s0)
ffffffff80400e34:	0007b423          	sd	zero,8(a5)
ffffffff80400e38:	fe843783          	ld	a5,-24(s0)
ffffffff80400e3c:	0007b023          	sd	zero,0(a5)
ffffffff80400e40:	0001                	nop
ffffffff80400e42:	60e2                	ld	ra,24(sp)
ffffffff80400e44:	6442                	ld	s0,16(sp)
ffffffff80400e46:	6105                	addi	sp,sp,32
ffffffff80400e48:	8082                	ret

ffffffff80400e4a <list_add_tail>:
ffffffff80400e4a:	1101                	addi	sp,sp,-32
ffffffff80400e4c:	ec06                	sd	ra,24(sp)
ffffffff80400e4e:	e822                	sd	s0,16(sp)
ffffffff80400e50:	1000                	addi	s0,sp,32
ffffffff80400e52:	fea43423          	sd	a0,-24(s0)
ffffffff80400e56:	feb43023          	sd	a1,-32(s0)
ffffffff80400e5a:	fe043783          	ld	a5,-32(s0)
ffffffff80400e5e:	679c                	ld	a5,8(a5)
ffffffff80400e60:	fe043603          	ld	a2,-32(s0)
ffffffff80400e64:	85be                	mv	a1,a5
ffffffff80400e66:	fe843503          	ld	a0,-24(s0)
ffffffff80400e6a:	f2bff0ef          	jal	ra,ffffffff80400d94 <_list_add>
ffffffff80400e6e:	0001                	nop
ffffffff80400e70:	60e2                	ld	ra,24(sp)
ffffffff80400e72:	6442                	ld	s0,16(sp)
ffffffff80400e74:	6105                	addi	sp,sp,32
ffffffff80400e76:	8082                	ret

ffffffff80400e78 <sbi_sd_read>:
ffffffff80400e78:	1101                	addi	sp,sp,-32
ffffffff80400e7a:	ec22                	sd	s0,24(sp)
ffffffff80400e7c:	1000                	addi	s0,sp,32
ffffffff80400e7e:	87aa                	mv	a5,a0
ffffffff80400e80:	86ae                	mv	a3,a1
ffffffff80400e82:	8732                	mv	a4,a2
ffffffff80400e84:	fef42623          	sw	a5,-20(s0)
ffffffff80400e88:	87b6                	mv	a5,a3
ffffffff80400e8a:	fef42423          	sw	a5,-24(s0)
ffffffff80400e8e:	87ba                	mv	a5,a4
ffffffff80400e90:	fef42223          	sw	a5,-28(s0)
ffffffff80400e94:	fec46783          	lwu	a5,-20(s0)
ffffffff80400e98:	853e                	mv	a0,a5
ffffffff80400e9a:	fe846783          	lwu	a5,-24(s0)
ffffffff80400e9e:	85be                	mv	a1,a5
ffffffff80400ea0:	fe446783          	lwu	a5,-28(s0)
ffffffff80400ea4:	863e                	mv	a2,a5
ffffffff80400ea6:	48ad                	li	a7,11
ffffffff80400ea8:	00000073          	ecall
ffffffff80400eac:	87aa                	mv	a5,a0
ffffffff80400eae:	853e                	mv	a0,a5
ffffffff80400eb0:	6462                	ld	s0,24(sp)
ffffffff80400eb2:	6105                	addi	sp,sp,32
ffffffff80400eb4:	8082                	ret

ffffffff80400eb6 <sbi_set_timer>:
ffffffff80400eb6:	1101                	addi	sp,sp,-32
ffffffff80400eb8:	ec22                	sd	s0,24(sp)
ffffffff80400eba:	1000                	addi	s0,sp,32
ffffffff80400ebc:	fea43423          	sd	a0,-24(s0)
ffffffff80400ec0:	fe843503          	ld	a0,-24(s0)
ffffffff80400ec4:	4581                	li	a1,0
ffffffff80400ec6:	4601                	li	a2,0
ffffffff80400ec8:	4881                	li	a7,0
ffffffff80400eca:	00000073          	ecall
ffffffff80400ece:	0001                	nop
ffffffff80400ed0:	6462                	ld	s0,24(sp)
ffffffff80400ed2:	6105                	addi	sp,sp,32
ffffffff80400ed4:	8082                	ret

ffffffff80400ed6 <_panic>:
ffffffff80400ed6:	7179                	addi	sp,sp,-48
ffffffff80400ed8:	f406                	sd	ra,40(sp)
ffffffff80400eda:	f022                	sd	s0,32(sp)
ffffffff80400edc:	1800                	addi	s0,sp,48
ffffffff80400ede:	fea43423          	sd	a0,-24(s0)
ffffffff80400ee2:	87ae                	mv	a5,a1
ffffffff80400ee4:	fcc43c23          	sd	a2,-40(s0)
ffffffff80400ee8:	fef42223          	sw	a5,-28(s0)
ffffffff80400eec:	fe442783          	lw	a5,-28(s0)
ffffffff80400ef0:	86be                	mv	a3,a5
ffffffff80400ef2:	fe843603          	ld	a2,-24(s0)
ffffffff80400ef6:	fd843583          	ld	a1,-40(s0)
ffffffff80400efa:	0000c517          	auipc	a0,0xc
ffffffff80400efe:	68e50513          	addi	a0,a0,1678 # ffffffff8040d588 <get_elf_file+0x27a>
ffffffff80400f02:	05b050ef          	jal	ra,ffffffff8040675c <printk>
ffffffff80400f06:	a001                	j	ffffffff80400f06 <_panic+0x30>

ffffffff80400f08 <kva2pa>:
ffffffff80400f08:	1101                	addi	sp,sp,-32
ffffffff80400f0a:	ec22                	sd	s0,24(sp)
ffffffff80400f0c:	1000                	addi	s0,sp,32
ffffffff80400f0e:	fea43423          	sd	a0,-24(s0)
ffffffff80400f12:	fe843703          	ld	a4,-24(s0)
ffffffff80400f16:	4785                	li	a5,1
ffffffff80400f18:	1782                	slli	a5,a5,0x20
ffffffff80400f1a:	97ba                	add	a5,a5,a4
ffffffff80400f1c:	853e                	mv	a0,a5
ffffffff80400f1e:	6462                	ld	s0,24(sp)
ffffffff80400f20:	6105                	addi	sp,sp,32
ffffffff80400f22:	8082                	ret

ffffffff80400f24 <pa2kva>:
ffffffff80400f24:	1101                	addi	sp,sp,-32
ffffffff80400f26:	ec22                	sd	s0,24(sp)
ffffffff80400f28:	1000                	addi	s0,sp,32
ffffffff80400f2a:	fea43423          	sd	a0,-24(s0)
ffffffff80400f2e:	fe843703          	ld	a4,-24(s0)
ffffffff80400f32:	57fd                	li	a5,-1
ffffffff80400f34:	1782                	slli	a5,a5,0x20
ffffffff80400f36:	97ba                	add	a5,a5,a4
ffffffff80400f38:	853e                	mv	a0,a5
ffffffff80400f3a:	6462                	ld	s0,24(sp)
ffffffff80400f3c:	6105                	addi	sp,sp,32
ffffffff80400f3e:	8082                	ret

ffffffff80400f40 <get_pfn>:
ffffffff80400f40:	1101                	addi	sp,sp,-32
ffffffff80400f42:	ec22                	sd	s0,24(sp)
ffffffff80400f44:	1000                	addi	s0,sp,32
ffffffff80400f46:	fea43423          	sd	a0,-24(s0)
ffffffff80400f4a:	fe843783          	ld	a5,-24(s0)
ffffffff80400f4e:	83a9                	srli	a5,a5,0xa
ffffffff80400f50:	853e                	mv	a0,a5
ffffffff80400f52:	6462                	ld	s0,24(sp)
ffffffff80400f54:	6105                	addi	sp,sp,32
ffffffff80400f56:	8082                	ret

ffffffff80400f58 <set_pfn>:
ffffffff80400f58:	1101                	addi	sp,sp,-32
ffffffff80400f5a:	ec22                	sd	s0,24(sp)
ffffffff80400f5c:	1000                	addi	s0,sp,32
ffffffff80400f5e:	fea43423          	sd	a0,-24(s0)
ffffffff80400f62:	feb43023          	sd	a1,-32(s0)
ffffffff80400f66:	fe843783          	ld	a5,-24(s0)
ffffffff80400f6a:	639c                	ld	a5,0(a5)
ffffffff80400f6c:	3ff7f713          	andi	a4,a5,1023
ffffffff80400f70:	fe043783          	ld	a5,-32(s0)
ffffffff80400f74:	07aa                	slli	a5,a5,0xa
ffffffff80400f76:	8f5d                	or	a4,a4,a5
ffffffff80400f78:	fe843783          	ld	a5,-24(s0)
ffffffff80400f7c:	e398                	sd	a4,0(a5)
ffffffff80400f7e:	0001                	nop
ffffffff80400f80:	6462                	ld	s0,24(sp)
ffffffff80400f82:	6105                	addi	sp,sp,32
ffffffff80400f84:	8082                	ret

ffffffff80400f86 <get_attribute>:
ffffffff80400f86:	1101                	addi	sp,sp,-32
ffffffff80400f88:	ec22                	sd	s0,24(sp)
ffffffff80400f8a:	1000                	addi	s0,sp,32
ffffffff80400f8c:	fea43423          	sd	a0,-24(s0)
ffffffff80400f90:	feb43023          	sd	a1,-32(s0)
ffffffff80400f94:	fe843703          	ld	a4,-24(s0)
ffffffff80400f98:	fe043783          	ld	a5,-32(s0)
ffffffff80400f9c:	8ff9                	and	a5,a5,a4
ffffffff80400f9e:	853e                	mv	a0,a5
ffffffff80400fa0:	6462                	ld	s0,24(sp)
ffffffff80400fa2:	6105                	addi	sp,sp,32
ffffffff80400fa4:	8082                	ret

ffffffff80400fa6 <set_attribute>:
ffffffff80400fa6:	1101                	addi	sp,sp,-32
ffffffff80400fa8:	ec22                	sd	s0,24(sp)
ffffffff80400faa:	1000                	addi	s0,sp,32
ffffffff80400fac:	fea43423          	sd	a0,-24(s0)
ffffffff80400fb0:	feb43023          	sd	a1,-32(s0)
ffffffff80400fb4:	fe843783          	ld	a5,-24(s0)
ffffffff80400fb8:	6398                	ld	a4,0(a5)
ffffffff80400fba:	fe043783          	ld	a5,-32(s0)
ffffffff80400fbe:	8f5d                	or	a4,a4,a5
ffffffff80400fc0:	fe843783          	ld	a5,-24(s0)
ffffffff80400fc4:	e398                	sd	a4,0(a5)
ffffffff80400fc6:	0001                	nop
ffffffff80400fc8:	6462                	ld	s0,24(sp)
ffffffff80400fca:	6105                	addi	sp,sp,32
ffffffff80400fcc:	8082                	ret

ffffffff80400fce <clear_attribute>:
ffffffff80400fce:	1101                	addi	sp,sp,-32
ffffffff80400fd0:	ec22                	sd	s0,24(sp)
ffffffff80400fd2:	1000                	addi	s0,sp,32
ffffffff80400fd4:	fea43423          	sd	a0,-24(s0)
ffffffff80400fd8:	feb43023          	sd	a1,-32(s0)
ffffffff80400fdc:	fe843783          	ld	a5,-24(s0)
ffffffff80400fe0:	6398                	ld	a4,0(a5)
ffffffff80400fe2:	fe043783          	ld	a5,-32(s0)
ffffffff80400fe6:	fff7c793          	not	a5,a5
ffffffff80400fea:	8f7d                	and	a4,a4,a5
ffffffff80400fec:	fe843783          	ld	a5,-24(s0)
ffffffff80400ff0:	e398                	sd	a4,0(a5)
ffffffff80400ff2:	0001                	nop
ffffffff80400ff4:	6462                	ld	s0,24(sp)
ffffffff80400ff6:	6105                	addi	sp,sp,32
ffffffff80400ff8:	8082                	ret

ffffffff80400ffa <clear_pgdir>:
ffffffff80400ffa:	7179                	addi	sp,sp,-48
ffffffff80400ffc:	f422                	sd	s0,40(sp)
ffffffff80400ffe:	1800                	addi	s0,sp,48
ffffffff80401000:	fca43c23          	sd	a0,-40(s0)
ffffffff80401004:	fd843783          	ld	a5,-40(s0)
ffffffff80401008:	fef43423          	sd	a5,-24(s0)
ffffffff8040100c:	fe042223          	sw	zero,-28(s0)
ffffffff80401010:	a839                	j	ffffffff8040102e <clear_pgdir+0x34>
ffffffff80401012:	fe843783          	ld	a5,-24(s0)
ffffffff80401016:	0007b023          	sd	zero,0(a5)
ffffffff8040101a:	fe843783          	ld	a5,-24(s0)
ffffffff8040101e:	07a1                	addi	a5,a5,8
ffffffff80401020:	fef43423          	sd	a5,-24(s0)
ffffffff80401024:	fe442783          	lw	a5,-28(s0)
ffffffff80401028:	2785                	addiw	a5,a5,1
ffffffff8040102a:	fef42223          	sw	a5,-28(s0)
ffffffff8040102e:	fe442783          	lw	a5,-28(s0)
ffffffff80401032:	0007871b          	sext.w	a4,a5
ffffffff80401036:	1ff00793          	li	a5,511
ffffffff8040103a:	fce7dce3          	bge	a5,a4,ffffffff80401012 <clear_pgdir+0x18>
ffffffff8040103e:	0001                	nop
ffffffff80401040:	7422                	ld	s0,40(sp)
ffffffff80401042:	6145                	addi	sp,sp,48
ffffffff80401044:	8082                	ret

ffffffff80401046 <reset_irq_timer>:
ffffffff80401046:	1141                	addi	sp,sp,-16
ffffffff80401048:	e406                	sd	ra,8(sp)
ffffffff8040104a:	e022                	sd	s0,0(sp)
ffffffff8040104c:	0800                	addi	s0,sp,16
ffffffff8040104e:	125020ef          	jal	ra,ffffffff80403972 <timer_check>
ffffffff80401052:	40b020ef          	jal	ra,ffffffff80403c5c <get_ticks>
ffffffff80401056:	872a                	mv	a4,a0
ffffffff80401058:	00017797          	auipc	a5,0x17
ffffffff8040105c:	63878793          	addi	a5,a5,1592 # ffffffff80418690 <time_base>
ffffffff80401060:	439c                	lw	a5,0(a5)
ffffffff80401062:	86be                	mv	a3,a5
ffffffff80401064:	0c800793          	li	a5,200
ffffffff80401068:	02f6d7bb          	divuw	a5,a3,a5
ffffffff8040106c:	2781                	sext.w	a5,a5
ffffffff8040106e:	1782                	slli	a5,a5,0x20
ffffffff80401070:	9381                	srli	a5,a5,0x20
ffffffff80401072:	97ba                	add	a5,a5,a4
ffffffff80401074:	853e                	mv	a0,a5
ffffffff80401076:	e41ff0ef          	jal	ra,ffffffff80400eb6 <sbi_set_timer>
ffffffff8040107a:	1d1010ef          	jal	ra,ffffffff80402a4a <do_scheduler>
ffffffff8040107e:	0001                	nop
ffffffff80401080:	60a2                	ld	ra,8(sp)
ffffffff80401082:	6402                	ld	s0,0(sp)
ffffffff80401084:	0141                	addi	sp,sp,16
ffffffff80401086:	8082                	ret

ffffffff80401088 <interrupt_helper>:
ffffffff80401088:	7139                	addi	sp,sp,-64
ffffffff8040108a:	fc06                	sd	ra,56(sp)
ffffffff8040108c:	f822                	sd	s0,48(sp)
ffffffff8040108e:	0080                	addi	s0,sp,64
ffffffff80401090:	fca43c23          	sd	a0,-40(s0)
ffffffff80401094:	fcb43823          	sd	a1,-48(s0)
ffffffff80401098:	fcc43423          	sd	a2,-56(s0)
ffffffff8040109c:	fcd43023          	sd	a3,-64(s0)
ffffffff804010a0:	373020ef          	jal	ra,ffffffff80403c12 <user_time_count>
ffffffff804010a4:	fc843783          	ld	a5,-56(s0)
ffffffff804010a8:	93fd                	srli	a5,a5,0x3f
ffffffff804010aa:	fef42623          	sw	a5,-20(s0)
ffffffff804010ae:	fec42783          	lw	a5,-20(s0)
ffffffff804010b2:	2781                	sext.w	a5,a5
ffffffff804010b4:	00f037b3          	snez	a5,a5
ffffffff804010b8:	0ff7f793          	andi	a5,a5,255
ffffffff804010bc:	fef42623          	sw	a5,-20(s0)
ffffffff804010c0:	fc843783          	ld	a5,-56(s0)
ffffffff804010c4:	fef42423          	sw	a5,-24(s0)
ffffffff804010c8:	fec42783          	lw	a5,-20(s0)
ffffffff804010cc:	2781                	sext.w	a5,a5
ffffffff804010ce:	c39d                	beqz	a5,ffffffff804010f4 <interrupt_helper+0x6c>
ffffffff804010d0:	0001e717          	auipc	a4,0x1e
ffffffff804010d4:	fc870713          	addi	a4,a4,-56 # ffffffff8041f098 <irq_table>
ffffffff804010d8:	fe842783          	lw	a5,-24(s0)
ffffffff804010dc:	078e                	slli	a5,a5,0x3
ffffffff804010de:	97ba                	add	a5,a5,a4
ffffffff804010e0:	6398                	ld	a4,0(a5)
ffffffff804010e2:	fe842783          	lw	a5,-24(s0)
ffffffff804010e6:	863e                	mv	a2,a5
ffffffff804010e8:	fd043583          	ld	a1,-48(s0)
ffffffff804010ec:	fd843503          	ld	a0,-40(s0)
ffffffff804010f0:	9702                	jalr	a4
ffffffff804010f2:	a015                	j	ffffffff80401116 <interrupt_helper+0x8e>
ffffffff804010f4:	0001e717          	auipc	a4,0x1e
ffffffff804010f8:	f1c70713          	addi	a4,a4,-228 # ffffffff8041f010 <exc_table>
ffffffff804010fc:	fe842783          	lw	a5,-24(s0)
ffffffff80401100:	078e                	slli	a5,a5,0x3
ffffffff80401102:	97ba                	add	a5,a5,a4
ffffffff80401104:	6398                	ld	a4,0(a5)
ffffffff80401106:	fe842783          	lw	a5,-24(s0)
ffffffff8040110a:	863e                	mv	a2,a5
ffffffff8040110c:	fd043583          	ld	a1,-48(s0)
ffffffff80401110:	fd843503          	ld	a0,-40(s0)
ffffffff80401114:	9702                	jalr	a4
ffffffff80401116:	2b3020ef          	jal	ra,ffffffff80403bc8 <kernel_time_count>
ffffffff8040111a:	0001                	nop
ffffffff8040111c:	70e2                	ld	ra,56(sp)
ffffffff8040111e:	7442                	ld	s0,48(sp)
ffffffff80401120:	6121                	addi	sp,sp,64
ffffffff80401122:	8082                	ret

ffffffff80401124 <handle_int>:
ffffffff80401124:	7179                	addi	sp,sp,-48
ffffffff80401126:	f406                	sd	ra,40(sp)
ffffffff80401128:	f022                	sd	s0,32(sp)
ffffffff8040112a:	1800                	addi	s0,sp,48
ffffffff8040112c:	fea43423          	sd	a0,-24(s0)
ffffffff80401130:	feb43023          	sd	a1,-32(s0)
ffffffff80401134:	fcc43c23          	sd	a2,-40(s0)
ffffffff80401138:	f0fff0ef          	jal	ra,ffffffff80401046 <reset_irq_timer>
ffffffff8040113c:	0001                	nop
ffffffff8040113e:	70a2                	ld	ra,40(sp)
ffffffff80401140:	7402                	ld	s0,32(sp)
ffffffff80401142:	6145                	addi	sp,sp,48
ffffffff80401144:	8082                	ret

ffffffff80401146 <init_exception>:
ffffffff80401146:	1141                	addi	sp,sp,-16
ffffffff80401148:	e422                	sd	s0,8(sp)
ffffffff8040114a:	0800                	addi	s0,sp,16
ffffffff8040114c:	0001e797          	auipc	a5,0x1e
ffffffff80401150:	f4c78793          	addi	a5,a5,-180 # ffffffff8041f098 <irq_table>
ffffffff80401154:	00000717          	auipc	a4,0x0
ffffffff80401158:	56270713          	addi	a4,a4,1378 # ffffffff804016b6 <handle_software>
ffffffff8040115c:	e398                	sd	a4,0(a5)
ffffffff8040115e:	0001e797          	auipc	a5,0x1e
ffffffff80401162:	f3a78793          	addi	a5,a5,-198 # ffffffff8041f098 <irq_table>
ffffffff80401166:	00000717          	auipc	a4,0x0
ffffffff8040116a:	55070713          	addi	a4,a4,1360 # ffffffff804016b6 <handle_software>
ffffffff8040116e:	e798                	sd	a4,8(a5)
ffffffff80401170:	0001e797          	auipc	a5,0x1e
ffffffff80401174:	f2878793          	addi	a5,a5,-216 # ffffffff8041f098 <irq_table>
ffffffff80401178:	00000717          	auipc	a4,0x0
ffffffff8040117c:	53e70713          	addi	a4,a4,1342 # ffffffff804016b6 <handle_software>
ffffffff80401180:	ef98                	sd	a4,24(a5)
ffffffff80401182:	0001e797          	auipc	a5,0x1e
ffffffff80401186:	f1678793          	addi	a5,a5,-234 # ffffffff8041f098 <irq_table>
ffffffff8040118a:	00000717          	auipc	a4,0x0
ffffffff8040118e:	54270713          	addi	a4,a4,1346 # ffffffff804016cc <handle_other>
ffffffff80401192:	f398                	sd	a4,32(a5)
ffffffff80401194:	0001e797          	auipc	a5,0x1e
ffffffff80401198:	f0478793          	addi	a5,a5,-252 # ffffffff8041f098 <irq_table>
ffffffff8040119c:	00000717          	auipc	a4,0x0
ffffffff804011a0:	f8870713          	addi	a4,a4,-120 # ffffffff80401124 <handle_int>
ffffffff804011a4:	f798                	sd	a4,40(a5)
ffffffff804011a6:	0001e797          	auipc	a5,0x1e
ffffffff804011aa:	ef278793          	addi	a5,a5,-270 # ffffffff8041f098 <irq_table>
ffffffff804011ae:	00000717          	auipc	a4,0x0
ffffffff804011b2:	51e70713          	addi	a4,a4,1310 # ffffffff804016cc <handle_other>
ffffffff804011b6:	ff98                	sd	a4,56(a5)
ffffffff804011b8:	0001e797          	auipc	a5,0x1e
ffffffff804011bc:	ee078793          	addi	a5,a5,-288 # ffffffff8041f098 <irq_table>
ffffffff804011c0:	00000717          	auipc	a4,0x0
ffffffff804011c4:	50c70713          	addi	a4,a4,1292 # ffffffff804016cc <handle_other>
ffffffff804011c8:	e3b8                	sd	a4,64(a5)
ffffffff804011ca:	0001e797          	auipc	a5,0x1e
ffffffff804011ce:	ece78793          	addi	a5,a5,-306 # ffffffff8041f098 <irq_table>
ffffffff804011d2:	00000717          	auipc	a4,0x0
ffffffff804011d6:	0c670713          	addi	a4,a4,198 # ffffffff80401298 <handle_sext>
ffffffff804011da:	e7b8                	sd	a4,72(a5)
ffffffff804011dc:	0001e797          	auipc	a5,0x1e
ffffffff804011e0:	ebc78793          	addi	a5,a5,-324 # ffffffff8041f098 <irq_table>
ffffffff804011e4:	00000717          	auipc	a4,0x0
ffffffff804011e8:	4e870713          	addi	a4,a4,1256 # ffffffff804016cc <handle_other>
ffffffff804011ec:	efb8                	sd	a4,88(a5)
ffffffff804011ee:	0001e797          	auipc	a5,0x1e
ffffffff804011f2:	e2278793          	addi	a5,a5,-478 # ffffffff8041f010 <exc_table>
ffffffff804011f6:	00005717          	auipc	a4,0x5
ffffffff804011fa:	8e070713          	addi	a4,a4,-1824 # ffffffff80405ad6 <handle_syscall>
ffffffff804011fe:	e3b8                	sd	a4,64(a5)
ffffffff80401200:	0001e797          	auipc	a5,0x1e
ffffffff80401204:	e1078793          	addi	a5,a5,-496 # ffffffff8041f010 <exc_table>
ffffffff80401208:	00000717          	auipc	a4,0x0
ffffffff8040120c:	4c470713          	addi	a4,a4,1220 # ffffffff804016cc <handle_other>
ffffffff80401210:	e398                	sd	a4,0(a5)
ffffffff80401212:	0001e797          	auipc	a5,0x1e
ffffffff80401216:	dfe78793          	addi	a5,a5,-514 # ffffffff8041f010 <exc_table>
ffffffff8040121a:	00000717          	auipc	a4,0x0
ffffffff8040121e:	4b270713          	addi	a4,a4,1202 # ffffffff804016cc <handle_other>
ffffffff80401222:	e798                	sd	a4,8(a5)
ffffffff80401224:	0001e797          	auipc	a5,0x1e
ffffffff80401228:	dec78793          	addi	a5,a5,-532 # ffffffff8041f010 <exc_table>
ffffffff8040122c:	00000717          	auipc	a4,0x0
ffffffff80401230:	4a070713          	addi	a4,a4,1184 # ffffffff804016cc <handle_other>
ffffffff80401234:	ef98                	sd	a4,24(a5)
ffffffff80401236:	0001e797          	auipc	a5,0x1e
ffffffff8040123a:	dda78793          	addi	a5,a5,-550 # ffffffff8041f010 <exc_table>
ffffffff8040123e:	00000717          	auipc	a4,0x0
ffffffff80401242:	07470713          	addi	a4,a4,116 # ffffffff804012b2 <handle_pgfault>
ffffffff80401246:	f798                	sd	a4,40(a5)
ffffffff80401248:	0001e797          	auipc	a5,0x1e
ffffffff8040124c:	dc878793          	addi	a5,a5,-568 # ffffffff8041f010 <exc_table>
ffffffff80401250:	00000717          	auipc	a4,0x0
ffffffff80401254:	06270713          	addi	a4,a4,98 # ffffffff804012b2 <handle_pgfault>
ffffffff80401258:	ff98                	sd	a4,56(a5)
ffffffff8040125a:	0001e797          	auipc	a5,0x1e
ffffffff8040125e:	db678793          	addi	a5,a5,-586 # ffffffff8041f010 <exc_table>
ffffffff80401262:	00000717          	auipc	a4,0x0
ffffffff80401266:	05070713          	addi	a4,a4,80 # ffffffff804012b2 <handle_pgfault>
ffffffff8040126a:	f3b8                	sd	a4,96(a5)
ffffffff8040126c:	0001e797          	auipc	a5,0x1e
ffffffff80401270:	da478793          	addi	a5,a5,-604 # ffffffff8041f010 <exc_table>
ffffffff80401274:	00000717          	auipc	a4,0x0
ffffffff80401278:	03e70713          	addi	a4,a4,62 # ffffffff804012b2 <handle_pgfault>
ffffffff8040127c:	f7b8                	sd	a4,104(a5)
ffffffff8040127e:	0001e797          	auipc	a5,0x1e
ffffffff80401282:	d9278793          	addi	a5,a5,-622 # ffffffff8041f010 <exc_table>
ffffffff80401286:	00000717          	auipc	a4,0x0
ffffffff8040128a:	02c70713          	addi	a4,a4,44 # ffffffff804012b2 <handle_pgfault>
ffffffff8040128e:	ffb8                	sd	a4,120(a5)
ffffffff80401290:	0001                	nop
ffffffff80401292:	6422                	ld	s0,8(sp)
ffffffff80401294:	0141                	addi	sp,sp,16
ffffffff80401296:	8082                	ret

ffffffff80401298 <handle_sext>:
ffffffff80401298:	7179                	addi	sp,sp,-48
ffffffff8040129a:	f422                	sd	s0,40(sp)
ffffffff8040129c:	1800                	addi	s0,sp,48
ffffffff8040129e:	fea43423          	sd	a0,-24(s0)
ffffffff804012a2:	feb43023          	sd	a1,-32(s0)
ffffffff804012a6:	fcc43c23          	sd	a2,-40(s0)
ffffffff804012aa:	0001                	nop
ffffffff804012ac:	7422                	ld	s0,40(sp)
ffffffff804012ae:	6145                	addi	sp,sp,48
ffffffff804012b0:	8082                	ret

ffffffff804012b2 <handle_pgfault>:
ffffffff804012b2:	7131                	addi	sp,sp,-192
ffffffff804012b4:	fd06                	sd	ra,184(sp)
ffffffff804012b6:	f922                	sd	s0,176(sp)
ffffffff804012b8:	0180                	addi	s0,sp,192
ffffffff804012ba:	f4a43c23          	sd	a0,-168(s0)
ffffffff804012be:	f4b43823          	sd	a1,-176(s0)
ffffffff804012c2:	f4c43423          	sd	a2,-184(s0)
ffffffff804012c6:	f5043703          	ld	a4,-176(s0)
ffffffff804012ca:	57fd                	li	a5,-1
ffffffff804012cc:	1782                	slli	a5,a5,0x20
ffffffff804012ce:	00f77763          	bgeu	a4,a5,ffffffff804012dc <handle_pgfault+0x2a>
ffffffff804012d2:	f5043703          	ld	a4,-176(s0)
ffffffff804012d6:	6785                	lui	a5,0x1
ffffffff804012d8:	00f77a63          	bgeu	a4,a5,ffffffff804012ec <handle_pgfault+0x3a>
ffffffff804012dc:	f4843603          	ld	a2,-184(s0)
ffffffff804012e0:	f5043583          	ld	a1,-176(s0)
ffffffff804012e4:	f5843503          	ld	a0,-168(s0)
ffffffff804012e8:	3e4000ef          	jal	ra,ffffffff804016cc <handle_other>
ffffffff804012ec:	f9dfe0ef          	jal	ra,ffffffff80400288 <read_satp>
ffffffff804012f0:	fca43c23          	sd	a0,-40(s0)
ffffffff804012f4:	f5043783          	ld	a5,-176(s0)
ffffffff804012f8:	fcf43823          	sd	a5,-48(s0)
ffffffff804012fc:	fd843783          	ld	a5,-40(s0)
ffffffff80401300:	00c79713          	slli	a4,a5,0xc
ffffffff80401304:	fff007b7          	lui	a5,0xfff00
ffffffff80401308:	83a1                	srli	a5,a5,0x8
ffffffff8040130a:	8ff9                	and	a5,a5,a4
ffffffff8040130c:	fcf43423          	sd	a5,-56(s0)
ffffffff80401310:	fd043783          	ld	a5,-48(s0)
ffffffff80401314:	83f9                	srli	a5,a5,0x1e
ffffffff80401316:	1ff7f793          	andi	a5,a5,511
ffffffff8040131a:	fcf43023          	sd	a5,-64(s0)
ffffffff8040131e:	fd043783          	ld	a5,-48(s0)
ffffffff80401322:	83d5                	srli	a5,a5,0x15
ffffffff80401324:	1ff7f793          	andi	a5,a5,511
ffffffff80401328:	faf43c23          	sd	a5,-72(s0)
ffffffff8040132c:	fd043783          	ld	a5,-48(s0)
ffffffff80401330:	83b1                	srli	a5,a5,0xc
ffffffff80401332:	1ff7f793          	andi	a5,a5,511
ffffffff80401336:	faf43823          	sd	a5,-80(s0)
ffffffff8040133a:	fc843503          	ld	a0,-56(s0)
ffffffff8040133e:	be7ff0ef          	jal	ra,ffffffff80400f24 <pa2kva>
ffffffff80401342:	872a                	mv	a4,a0
ffffffff80401344:	fc043783          	ld	a5,-64(s0)
ffffffff80401348:	078e                	slli	a5,a5,0x3
ffffffff8040134a:	97ba                	add	a5,a5,a4
ffffffff8040134c:	fef43423          	sd	a5,-24(s0)
ffffffff80401350:	fe843783          	ld	a5,-24(s0)
ffffffff80401354:	639c                	ld	a5,0(a5)
ffffffff80401356:	4585                	li	a1,1
ffffffff80401358:	853e                	mv	a0,a5
ffffffff8040135a:	c2dff0ef          	jal	ra,ffffffff80400f86 <get_attribute>
ffffffff8040135e:	87aa                	mv	a5,a0
ffffffff80401360:	ebb9                	bnez	a5,ffffffff804013b6 <handle_pgfault+0x104>
ffffffff80401362:	773020ef          	jal	ra,ffffffff804042d4 <allocPage>
ffffffff80401366:	faa43423          	sd	a0,-88(s0)
ffffffff8040136a:	fa843503          	ld	a0,-88(s0)
ffffffff8040136e:	c8dff0ef          	jal	ra,ffffffff80400ffa <clear_pgdir>
ffffffff80401372:	fa843503          	ld	a0,-88(s0)
ffffffff80401376:	b93ff0ef          	jal	ra,ffffffff80400f08 <kva2pa>
ffffffff8040137a:	87aa                	mv	a5,a0
ffffffff8040137c:	00c7d713          	srli	a4,a5,0xc
ffffffff80401380:	080007b7          	lui	a5,0x8000
ffffffff80401384:	17fd                	addi	a5,a5,-1
ffffffff80401386:	8ff9                	and	a5,a5,a4
ffffffff80401388:	faf43023          	sd	a5,-96(s0)
ffffffff8040138c:	fa043583          	ld	a1,-96(s0)
ffffffff80401390:	fe843503          	ld	a0,-24(s0)
ffffffff80401394:	bc5ff0ef          	jal	ra,ffffffff80400f58 <set_pfn>
ffffffff80401398:	45c5                	li	a1,17
ffffffff8040139a:	fe843503          	ld	a0,-24(s0)
ffffffff8040139e:	c09ff0ef          	jal	ra,ffffffff80400fa6 <set_attribute>
ffffffff804013a2:	fb843783          	ld	a5,-72(s0)
ffffffff804013a6:	00379713          	slli	a4,a5,0x3
ffffffff804013aa:	fa843783          	ld	a5,-88(s0)
ffffffff804013ae:	97ba                	add	a5,a5,a4
ffffffff804013b0:	fef43423          	sd	a5,-24(s0)
ffffffff804013b4:	a01d                	j	ffffffff804013da <handle_pgfault+0x128>
ffffffff804013b6:	fe843783          	ld	a5,-24(s0)
ffffffff804013ba:	639c                	ld	a5,0(a5)
ffffffff804013bc:	853e                	mv	a0,a5
ffffffff804013be:	b83ff0ef          	jal	ra,ffffffff80400f40 <get_pfn>
ffffffff804013c2:	87aa                	mv	a5,a0
ffffffff804013c4:	07b2                	slli	a5,a5,0xc
ffffffff804013c6:	853e                	mv	a0,a5
ffffffff804013c8:	b5dff0ef          	jal	ra,ffffffff80400f24 <pa2kva>
ffffffff804013cc:	872a                	mv	a4,a0
ffffffff804013ce:	fb843783          	ld	a5,-72(s0)
ffffffff804013d2:	078e                	slli	a5,a5,0x3
ffffffff804013d4:	97ba                	add	a5,a5,a4
ffffffff804013d6:	fef43423          	sd	a5,-24(s0)
ffffffff804013da:	fe843783          	ld	a5,-24(s0)
ffffffff804013de:	639c                	ld	a5,0(a5)
ffffffff804013e0:	4585                	li	a1,1
ffffffff804013e2:	853e                	mv	a0,a5
ffffffff804013e4:	ba3ff0ef          	jal	ra,ffffffff80400f86 <get_attribute>
ffffffff804013e8:	87aa                	mv	a5,a0
ffffffff804013ea:	ebb9                	bnez	a5,ffffffff80401440 <handle_pgfault+0x18e>
ffffffff804013ec:	6e9020ef          	jal	ra,ffffffff804042d4 <allocPage>
ffffffff804013f0:	f8a43c23          	sd	a0,-104(s0)
ffffffff804013f4:	f9843503          	ld	a0,-104(s0)
ffffffff804013f8:	c03ff0ef          	jal	ra,ffffffff80400ffa <clear_pgdir>
ffffffff804013fc:	f9843503          	ld	a0,-104(s0)
ffffffff80401400:	b09ff0ef          	jal	ra,ffffffff80400f08 <kva2pa>
ffffffff80401404:	87aa                	mv	a5,a0
ffffffff80401406:	00c7d713          	srli	a4,a5,0xc
ffffffff8040140a:	080007b7          	lui	a5,0x8000
ffffffff8040140e:	17fd                	addi	a5,a5,-1
ffffffff80401410:	8ff9                	and	a5,a5,a4
ffffffff80401412:	f8f43823          	sd	a5,-112(s0)
ffffffff80401416:	f9043583          	ld	a1,-112(s0)
ffffffff8040141a:	fe843503          	ld	a0,-24(s0)
ffffffff8040141e:	b3bff0ef          	jal	ra,ffffffff80400f58 <set_pfn>
ffffffff80401422:	45c5                	li	a1,17
ffffffff80401424:	fe843503          	ld	a0,-24(s0)
ffffffff80401428:	b7fff0ef          	jal	ra,ffffffff80400fa6 <set_attribute>
ffffffff8040142c:	fb043783          	ld	a5,-80(s0)
ffffffff80401430:	00379713          	slli	a4,a5,0x3
ffffffff80401434:	f9843783          	ld	a5,-104(s0)
ffffffff80401438:	97ba                	add	a5,a5,a4
ffffffff8040143a:	fef43423          	sd	a5,-24(s0)
ffffffff8040143e:	a01d                	j	ffffffff80401464 <handle_pgfault+0x1b2>
ffffffff80401440:	fe843783          	ld	a5,-24(s0)
ffffffff80401444:	639c                	ld	a5,0(a5)
ffffffff80401446:	853e                	mv	a0,a5
ffffffff80401448:	af9ff0ef          	jal	ra,ffffffff80400f40 <get_pfn>
ffffffff8040144c:	87aa                	mv	a5,a0
ffffffff8040144e:	07b2                	slli	a5,a5,0xc
ffffffff80401450:	853e                	mv	a0,a5
ffffffff80401452:	ad3ff0ef          	jal	ra,ffffffff80400f24 <pa2kva>
ffffffff80401456:	872a                	mv	a4,a0
ffffffff80401458:	fb043783          	ld	a5,-80(s0)
ffffffff8040145c:	078e                	slli	a5,a5,0x3
ffffffff8040145e:	97ba                	add	a5,a5,a4
ffffffff80401460:	fef43423          	sd	a5,-24(s0)
ffffffff80401464:	fe843783          	ld	a5,-24(s0)
ffffffff80401468:	639c                	ld	a5,0(a5)
ffffffff8040146a:	4585                	li	a1,1
ffffffff8040146c:	853e                	mv	a0,a5
ffffffff8040146e:	b19ff0ef          	jal	ra,ffffffff80400f86 <get_attribute>
ffffffff80401472:	87aa                	mv	a5,a0
ffffffff80401474:	12079c63          	bnez	a5,ffffffff804015ac <handle_pgfault+0x2fa>
ffffffff80401478:	fe843783          	ld	a5,-24(s0)
ffffffff8040147c:	639c                	ld	a5,0(a5)
ffffffff8040147e:	10000593          	li	a1,256
ffffffff80401482:	853e                	mv	a0,a5
ffffffff80401484:	b03ff0ef          	jal	ra,ffffffff80400f86 <get_attribute>
ffffffff80401488:	87aa                	mv	a5,a0
ffffffff8040148a:	eb8d                	bnez	a5,ffffffff804014bc <handle_pgfault+0x20a>
ffffffff8040148c:	649020ef          	jal	ra,ffffffff804042d4 <allocPage>
ffffffff80401490:	f8a43423          	sd	a0,-120(s0)
ffffffff80401494:	f8843503          	ld	a0,-120(s0)
ffffffff80401498:	a71ff0ef          	jal	ra,ffffffff80400f08 <kva2pa>
ffffffff8040149c:	87aa                	mv	a5,a0
ffffffff8040149e:	00c7d713          	srli	a4,a5,0xc
ffffffff804014a2:	080007b7          	lui	a5,0x8000
ffffffff804014a6:	17fd                	addi	a5,a5,-1
ffffffff804014a8:	8ff9                	and	a5,a5,a4
ffffffff804014aa:	f8f43023          	sd	a5,-128(s0)
ffffffff804014ae:	f8043583          	ld	a1,-128(s0)
ffffffff804014b2:	fe843503          	ld	a0,-24(s0)
ffffffff804014b6:	aa3ff0ef          	jal	ra,ffffffff80400f58 <set_pfn>
ffffffff804014ba:	a8e9                	j	ffffffff80401594 <handle_pgfault+0x2e2>
ffffffff804014bc:	fe843783          	ld	a5,-24(s0)
ffffffff804014c0:	639c                	ld	a5,0(a5)
ffffffff804014c2:	853e                	mv	a0,a5
ffffffff804014c4:	a7dff0ef          	jal	ra,ffffffff80400f40 <get_pfn>
ffffffff804014c8:	87aa                	mv	a5,a0
ffffffff804014ca:	07b2                	slli	a5,a5,0xc
ffffffff804014cc:	853e                	mv	a0,a5
ffffffff804014ce:	a57ff0ef          	jal	ra,ffffffff80400f24 <pa2kva>
ffffffff804014d2:	f6a43c23          	sd	a0,-136(s0)
ffffffff804014d6:	0000d797          	auipc	a5,0xd
ffffffff804014da:	1ea78793          	addi	a5,a5,490 # ffffffff8040e6c0 <swapPageList>
ffffffff804014de:	639c                	ld	a5,0(a5)
ffffffff804014e0:	fef43023          	sd	a5,-32(s0)
ffffffff804014e4:	a045                	j	ffffffff80401584 <handle_pgfault+0x2d2>
ffffffff804014e6:	fe043783          	ld	a5,-32(s0)
ffffffff804014ea:	6b9c                	ld	a5,16(a5)
ffffffff804014ec:	f6f43823          	sd	a5,-144(s0)
ffffffff804014f0:	f7043783          	ld	a5,-144(s0)
ffffffff804014f4:	679c                	ld	a5,8(a5)
ffffffff804014f6:	f7843703          	ld	a4,-136(s0)
ffffffff804014fa:	08f71063          	bne	a4,a5,ffffffff8040157a <handle_pgfault+0x2c8>
ffffffff804014fe:	5d7020ef          	jal	ra,ffffffff804042d4 <allocPage>
ffffffff80401502:	f6a43423          	sd	a0,-152(s0)
ffffffff80401506:	f6843503          	ld	a0,-152(s0)
ffffffff8040150a:	af1ff0ef          	jal	ra,ffffffff80400ffa <clear_pgdir>
ffffffff8040150e:	f6843503          	ld	a0,-152(s0)
ffffffff80401512:	9f7ff0ef          	jal	ra,ffffffff80400f08 <kva2pa>
ffffffff80401516:	87aa                	mv	a5,a0
ffffffff80401518:	0007871b          	sext.w	a4,a5
ffffffff8040151c:	f7043783          	ld	a5,-144(s0)
ffffffff80401520:	439c                	lw	a5,0(a5)
ffffffff80401522:	863e                	mv	a2,a5
ffffffff80401524:	45a1                	li	a1,8
ffffffff80401526:	853a                	mv	a0,a4
ffffffff80401528:	951ff0ef          	jal	ra,ffffffff80400e78 <sbi_sd_read>
ffffffff8040152c:	f6843503          	ld	a0,-152(s0)
ffffffff80401530:	9d9ff0ef          	jal	ra,ffffffff80400f08 <kva2pa>
ffffffff80401534:	87aa                	mv	a5,a0
ffffffff80401536:	00c7d713          	srli	a4,a5,0xc
ffffffff8040153a:	080007b7          	lui	a5,0x8000
ffffffff8040153e:	17fd                	addi	a5,a5,-1
ffffffff80401540:	8ff9                	and	a5,a5,a4
ffffffff80401542:	85be                	mv	a1,a5
ffffffff80401544:	fe843503          	ld	a0,-24(s0)
ffffffff80401548:	a11ff0ef          	jal	ra,ffffffff80400f58 <set_pfn>
ffffffff8040154c:	10000593          	li	a1,256
ffffffff80401550:	fe843503          	ld	a0,-24(s0)
ffffffff80401554:	a7bff0ef          	jal	ra,ffffffff80400fce <clear_attribute>
ffffffff80401558:	f7043783          	ld	a5,-144(s0)
ffffffff8040155c:	07c1                	addi	a5,a5,16
ffffffff8040155e:	853e                	mv	a0,a5
ffffffff80401560:	8a1ff0ef          	jal	ra,ffffffff80400e00 <list_del>
ffffffff80401564:	f7043783          	ld	a5,-144(s0)
ffffffff80401568:	07c1                	addi	a5,a5,16
ffffffff8040156a:	0000d597          	auipc	a1,0xd
ffffffff8040156e:	16e58593          	addi	a1,a1,366 # ffffffff8040e6d8 <availableSwapSpace>
ffffffff80401572:	853e                	mv	a0,a5
ffffffff80401574:	8d7ff0ef          	jal	ra,ffffffff80400e4a <list_add_tail>
ffffffff80401578:	a831                	j	ffffffff80401594 <handle_pgfault+0x2e2>
ffffffff8040157a:	fe043783          	ld	a5,-32(s0)
ffffffff8040157e:	639c                	ld	a5,0(a5)
ffffffff80401580:	fef43023          	sd	a5,-32(s0)
ffffffff80401584:	fe043703          	ld	a4,-32(s0)
ffffffff80401588:	0000d797          	auipc	a5,0xd
ffffffff8040158c:	13878793          	addi	a5,a5,312 # ffffffff8040e6c0 <swapPageList>
ffffffff80401590:	f4f71be3          	bne	a4,a5,ffffffff804014e6 <handle_pgfault+0x234>
ffffffff80401594:	45c5                	li	a1,17
ffffffff80401596:	fe843503          	ld	a0,-24(s0)
ffffffff8040159a:	a0dff0ef          	jal	ra,ffffffff80400fa6 <set_attribute>
ffffffff8040159e:	0c600593          	li	a1,198
ffffffff804015a2:	fe843503          	ld	a0,-24(s0)
ffffffff804015a6:	a01ff0ef          	jal	ra,ffffffff80400fa6 <set_attribute>
ffffffff804015aa:	a209                	j	ffffffff804016ac <handle_pgfault+0x3fa>
ffffffff804015ac:	f4843703          	ld	a4,-184(s0)
ffffffff804015b0:	47bd                	li	a5,15
ffffffff804015b2:	02f71e63          	bne	a4,a5,ffffffff804015ee <handle_pgfault+0x33c>
ffffffff804015b6:	fe843783          	ld	a5,-24(s0)
ffffffff804015ba:	639c                	ld	a5,0(a5)
ffffffff804015bc:	4591                	li	a1,4
ffffffff804015be:	853e                	mv	a0,a5
ffffffff804015c0:	9c7ff0ef          	jal	ra,ffffffff80400f86 <get_attribute>
ffffffff804015c4:	87aa                	mv	a5,a0
ffffffff804015c6:	e785                	bnez	a5,ffffffff804015ee <handle_pgfault+0x33c>
ffffffff804015c8:	0000c517          	auipc	a0,0xc
ffffffff804015cc:	fe850513          	addi	a0,a0,-24 # ffffffff8040d5b0 <get_elf_file+0x2a2>
ffffffff804015d0:	18c050ef          	jal	ra,ffffffff8040675c <printk>
ffffffff804015d4:	0000c617          	auipc	a2,0xc
ffffffff804015d8:	26c60613          	addi	a2,a2,620 # ffffffff8040d840 <__FUNCTION__.1884>
ffffffff804015dc:	0c500593          	li	a1,197
ffffffff804015e0:	0000c517          	auipc	a0,0xc
ffffffff804015e4:	fe850513          	addi	a0,a0,-24 # ffffffff8040d5c8 <get_elf_file+0x2ba>
ffffffff804015e8:	8efff0ef          	jal	ra,ffffffff80400ed6 <_panic>
ffffffff804015ec:	a0c1                	j	ffffffff804016ac <handle_pgfault+0x3fa>
ffffffff804015ee:	f4843703          	ld	a4,-184(s0)
ffffffff804015f2:	47b5                	li	a5,13
ffffffff804015f4:	02f71e63          	bne	a4,a5,ffffffff80401630 <handle_pgfault+0x37e>
ffffffff804015f8:	fe843783          	ld	a5,-24(s0)
ffffffff804015fc:	639c                	ld	a5,0(a5)
ffffffff804015fe:	4589                	li	a1,2
ffffffff80401600:	853e                	mv	a0,a5
ffffffff80401602:	985ff0ef          	jal	ra,ffffffff80400f86 <get_attribute>
ffffffff80401606:	87aa                	mv	a5,a0
ffffffff80401608:	e785                	bnez	a5,ffffffff80401630 <handle_pgfault+0x37e>
ffffffff8040160a:	0000c517          	auipc	a0,0xc
ffffffff8040160e:	fa650513          	addi	a0,a0,-90 # ffffffff8040d5b0 <get_elf_file+0x2a2>
ffffffff80401612:	14a050ef          	jal	ra,ffffffff8040675c <printk>
ffffffff80401616:	0000c617          	auipc	a2,0xc
ffffffff8040161a:	22a60613          	addi	a2,a2,554 # ffffffff8040d840 <__FUNCTION__.1884>
ffffffff8040161e:	0c900593          	li	a1,201
ffffffff80401622:	0000c517          	auipc	a0,0xc
ffffffff80401626:	fa650513          	addi	a0,a0,-90 # ffffffff8040d5c8 <get_elf_file+0x2ba>
ffffffff8040162a:	8adff0ef          	jal	ra,ffffffff80400ed6 <_panic>
ffffffff8040162e:	a8bd                	j	ffffffff804016ac <handle_pgfault+0x3fa>
ffffffff80401630:	f4843703          	ld	a4,-184(s0)
ffffffff80401634:	47b1                	li	a5,12
ffffffff80401636:	02f71e63          	bne	a4,a5,ffffffff80401672 <handle_pgfault+0x3c0>
ffffffff8040163a:	fe843783          	ld	a5,-24(s0)
ffffffff8040163e:	639c                	ld	a5,0(a5)
ffffffff80401640:	45a1                	li	a1,8
ffffffff80401642:	853e                	mv	a0,a5
ffffffff80401644:	943ff0ef          	jal	ra,ffffffff80400f86 <get_attribute>
ffffffff80401648:	87aa                	mv	a5,a0
ffffffff8040164a:	e785                	bnez	a5,ffffffff80401672 <handle_pgfault+0x3c0>
ffffffff8040164c:	0000c517          	auipc	a0,0xc
ffffffff80401650:	f6450513          	addi	a0,a0,-156 # ffffffff8040d5b0 <get_elf_file+0x2a2>
ffffffff80401654:	108050ef          	jal	ra,ffffffff8040675c <printk>
ffffffff80401658:	0000c617          	auipc	a2,0xc
ffffffff8040165c:	1e860613          	addi	a2,a2,488 # ffffffff8040d840 <__FUNCTION__.1884>
ffffffff80401660:	0cd00593          	li	a1,205
ffffffff80401664:	0000c517          	auipc	a0,0xc
ffffffff80401668:	f6450513          	addi	a0,a0,-156 # ffffffff8040d5c8 <get_elf_file+0x2ba>
ffffffff8040166c:	86bff0ef          	jal	ra,ffffffff80400ed6 <_panic>
ffffffff80401670:	a835                	j	ffffffff804016ac <handle_pgfault+0x3fa>
ffffffff80401672:	f4843703          	ld	a4,-184(s0)
ffffffff80401676:	47b1                	li	a5,12
ffffffff80401678:	00f70763          	beq	a4,a5,ffffffff80401686 <handle_pgfault+0x3d4>
ffffffff8040167c:	f4843703          	ld	a4,-184(s0)
ffffffff80401680:	47b5                	li	a5,13
ffffffff80401682:	00f71963          	bne	a4,a5,ffffffff80401694 <handle_pgfault+0x3e2>
ffffffff80401686:	04000593          	li	a1,64
ffffffff8040168a:	fe843503          	ld	a0,-24(s0)
ffffffff8040168e:	919ff0ef          	jal	ra,ffffffff80400fa6 <set_attribute>
ffffffff80401692:	a829                	j	ffffffff804016ac <handle_pgfault+0x3fa>
ffffffff80401694:	f4843703          	ld	a4,-184(s0)
ffffffff80401698:	47bd                	li	a5,15
ffffffff8040169a:	00f71963          	bne	a4,a5,ffffffff804016ac <handle_pgfault+0x3fa>
ffffffff8040169e:	0c000593          	li	a1,192
ffffffff804016a2:	fe843503          	ld	a0,-24(s0)
ffffffff804016a6:	901ff0ef          	jal	ra,ffffffff80400fa6 <set_attribute>
ffffffff804016aa:	a009                	j	ffffffff804016ac <handle_pgfault+0x3fa>
ffffffff804016ac:	0001                	nop
ffffffff804016ae:	70ea                	ld	ra,184(sp)
ffffffff804016b0:	744a                	ld	s0,176(sp)
ffffffff804016b2:	6129                	addi	sp,sp,192
ffffffff804016b4:	8082                	ret

ffffffff804016b6 <handle_software>:
ffffffff804016b6:	1141                	addi	sp,sp,-16
ffffffff804016b8:	e406                	sd	ra,8(sp)
ffffffff804016ba:	e022                	sd	s0,0(sp)
ffffffff804016bc:	0800                	addi	s0,sp,16
ffffffff804016be:	0000c517          	auipc	a0,0xc
ffffffff804016c2:	f2250513          	addi	a0,a0,-222 # ffffffff8040d5e0 <get_elf_file+0x2d2>
ffffffff804016c6:	096050ef          	jal	ra,ffffffff8040675c <printk>
ffffffff804016ca:	a001                	j	ffffffff804016ca <handle_software+0x14>

ffffffff804016cc <handle_other>:
ffffffff804016cc:	7129                	addi	sp,sp,-320
ffffffff804016ce:	fe06                	sd	ra,312(sp)
ffffffff804016d0:	fa22                	sd	s0,304(sp)
ffffffff804016d2:	0280                	addi	s0,sp,320
ffffffff804016d4:	eca43c23          	sd	a0,-296(s0)
ffffffff804016d8:	ecb43823          	sd	a1,-304(s0)
ffffffff804016dc:	ecc43423          	sd	a2,-312(s0)
ffffffff804016e0:	0000c717          	auipc	a4,0xc
ffffffff804016e4:	06070713          	addi	a4,a4,96 # ffffffff8040d740 <get_elf_file+0x432>
ffffffff804016e8:	ee840793          	addi	a5,s0,-280
ffffffff804016ec:	86ba                	mv	a3,a4
ffffffff804016ee:	10000713          	li	a4,256
ffffffff804016f2:	863a                	mv	a2,a4
ffffffff804016f4:	85b6                	mv	a1,a3
ffffffff804016f6:	853e                	mv	a0,a5
ffffffff804016f8:	480040ef          	jal	ra,ffffffff80405b78 <memcpy>
ffffffff804016fc:	fe042623          	sw	zero,-20(s0)
ffffffff80401700:	a061                	j	ffffffff80401788 <handle_other+0xbc>
ffffffff80401702:	fe042423          	sw	zero,-24(s0)
ffffffff80401706:	a0a9                	j	ffffffff80401750 <handle_other+0x84>
ffffffff80401708:	fec42703          	lw	a4,-20(s0)
ffffffff8040170c:	fe842783          	lw	a5,-24(s0)
ffffffff80401710:	9fb9                	addw	a5,a5,a4
ffffffff80401712:	2781                	sext.w	a5,a5
ffffffff80401714:	078e                	slli	a5,a5,0x3
ffffffff80401716:	ff040713          	addi	a4,s0,-16
ffffffff8040171a:	97ba                	add	a5,a5,a4
ffffffff8040171c:	ef87b683          	ld	a3,-264(a5)
ffffffff80401720:	fec42703          	lw	a4,-20(s0)
ffffffff80401724:	fe842783          	lw	a5,-24(s0)
ffffffff80401728:	9fb9                	addw	a5,a5,a4
ffffffff8040172a:	2781                	sext.w	a5,a5
ffffffff8040172c:	ed843703          	ld	a4,-296(s0)
ffffffff80401730:	078e                	slli	a5,a5,0x3
ffffffff80401732:	97ba                	add	a5,a5,a4
ffffffff80401734:	639c                	ld	a5,0(a5)
ffffffff80401736:	863e                	mv	a2,a5
ffffffff80401738:	85b6                	mv	a1,a3
ffffffff8040173a:	0000c517          	auipc	a0,0xc
ffffffff8040173e:	eae50513          	addi	a0,a0,-338 # ffffffff8040d5e8 <get_elf_file+0x2da>
ffffffff80401742:	01a050ef          	jal	ra,ffffffff8040675c <printk>
ffffffff80401746:	fe842783          	lw	a5,-24(s0)
ffffffff8040174a:	2785                	addiw	a5,a5,1
ffffffff8040174c:	fef42423          	sw	a5,-24(s0)
ffffffff80401750:	fe842783          	lw	a5,-24(s0)
ffffffff80401754:	0007871b          	sext.w	a4,a5
ffffffff80401758:	4789                	li	a5,2
ffffffff8040175a:	00e7cc63          	blt	a5,a4,ffffffff80401772 <handle_other+0xa6>
ffffffff8040175e:	fec42703          	lw	a4,-20(s0)
ffffffff80401762:	fe842783          	lw	a5,-24(s0)
ffffffff80401766:	9fb9                	addw	a5,a5,a4
ffffffff80401768:	2781                	sext.w	a5,a5
ffffffff8040176a:	873e                	mv	a4,a5
ffffffff8040176c:	47fd                	li	a5,31
ffffffff8040176e:	f8e7dde3          	bge	a5,a4,ffffffff80401708 <handle_other+0x3c>
ffffffff80401772:	0000c517          	auipc	a0,0xc
ffffffff80401776:	e8650513          	addi	a0,a0,-378 # ffffffff8040d5f8 <get_elf_file+0x2ea>
ffffffff8040177a:	7e3040ef          	jal	ra,ffffffff8040675c <printk>
ffffffff8040177e:	fec42783          	lw	a5,-20(s0)
ffffffff80401782:	278d                	addiw	a5,a5,3
ffffffff80401784:	fef42623          	sw	a5,-20(s0)
ffffffff80401788:	fec42783          	lw	a5,-20(s0)
ffffffff8040178c:	0007871b          	sext.w	a4,a5
ffffffff80401790:	47fd                	li	a5,31
ffffffff80401792:	f6e7d8e3          	bge	a5,a4,ffffffff80401702 <handle_other+0x36>
ffffffff80401796:	ed843783          	ld	a5,-296(s0)
ffffffff8040179a:	1007b703          	ld	a4,256(a5)
ffffffff8040179e:	ed843783          	ld	a5,-296(s0)
ffffffff804017a2:	1107b603          	ld	a2,272(a5)
ffffffff804017a6:	ed843783          	ld	a5,-296(s0)
ffffffff804017aa:	1187b783          	ld	a5,280(a5)
ffffffff804017ae:	86be                	mv	a3,a5
ffffffff804017b0:	85ba                	mv	a1,a4
ffffffff804017b2:	0000c517          	auipc	a0,0xc
ffffffff804017b6:	e4e50513          	addi	a0,a0,-434 # ffffffff8040d600 <get_elf_file+0x2f2>
ffffffff804017ba:	7a3040ef          	jal	ra,ffffffff8040675c <printk>
ffffffff804017be:	ed843783          	ld	a5,-296(s0)
ffffffff804017c2:	1087b783          	ld	a5,264(a5)
ffffffff804017c6:	85be                	mv	a1,a5
ffffffff804017c8:	0000c517          	auipc	a0,0xc
ffffffff804017cc:	e6850513          	addi	a0,a0,-408 # ffffffff8040d630 <get_elf_file+0x322>
ffffffff804017d0:	78d040ef          	jal	ra,ffffffff8040675c <printk>
ffffffff804017d4:	0000c617          	auipc	a2,0xc
ffffffff804017d8:	07c60613          	addi	a2,a2,124 # ffffffff8040d850 <__FUNCTION__.1902>
ffffffff804017dc:	0f200593          	li	a1,242
ffffffff804017e0:	0000c517          	auipc	a0,0xc
ffffffff804017e4:	de850513          	addi	a0,a0,-536 # ffffffff8040d5c8 <get_elf_file+0x2ba>
ffffffff804017e8:	eeeff0ef          	jal	ra,ffffffff80400ed6 <_panic>
ffffffff804017ec:	0001                	nop
ffffffff804017ee:	70f2                	ld	ra,312(sp)
ffffffff804017f0:	7452                	ld	s0,304(sp)
ffffffff804017f2:	6131                	addi	sp,sp,320
ffffffff804017f4:	8082                	ret

ffffffff804017f6 <vt100_move_cursor>:
ffffffff804017f6:	1101                	addi	sp,sp,-32
ffffffff804017f8:	ec06                	sd	ra,24(sp)
ffffffff804017fa:	e822                	sd	s0,16(sp)
ffffffff804017fc:	1000                	addi	s0,sp,32
ffffffff804017fe:	87aa                	mv	a5,a0
ffffffff80401800:	872e                	mv	a4,a1
ffffffff80401802:	fef42623          	sw	a5,-20(s0)
ffffffff80401806:	87ba                	mv	a5,a4
ffffffff80401808:	fef42423          	sw	a5,-24(s0)
ffffffff8040180c:	8bdfe0ef          	jal	ra,ffffffff804000c8 <disable_preempt>
ffffffff80401810:	fec42703          	lw	a4,-20(s0)
ffffffff80401814:	fe842783          	lw	a5,-24(s0)
ffffffff80401818:	86ba                	mv	a3,a4
ffffffff8040181a:	863e                	mv	a2,a5
ffffffff8040181c:	45ed                	li	a1,27
ffffffff8040181e:	0000c517          	auipc	a0,0xc
ffffffff80401822:	04250513          	addi	a0,a0,66 # ffffffff8040d860 <__FUNCTION__.1902+0x10>
ffffffff80401826:	737040ef          	jal	ra,ffffffff8040675c <printk>
ffffffff8040182a:	0001e797          	auipc	a5,0x1e
ffffffff8040182e:	25e78793          	addi	a5,a5,606 # ffffffff8041fa88 <current_running>
ffffffff80401832:	639c                	ld	a5,0(a5)
ffffffff80401834:	fec42703          	lw	a4,-20(s0)
ffffffff80401838:	08e7a423          	sw	a4,136(a5)
ffffffff8040183c:	0001e797          	auipc	a5,0x1e
ffffffff80401840:	24c78793          	addi	a5,a5,588 # ffffffff8041fa88 <current_running>
ffffffff80401844:	639c                	ld	a5,0(a5)
ffffffff80401846:	fe842703          	lw	a4,-24(s0)
ffffffff8040184a:	08e7a623          	sw	a4,140(a5)
ffffffff8040184e:	853fe0ef          	jal	ra,ffffffff804000a0 <enable_preempt>
ffffffff80401852:	0001                	nop
ffffffff80401854:	60e2                	ld	ra,24(sp)
ffffffff80401856:	6442                	ld	s0,16(sp)
ffffffff80401858:	6105                	addi	sp,sp,32
ffffffff8040185a:	8082                	ret

ffffffff8040185c <vt100_clear>:
ffffffff8040185c:	1141                	addi	sp,sp,-16
ffffffff8040185e:	e406                	sd	ra,8(sp)
ffffffff80401860:	e022                	sd	s0,0(sp)
ffffffff80401862:	0800                	addi	s0,sp,16
ffffffff80401864:	45ed                	li	a1,27
ffffffff80401866:	0000c517          	auipc	a0,0xc
ffffffff8040186a:	00a50513          	addi	a0,a0,10 # ffffffff8040d870 <__FUNCTION__.1902+0x20>
ffffffff8040186e:	6ef040ef          	jal	ra,ffffffff8040675c <printk>
ffffffff80401872:	0001                	nop
ffffffff80401874:	60a2                	ld	ra,8(sp)
ffffffff80401876:	6402                	ld	s0,0(sp)
ffffffff80401878:	0141                	addi	sp,sp,16
ffffffff8040187a:	8082                	ret

ffffffff8040187c <vt100_hidden_cursor>:
ffffffff8040187c:	1141                	addi	sp,sp,-16
ffffffff8040187e:	e406                	sd	ra,8(sp)
ffffffff80401880:	e022                	sd	s0,0(sp)
ffffffff80401882:	0800                	addi	s0,sp,16
ffffffff80401884:	45ed                	li	a1,27
ffffffff80401886:	0000c517          	auipc	a0,0xc
ffffffff8040188a:	ff250513          	addi	a0,a0,-14 # ffffffff8040d878 <__FUNCTION__.1902+0x28>
ffffffff8040188e:	6cf040ef          	jal	ra,ffffffff8040675c <printk>
ffffffff80401892:	0001                	nop
ffffffff80401894:	60a2                	ld	ra,8(sp)
ffffffff80401896:	6402                	ld	s0,0(sp)
ffffffff80401898:	0141                	addi	sp,sp,16
ffffffff8040189a:	8082                	ret

ffffffff8040189c <screen_write_ch>:
ffffffff8040189c:	1101                	addi	sp,sp,-32
ffffffff8040189e:	ec22                	sd	s0,24(sp)
ffffffff804018a0:	1000                	addi	s0,sp,32
ffffffff804018a2:	87aa                	mv	a5,a0
ffffffff804018a4:	fef407a3          	sb	a5,-17(s0)
ffffffff804018a8:	fef44783          	lbu	a5,-17(s0)
ffffffff804018ac:	0ff7f713          	andi	a4,a5,255
ffffffff804018b0:	47a9                	li	a5,10
ffffffff804018b2:	02f71663          	bne	a4,a5,ffffffff804018de <screen_write_ch+0x42>
ffffffff804018b6:	0001e797          	auipc	a5,0x1e
ffffffff804018ba:	1d278793          	addi	a5,a5,466 # ffffffff8041fa88 <current_running>
ffffffff804018be:	639c                	ld	a5,0(a5)
ffffffff804018c0:	4705                	li	a4,1
ffffffff804018c2:	08e7a423          	sw	a4,136(a5)
ffffffff804018c6:	0001e797          	auipc	a5,0x1e
ffffffff804018ca:	1c278793          	addi	a5,a5,450 # ffffffff8041fa88 <current_running>
ffffffff804018ce:	639c                	ld	a5,0(a5)
ffffffff804018d0:	08c7a703          	lw	a4,140(a5)
ffffffff804018d4:	2705                	addiw	a4,a4,1
ffffffff804018d6:	2701                	sext.w	a4,a4
ffffffff804018d8:	08e7a623          	sw	a4,140(a5)
ffffffff804018dc:	a8d9                	j	ffffffff804019b2 <screen_write_ch+0x116>
ffffffff804018de:	fef44783          	lbu	a5,-17(s0)
ffffffff804018e2:	0ff7f713          	andi	a4,a5,255
ffffffff804018e6:	47a1                	li	a5,8
ffffffff804018e8:	06f71463          	bne	a4,a5,ffffffff80401950 <screen_write_ch+0xb4>
ffffffff804018ec:	0001e797          	auipc	a5,0x1e
ffffffff804018f0:	19c78793          	addi	a5,a5,412 # ffffffff8041fa88 <current_running>
ffffffff804018f4:	639c                	ld	a5,0(a5)
ffffffff804018f6:	0887a703          	lw	a4,136(a5)
ffffffff804018fa:	377d                	addiw	a4,a4,-1
ffffffff804018fc:	2701                	sext.w	a4,a4
ffffffff804018fe:	08e7a423          	sw	a4,136(a5)
ffffffff80401902:	0001e797          	auipc	a5,0x1e
ffffffff80401906:	18678793          	addi	a5,a5,390 # ffffffff8041fa88 <current_running>
ffffffff8040190a:	639c                	ld	a5,0(a5)
ffffffff8040190c:	08c7a783          	lw	a5,140(a5)
ffffffff80401910:	37fd                	addiw	a5,a5,-1
ffffffff80401912:	2781                	sext.w	a5,a5
ffffffff80401914:	873e                	mv	a4,a5
ffffffff80401916:	87ba                	mv	a5,a4
ffffffff80401918:	0027979b          	slliw	a5,a5,0x2
ffffffff8040191c:	9fb9                	addw	a5,a5,a4
ffffffff8040191e:	0047979b          	slliw	a5,a5,0x4
ffffffff80401922:	0007871b          	sext.w	a4,a5
ffffffff80401926:	0001e797          	auipc	a5,0x1e
ffffffff8040192a:	16278793          	addi	a5,a5,354 # ffffffff8041fa88 <current_running>
ffffffff8040192e:	639c                	ld	a5,0(a5)
ffffffff80401930:	0887a783          	lw	a5,136(a5)
ffffffff80401934:	37fd                	addiw	a5,a5,-1
ffffffff80401936:	2781                	sext.w	a5,a5
ffffffff80401938:	9fb9                	addw	a5,a5,a4
ffffffff8040193a:	2781                	sext.w	a5,a5
ffffffff8040193c:	00017717          	auipc	a4,0x17
ffffffff80401940:	6c470713          	addi	a4,a4,1732 # ffffffff80419000 <new_screen>
ffffffff80401944:	97ba                	add	a5,a5,a4
ffffffff80401946:	02000713          	li	a4,32
ffffffff8040194a:	00e78023          	sb	a4,0(a5)
ffffffff8040194e:	a095                	j	ffffffff804019b2 <screen_write_ch+0x116>
ffffffff80401950:	0001e797          	auipc	a5,0x1e
ffffffff80401954:	13878793          	addi	a5,a5,312 # ffffffff8041fa88 <current_running>
ffffffff80401958:	639c                	ld	a5,0(a5)
ffffffff8040195a:	08c7a783          	lw	a5,140(a5)
ffffffff8040195e:	37fd                	addiw	a5,a5,-1
ffffffff80401960:	2781                	sext.w	a5,a5
ffffffff80401962:	873e                	mv	a4,a5
ffffffff80401964:	87ba                	mv	a5,a4
ffffffff80401966:	0027979b          	slliw	a5,a5,0x2
ffffffff8040196a:	9fb9                	addw	a5,a5,a4
ffffffff8040196c:	0047979b          	slliw	a5,a5,0x4
ffffffff80401970:	0007871b          	sext.w	a4,a5
ffffffff80401974:	0001e797          	auipc	a5,0x1e
ffffffff80401978:	11478793          	addi	a5,a5,276 # ffffffff8041fa88 <current_running>
ffffffff8040197c:	639c                	ld	a5,0(a5)
ffffffff8040197e:	0887a783          	lw	a5,136(a5)
ffffffff80401982:	37fd                	addiw	a5,a5,-1
ffffffff80401984:	2781                	sext.w	a5,a5
ffffffff80401986:	9fb9                	addw	a5,a5,a4
ffffffff80401988:	2781                	sext.w	a5,a5
ffffffff8040198a:	00017717          	auipc	a4,0x17
ffffffff8040198e:	67670713          	addi	a4,a4,1654 # ffffffff80419000 <new_screen>
ffffffff80401992:	97ba                	add	a5,a5,a4
ffffffff80401994:	fef44703          	lbu	a4,-17(s0)
ffffffff80401998:	00e78023          	sb	a4,0(a5)
ffffffff8040199c:	0001e797          	auipc	a5,0x1e
ffffffff804019a0:	0ec78793          	addi	a5,a5,236 # ffffffff8041fa88 <current_running>
ffffffff804019a4:	639c                	ld	a5,0(a5)
ffffffff804019a6:	0887a703          	lw	a4,136(a5)
ffffffff804019aa:	2705                	addiw	a4,a4,1
ffffffff804019ac:	2701                	sext.w	a4,a4
ffffffff804019ae:	08e7a423          	sw	a4,136(a5)
ffffffff804019b2:	0001                	nop
ffffffff804019b4:	6462                	ld	s0,24(sp)
ffffffff804019b6:	6105                	addi	sp,sp,32
ffffffff804019b8:	8082                	ret

ffffffff804019ba <init_screen>:
ffffffff804019ba:	1141                	addi	sp,sp,-16
ffffffff804019bc:	e422                	sd	s0,8(sp)
ffffffff804019be:	0800                	addi	s0,sp,16
ffffffff804019c0:	0001                	nop
ffffffff804019c2:	6422                	ld	s0,8(sp)
ffffffff804019c4:	0141                	addi	sp,sp,16
ffffffff804019c6:	8082                	ret

ffffffff804019c8 <screen_clear>:
ffffffff804019c8:	1101                	addi	sp,sp,-32
ffffffff804019ca:	ec22                	sd	s0,24(sp)
ffffffff804019cc:	1000                	addi	s0,sp,32
ffffffff804019ce:	fe042623          	sw	zero,-20(s0)
ffffffff804019d2:	a8a1                	j	ffffffff80401a2a <screen_clear+0x62>
ffffffff804019d4:	fe042423          	sw	zero,-24(s0)
ffffffff804019d8:	a825                	j	ffffffff80401a10 <screen_clear+0x48>
ffffffff804019da:	fec42703          	lw	a4,-20(s0)
ffffffff804019de:	87ba                	mv	a5,a4
ffffffff804019e0:	0027979b          	slliw	a5,a5,0x2
ffffffff804019e4:	9fb9                	addw	a5,a5,a4
ffffffff804019e6:	0047979b          	slliw	a5,a5,0x4
ffffffff804019ea:	2781                	sext.w	a5,a5
ffffffff804019ec:	fe842703          	lw	a4,-24(s0)
ffffffff804019f0:	9fb9                	addw	a5,a5,a4
ffffffff804019f2:	2781                	sext.w	a5,a5
ffffffff804019f4:	00017717          	auipc	a4,0x17
ffffffff804019f8:	60c70713          	addi	a4,a4,1548 # ffffffff80419000 <new_screen>
ffffffff804019fc:	97ba                	add	a5,a5,a4
ffffffff804019fe:	02000713          	li	a4,32
ffffffff80401a02:	00e78023          	sb	a4,0(a5)
ffffffff80401a06:	fe842783          	lw	a5,-24(s0)
ffffffff80401a0a:	2785                	addiw	a5,a5,1
ffffffff80401a0c:	fef42423          	sw	a5,-24(s0)
ffffffff80401a10:	fe842783          	lw	a5,-24(s0)
ffffffff80401a14:	0007871b          	sext.w	a4,a5
ffffffff80401a18:	04f00793          	li	a5,79
ffffffff80401a1c:	fae7dfe3          	bge	a5,a4,ffffffff804019da <screen_clear+0x12>
ffffffff80401a20:	fec42783          	lw	a5,-20(s0)
ffffffff80401a24:	2785                	addiw	a5,a5,1
ffffffff80401a26:	fef42623          	sw	a5,-20(s0)
ffffffff80401a2a:	fec42783          	lw	a5,-20(s0)
ffffffff80401a2e:	0007871b          	sext.w	a4,a5
ffffffff80401a32:	03100793          	li	a5,49
ffffffff80401a36:	f8e7dfe3          	bge	a5,a4,ffffffff804019d4 <screen_clear+0xc>
ffffffff80401a3a:	0001e797          	auipc	a5,0x1e
ffffffff80401a3e:	04e78793          	addi	a5,a5,78 # ffffffff8041fa88 <current_running>
ffffffff80401a42:	639c                	ld	a5,0(a5)
ffffffff80401a44:	4705                	li	a4,1
ffffffff80401a46:	08e7a423          	sw	a4,136(a5)
ffffffff80401a4a:	0001e797          	auipc	a5,0x1e
ffffffff80401a4e:	03e78793          	addi	a5,a5,62 # ffffffff8041fa88 <current_running>
ffffffff80401a52:	639c                	ld	a5,0(a5)
ffffffff80401a54:	4705                	li	a4,1
ffffffff80401a56:	08e7a623          	sw	a4,140(a5)
ffffffff80401a5a:	0001                	nop
ffffffff80401a5c:	6462                	ld	s0,24(sp)
ffffffff80401a5e:	6105                	addi	sp,sp,32
ffffffff80401a60:	8082                	ret

ffffffff80401a62 <screen_move_cursor>:
ffffffff80401a62:	1101                	addi	sp,sp,-32
ffffffff80401a64:	ec22                	sd	s0,24(sp)
ffffffff80401a66:	1000                	addi	s0,sp,32
ffffffff80401a68:	87aa                	mv	a5,a0
ffffffff80401a6a:	872e                	mv	a4,a1
ffffffff80401a6c:	fef42623          	sw	a5,-20(s0)
ffffffff80401a70:	87ba                	mv	a5,a4
ffffffff80401a72:	fef42423          	sw	a5,-24(s0)
ffffffff80401a76:	0001e797          	auipc	a5,0x1e
ffffffff80401a7a:	01278793          	addi	a5,a5,18 # ffffffff8041fa88 <current_running>
ffffffff80401a7e:	639c                	ld	a5,0(a5)
ffffffff80401a80:	fec42703          	lw	a4,-20(s0)
ffffffff80401a84:	08e7a423          	sw	a4,136(a5)
ffffffff80401a88:	0001e797          	auipc	a5,0x1e
ffffffff80401a8c:	00078793          	mv	a5,a5
ffffffff80401a90:	639c                	ld	a5,0(a5)
ffffffff80401a92:	fe842703          	lw	a4,-24(s0)
ffffffff80401a96:	08e7a623          	sw	a4,140(a5) # ffffffff8041fb14 <pcb+0x84>
ffffffff80401a9a:	0001                	nop
ffffffff80401a9c:	6462                	ld	s0,24(sp)
ffffffff80401a9e:	6105                	addi	sp,sp,32
ffffffff80401aa0:	8082                	ret

ffffffff80401aa2 <screen_write>:
ffffffff80401aa2:	7179                	addi	sp,sp,-48
ffffffff80401aa4:	f406                	sd	ra,40(sp)
ffffffff80401aa6:	f022                	sd	s0,32(sp)
ffffffff80401aa8:	1800                	addi	s0,sp,48
ffffffff80401aaa:	fca43c23          	sd	a0,-40(s0)
ffffffff80401aae:	fe042623          	sw	zero,-20(s0)
ffffffff80401ab2:	fd843503          	ld	a0,-40(s0)
ffffffff80401ab6:	08c040ef          	jal	ra,ffffffff80405b42 <strlen>
ffffffff80401aba:	87aa                	mv	a5,a0
ffffffff80401abc:	fef42423          	sw	a5,-24(s0)
ffffffff80401ac0:	fe042623          	sw	zero,-20(s0)
ffffffff80401ac4:	a005                	j	ffffffff80401ae4 <screen_write+0x42>
ffffffff80401ac6:	fec46783          	lwu	a5,-20(s0)
ffffffff80401aca:	fd843703          	ld	a4,-40(s0)
ffffffff80401ace:	97ba                	add	a5,a5,a4
ffffffff80401ad0:	0007c783          	lbu	a5,0(a5)
ffffffff80401ad4:	853e                	mv	a0,a5
ffffffff80401ad6:	dc7ff0ef          	jal	ra,ffffffff8040189c <screen_write_ch>
ffffffff80401ada:	fec42783          	lw	a5,-20(s0)
ffffffff80401ade:	2785                	addiw	a5,a5,1
ffffffff80401ae0:	fef42623          	sw	a5,-20(s0)
ffffffff80401ae4:	fec42703          	lw	a4,-20(s0)
ffffffff80401ae8:	fe842783          	lw	a5,-24(s0)
ffffffff80401aec:	2701                	sext.w	a4,a4
ffffffff80401aee:	2781                	sext.w	a5,a5
ffffffff80401af0:	fcf76be3          	bltu	a4,a5,ffffffff80401ac6 <screen_write+0x24>
ffffffff80401af4:	0001                	nop
ffffffff80401af6:	70a2                	ld	ra,40(sp)
ffffffff80401af8:	7402                	ld	s0,32(sp)
ffffffff80401afa:	6145                	addi	sp,sp,48
ffffffff80401afc:	8082                	ret

ffffffff80401afe <screen_reflush>:
ffffffff80401afe:	1101                	addi	sp,sp,-32
ffffffff80401b00:	ec06                	sd	ra,24(sp)
ffffffff80401b02:	e822                	sd	s0,16(sp)
ffffffff80401b04:	1000                	addi	s0,sp,32
ffffffff80401b06:	0001e797          	auipc	a5,0x1e
ffffffff80401b0a:	f8278793          	addi	a5,a5,-126 # ffffffff8041fa88 <current_running>
ffffffff80401b0e:	639c                	ld	a5,0(a5)
ffffffff80401b10:	0887a783          	lw	a5,136(a5)
ffffffff80401b14:	fef42223          	sw	a5,-28(s0)
ffffffff80401b18:	0001e797          	auipc	a5,0x1e
ffffffff80401b1c:	f7078793          	addi	a5,a5,-144 # ffffffff8041fa88 <current_running>
ffffffff80401b20:	639c                	ld	a5,0(a5)
ffffffff80401b22:	08c7a783          	lw	a5,140(a5)
ffffffff80401b26:	fef42023          	sw	a5,-32(s0)
ffffffff80401b2a:	fe042623          	sw	zero,-20(s0)
ffffffff80401b2e:	aa2d                	j	ffffffff80401c68 <screen_reflush+0x16a>
ffffffff80401b30:	fe042423          	sw	zero,-24(s0)
ffffffff80401b34:	aa29                	j	ffffffff80401c4e <screen_reflush+0x150>
ffffffff80401b36:	fec42703          	lw	a4,-20(s0)
ffffffff80401b3a:	87ba                	mv	a5,a4
ffffffff80401b3c:	0027979b          	slliw	a5,a5,0x2
ffffffff80401b40:	9fb9                	addw	a5,a5,a4
ffffffff80401b42:	0047979b          	slliw	a5,a5,0x4
ffffffff80401b46:	2781                	sext.w	a5,a5
ffffffff80401b48:	fe842703          	lw	a4,-24(s0)
ffffffff80401b4c:	9fb9                	addw	a5,a5,a4
ffffffff80401b4e:	2781                	sext.w	a5,a5
ffffffff80401b50:	00017717          	auipc	a4,0x17
ffffffff80401b54:	4b070713          	addi	a4,a4,1200 # ffffffff80419000 <new_screen>
ffffffff80401b58:	1782                	slli	a5,a5,0x20
ffffffff80401b5a:	9381                	srli	a5,a5,0x20
ffffffff80401b5c:	97ba                	add	a5,a5,a4
ffffffff80401b5e:	0007c683          	lbu	a3,0(a5)
ffffffff80401b62:	fec42703          	lw	a4,-20(s0)
ffffffff80401b66:	87ba                	mv	a5,a4
ffffffff80401b68:	0027979b          	slliw	a5,a5,0x2
ffffffff80401b6c:	9fb9                	addw	a5,a5,a4
ffffffff80401b6e:	0047979b          	slliw	a5,a5,0x4
ffffffff80401b72:	2781                	sext.w	a5,a5
ffffffff80401b74:	fe842703          	lw	a4,-24(s0)
ffffffff80401b78:	9fb9                	addw	a5,a5,a4
ffffffff80401b7a:	2781                	sext.w	a5,a5
ffffffff80401b7c:	00018717          	auipc	a4,0x18
ffffffff80401b80:	42470713          	addi	a4,a4,1060 # ffffffff80419fa0 <old_screen>
ffffffff80401b84:	1782                	slli	a5,a5,0x20
ffffffff80401b86:	9381                	srli	a5,a5,0x20
ffffffff80401b88:	97ba                	add	a5,a5,a4
ffffffff80401b8a:	0007c783          	lbu	a5,0(a5)
ffffffff80401b8e:	8736                	mv	a4,a3
ffffffff80401b90:	0af70a63          	beq	a4,a5,ffffffff80401c44 <screen_reflush+0x146>
ffffffff80401b94:	fe842783          	lw	a5,-24(s0)
ffffffff80401b98:	2785                	addiw	a5,a5,1
ffffffff80401b9a:	2781                	sext.w	a5,a5
ffffffff80401b9c:	0007871b          	sext.w	a4,a5
ffffffff80401ba0:	fec42783          	lw	a5,-20(s0)
ffffffff80401ba4:	2785                	addiw	a5,a5,1
ffffffff80401ba6:	2781                	sext.w	a5,a5
ffffffff80401ba8:	2781                	sext.w	a5,a5
ffffffff80401baa:	85be                	mv	a1,a5
ffffffff80401bac:	853a                	mv	a0,a4
ffffffff80401bae:	c49ff0ef          	jal	ra,ffffffff804017f6 <vt100_move_cursor>
ffffffff80401bb2:	fec42703          	lw	a4,-20(s0)
ffffffff80401bb6:	87ba                	mv	a5,a4
ffffffff80401bb8:	0027979b          	slliw	a5,a5,0x2
ffffffff80401bbc:	9fb9                	addw	a5,a5,a4
ffffffff80401bbe:	0047979b          	slliw	a5,a5,0x4
ffffffff80401bc2:	2781                	sext.w	a5,a5
ffffffff80401bc4:	fe842703          	lw	a4,-24(s0)
ffffffff80401bc8:	9fb9                	addw	a5,a5,a4
ffffffff80401bca:	2781                	sext.w	a5,a5
ffffffff80401bcc:	00017717          	auipc	a4,0x17
ffffffff80401bd0:	43470713          	addi	a4,a4,1076 # ffffffff80419000 <new_screen>
ffffffff80401bd4:	1782                	slli	a5,a5,0x20
ffffffff80401bd6:	9381                	srli	a5,a5,0x20
ffffffff80401bd8:	97ba                	add	a5,a5,a4
ffffffff80401bda:	0007c783          	lbu	a5,0(a5)
ffffffff80401bde:	853e                	mv	a0,a5
ffffffff80401be0:	f30fe0ef          	jal	ra,ffffffff80400310 <port_write_ch>
ffffffff80401be4:	fec42703          	lw	a4,-20(s0)
ffffffff80401be8:	87ba                	mv	a5,a4
ffffffff80401bea:	0027979b          	slliw	a5,a5,0x2
ffffffff80401bee:	9fb9                	addw	a5,a5,a4
ffffffff80401bf0:	0047979b          	slliw	a5,a5,0x4
ffffffff80401bf4:	2781                	sext.w	a5,a5
ffffffff80401bf6:	fe842703          	lw	a4,-24(s0)
ffffffff80401bfa:	9fb9                	addw	a5,a5,a4
ffffffff80401bfc:	0007869b          	sext.w	a3,a5
ffffffff80401c00:	fec42703          	lw	a4,-20(s0)
ffffffff80401c04:	87ba                	mv	a5,a4
ffffffff80401c06:	0027979b          	slliw	a5,a5,0x2
ffffffff80401c0a:	9fb9                	addw	a5,a5,a4
ffffffff80401c0c:	0047979b          	slliw	a5,a5,0x4
ffffffff80401c10:	2781                	sext.w	a5,a5
ffffffff80401c12:	fe842703          	lw	a4,-24(s0)
ffffffff80401c16:	9fb9                	addw	a5,a5,a4
ffffffff80401c18:	0007861b          	sext.w	a2,a5
ffffffff80401c1c:	00017717          	auipc	a4,0x17
ffffffff80401c20:	3e470713          	addi	a4,a4,996 # ffffffff80419000 <new_screen>
ffffffff80401c24:	02069793          	slli	a5,a3,0x20
ffffffff80401c28:	9381                	srli	a5,a5,0x20
ffffffff80401c2a:	97ba                	add	a5,a5,a4
ffffffff80401c2c:	0007c703          	lbu	a4,0(a5)
ffffffff80401c30:	00018697          	auipc	a3,0x18
ffffffff80401c34:	37068693          	addi	a3,a3,880 # ffffffff80419fa0 <old_screen>
ffffffff80401c38:	02061793          	slli	a5,a2,0x20
ffffffff80401c3c:	9381                	srli	a5,a5,0x20
ffffffff80401c3e:	97b6                	add	a5,a5,a3
ffffffff80401c40:	00e78023          	sb	a4,0(a5)
ffffffff80401c44:	fe842783          	lw	a5,-24(s0)
ffffffff80401c48:	2785                	addiw	a5,a5,1
ffffffff80401c4a:	fef42423          	sw	a5,-24(s0)
ffffffff80401c4e:	fe842783          	lw	a5,-24(s0)
ffffffff80401c52:	0007871b          	sext.w	a4,a5
ffffffff80401c56:	04f00793          	li	a5,79
ffffffff80401c5a:	ece7fee3          	bgeu	a5,a4,ffffffff80401b36 <screen_reflush+0x38>
ffffffff80401c5e:	fec42783          	lw	a5,-20(s0)
ffffffff80401c62:	2785                	addiw	a5,a5,1
ffffffff80401c64:	fef42623          	sw	a5,-20(s0)
ffffffff80401c68:	fec42783          	lw	a5,-20(s0)
ffffffff80401c6c:	0007871b          	sext.w	a4,a5
ffffffff80401c70:	03100793          	li	a5,49
ffffffff80401c74:	eae7fee3          	bgeu	a5,a4,ffffffff80401b30 <screen_reflush+0x32>
ffffffff80401c78:	fe442783          	lw	a5,-28(s0)
ffffffff80401c7c:	fe042703          	lw	a4,-32(s0)
ffffffff80401c80:	85ba                	mv	a1,a4
ffffffff80401c82:	853e                	mv	a0,a5
ffffffff80401c84:	b73ff0ef          	jal	ra,ffffffff804017f6 <vt100_move_cursor>
ffffffff80401c88:	0001e797          	auipc	a5,0x1e
ffffffff80401c8c:	e0078793          	addi	a5,a5,-512 # ffffffff8041fa88 <current_running>
ffffffff80401c90:	639c                	ld	a5,0(a5)
ffffffff80401c92:	fe442703          	lw	a4,-28(s0)
ffffffff80401c96:	08e7a423          	sw	a4,136(a5)
ffffffff80401c9a:	0001e797          	auipc	a5,0x1e
ffffffff80401c9e:	dee78793          	addi	a5,a5,-530 # ffffffff8041fa88 <current_running>
ffffffff80401ca2:	639c                	ld	a5,0(a5)
ffffffff80401ca4:	fe042703          	lw	a4,-32(s0)
ffffffff80401ca8:	08e7a623          	sw	a4,140(a5)
ffffffff80401cac:	0001                	nop
ffffffff80401cae:	60e2                	ld	ra,24(sp)
ffffffff80401cb0:	6442                	ld	s0,16(sp)
ffffffff80401cb2:	6105                	addi	sp,sp,32
ffffffff80401cb4:	8082                	ret

ffffffff80401cb6 <atomic_cmpxchg>:
ffffffff80401cb6:	7179                	addi	sp,sp,-48
ffffffff80401cb8:	f422                	sd	s0,40(sp)
ffffffff80401cba:	1800                	addi	s0,sp,48
ffffffff80401cbc:	87aa                	mv	a5,a0
ffffffff80401cbe:	872e                	mv	a4,a1
ffffffff80401cc0:	fcc43823          	sd	a2,-48(s0)
ffffffff80401cc4:	fcf42e23          	sw	a5,-36(s0)
ffffffff80401cc8:	87ba                	mv	a5,a4
ffffffff80401cca:	fcf42c23          	sw	a5,-40(s0)
ffffffff80401cce:	fd043783          	ld	a5,-48(s0)
ffffffff80401cd2:	fdc42703          	lw	a4,-36(s0)
ffffffff80401cd6:	fd842683          	lw	a3,-40(s0)
ffffffff80401cda:	1007a62f          	lr.w	a2,(a5)
ffffffff80401cde:	00e61763          	bne	a2,a4,ffffffff80401cec <atomic_cmpxchg+0x36>
ffffffff80401ce2:	1ad7a5af          	sc.w.rl	a1,a3,(a5)
ffffffff80401ce6:	f9f5                	bnez	a1,ffffffff80401cda <atomic_cmpxchg+0x24>
ffffffff80401ce8:	0330000f          	fence	rw,rw
ffffffff80401cec:	fec42623          	sw	a2,-20(s0)
ffffffff80401cf0:	fec42783          	lw	a5,-20(s0)
ffffffff80401cf4:	853e                	mv	a0,a5
ffffffff80401cf6:	7422                	ld	s0,40(sp)
ffffffff80401cf8:	6145                	addi	sp,sp,48
ffffffff80401cfa:	8082                	ret

ffffffff80401cfc <spin_lock_init>:
ffffffff80401cfc:	1101                	addi	sp,sp,-32
ffffffff80401cfe:	ec22                	sd	s0,24(sp)
ffffffff80401d00:	1000                	addi	s0,sp,32
ffffffff80401d02:	fea43423          	sd	a0,-24(s0)
ffffffff80401d06:	0001                	nop
ffffffff80401d08:	6462                	ld	s0,24(sp)
ffffffff80401d0a:	6105                	addi	sp,sp,32
ffffffff80401d0c:	8082                	ret

ffffffff80401d0e <spin_lock_try_acquire>:
ffffffff80401d0e:	1101                	addi	sp,sp,-32
ffffffff80401d10:	ec22                	sd	s0,24(sp)
ffffffff80401d12:	1000                	addi	s0,sp,32
ffffffff80401d14:	fea43423          	sd	a0,-24(s0)
ffffffff80401d18:	0001                	nop
ffffffff80401d1a:	853e                	mv	a0,a5
ffffffff80401d1c:	6462                	ld	s0,24(sp)
ffffffff80401d1e:	6105                	addi	sp,sp,32
ffffffff80401d20:	8082                	ret

ffffffff80401d22 <spin_lock_acquire>:
ffffffff80401d22:	1101                	addi	sp,sp,-32
ffffffff80401d24:	ec22                	sd	s0,24(sp)
ffffffff80401d26:	1000                	addi	s0,sp,32
ffffffff80401d28:	fea43423          	sd	a0,-24(s0)
ffffffff80401d2c:	0001                	nop
ffffffff80401d2e:	6462                	ld	s0,24(sp)
ffffffff80401d30:	6105                	addi	sp,sp,32
ffffffff80401d32:	8082                	ret

ffffffff80401d34 <spin_lock_release>:
ffffffff80401d34:	1101                	addi	sp,sp,-32
ffffffff80401d36:	ec22                	sd	s0,24(sp)
ffffffff80401d38:	1000                	addi	s0,sp,32
ffffffff80401d3a:	fea43423          	sd	a0,-24(s0)
ffffffff80401d3e:	0001                	nop
ffffffff80401d40:	6462                	ld	s0,24(sp)
ffffffff80401d42:	6105                	addi	sp,sp,32
ffffffff80401d44:	8082                	ret

ffffffff80401d46 <do_mutex_lock_init>:
ffffffff80401d46:	1101                	addi	sp,sp,-32
ffffffff80401d48:	ec22                	sd	s0,24(sp)
ffffffff80401d4a:	1000                	addi	s0,sp,32
ffffffff80401d4c:	fea43423          	sd	a0,-24(s0)
ffffffff80401d50:	fe843783          	ld	a5,-24(s0)
ffffffff80401d54:	0007a023          	sw	zero,0(a5)
ffffffff80401d58:	fe843783          	ld	a5,-24(s0)
ffffffff80401d5c:	00878713          	addi	a4,a5,8
ffffffff80401d60:	fe843783          	ld	a5,-24(s0)
ffffffff80401d64:	e798                	sd	a4,8(a5)
ffffffff80401d66:	fe843783          	ld	a5,-24(s0)
ffffffff80401d6a:	00878713          	addi	a4,a5,8
ffffffff80401d6e:	fe843783          	ld	a5,-24(s0)
ffffffff80401d72:	eb98                	sd	a4,16(a5)
ffffffff80401d74:	0001                	nop
ffffffff80401d76:	6462                	ld	s0,24(sp)
ffffffff80401d78:	6105                	addi	sp,sp,32
ffffffff80401d7a:	8082                	ret

ffffffff80401d7c <do_mutex_lock_acquire>:
ffffffff80401d7c:	1101                	addi	sp,sp,-32
ffffffff80401d7e:	ec06                	sd	ra,24(sp)
ffffffff80401d80:	e822                	sd	s0,16(sp)
ffffffff80401d82:	1000                	addi	s0,sp,32
ffffffff80401d84:	fea43423          	sd	a0,-24(s0)
ffffffff80401d88:	a00d                	j	ffffffff80401daa <do_mutex_lock_acquire+0x2e>
ffffffff80401d8a:	0001e797          	auipc	a5,0x1e
ffffffff80401d8e:	cfe78793          	addi	a5,a5,-770 # ffffffff8041fa88 <current_running>
ffffffff80401d92:	639c                	ld	a5,0(a5)
ffffffff80401d94:	02878713          	addi	a4,a5,40
ffffffff80401d98:	fe843783          	ld	a5,-24(s0)
ffffffff80401d9c:	07a1                	addi	a5,a5,8
ffffffff80401d9e:	85be                	mv	a1,a5
ffffffff80401da0:	853a                	mv	a0,a4
ffffffff80401da2:	44a010ef          	jal	ra,ffffffff804031ec <do_block>
ffffffff80401da6:	4a5000ef          	jal	ra,ffffffff80402a4a <do_scheduler>
ffffffff80401daa:	fe843783          	ld	a5,-24(s0)
ffffffff80401dae:	863e                	mv	a2,a5
ffffffff80401db0:	4585                	li	a1,1
ffffffff80401db2:	4501                	li	a0,0
ffffffff80401db4:	f03ff0ef          	jal	ra,ffffffff80401cb6 <atomic_cmpxchg>
ffffffff80401db8:	87aa                	mv	a5,a0
ffffffff80401dba:	2781                	sext.w	a5,a5
ffffffff80401dbc:	873e                	mv	a4,a5
ffffffff80401dbe:	4785                	li	a5,1
ffffffff80401dc0:	fcf705e3          	beq	a4,a5,ffffffff80401d8a <do_mutex_lock_acquire+0xe>
ffffffff80401dc4:	0001                	nop
ffffffff80401dc6:	60e2                	ld	ra,24(sp)
ffffffff80401dc8:	6442                	ld	s0,16(sp)
ffffffff80401dca:	6105                	addi	sp,sp,32
ffffffff80401dcc:	8082                	ret

ffffffff80401dce <do_mutex_lock_release>:
ffffffff80401dce:	1101                	addi	sp,sp,-32
ffffffff80401dd0:	ec06                	sd	ra,24(sp)
ffffffff80401dd2:	e822                	sd	s0,16(sp)
ffffffff80401dd4:	1000                	addi	s0,sp,32
ffffffff80401dd6:	fea43423          	sd	a0,-24(s0)
ffffffff80401dda:	fe843783          	ld	a5,-24(s0)
ffffffff80401dde:	863e                	mv	a2,a5
ffffffff80401de0:	4581                	li	a1,0
ffffffff80401de2:	4505                	li	a0,1
ffffffff80401de4:	ed3ff0ef          	jal	ra,ffffffff80401cb6 <atomic_cmpxchg>
ffffffff80401de8:	fe843783          	ld	a5,-24(s0)
ffffffff80401dec:	6798                	ld	a4,8(a5)
ffffffff80401dee:	fe843783          	ld	a5,-24(s0)
ffffffff80401df2:	07a1                	addi	a5,a5,8
ffffffff80401df4:	00f70863          	beq	a4,a5,ffffffff80401e04 <do_mutex_lock_release+0x36>
ffffffff80401df8:	fe843783          	ld	a5,-24(s0)
ffffffff80401dfc:	679c                	ld	a5,8(a5)
ffffffff80401dfe:	853e                	mv	a0,a5
ffffffff80401e00:	426010ef          	jal	ra,ffffffff80403226 <do_unblock>
ffffffff80401e04:	0001                	nop
ffffffff80401e06:	60e2                	ld	ra,24(sp)
ffffffff80401e08:	6442                	ld	s0,16(sp)
ffffffff80401e0a:	6105                	addi	sp,sp,32
ffffffff80401e0c:	8082                	ret

ffffffff80401e0e <init_list_head>:
ffffffff80401e0e:	1101                	addi	sp,sp,-32
ffffffff80401e10:	ec22                	sd	s0,24(sp)
ffffffff80401e12:	1000                	addi	s0,sp,32
ffffffff80401e14:	fea43423          	sd	a0,-24(s0)
ffffffff80401e18:	fe843783          	ld	a5,-24(s0)
ffffffff80401e1c:	fe843703          	ld	a4,-24(s0)
ffffffff80401e20:	e398                	sd	a4,0(a5)
ffffffff80401e22:	fe843783          	ld	a5,-24(s0)
ffffffff80401e26:	fe843703          	ld	a4,-24(s0)
ffffffff80401e2a:	e798                	sd	a4,8(a5)
ffffffff80401e2c:	0001                	nop
ffffffff80401e2e:	6462                	ld	s0,24(sp)
ffffffff80401e30:	6105                	addi	sp,sp,32
ffffffff80401e32:	8082                	ret

ffffffff80401e34 <_list_add>:
ffffffff80401e34:	7179                	addi	sp,sp,-48
ffffffff80401e36:	f422                	sd	s0,40(sp)
ffffffff80401e38:	1800                	addi	s0,sp,48
ffffffff80401e3a:	fea43423          	sd	a0,-24(s0)
ffffffff80401e3e:	feb43023          	sd	a1,-32(s0)
ffffffff80401e42:	fcc43c23          	sd	a2,-40(s0)
ffffffff80401e46:	fd843783          	ld	a5,-40(s0)
ffffffff80401e4a:	fe843703          	ld	a4,-24(s0)
ffffffff80401e4e:	e798                	sd	a4,8(a5)
ffffffff80401e50:	fe843783          	ld	a5,-24(s0)
ffffffff80401e54:	fd843703          	ld	a4,-40(s0)
ffffffff80401e58:	e398                	sd	a4,0(a5)
ffffffff80401e5a:	fe843783          	ld	a5,-24(s0)
ffffffff80401e5e:	fe043703          	ld	a4,-32(s0)
ffffffff80401e62:	e798                	sd	a4,8(a5)
ffffffff80401e64:	fe043783          	ld	a5,-32(s0)
ffffffff80401e68:	fe843703          	ld	a4,-24(s0)
ffffffff80401e6c:	e398                	sd	a4,0(a5)
ffffffff80401e6e:	0001                	nop
ffffffff80401e70:	7422                	ld	s0,40(sp)
ffffffff80401e72:	6145                	addi	sp,sp,48
ffffffff80401e74:	8082                	ret

ffffffff80401e76 <list_add_tail>:
ffffffff80401e76:	1101                	addi	sp,sp,-32
ffffffff80401e78:	ec06                	sd	ra,24(sp)
ffffffff80401e7a:	e822                	sd	s0,16(sp)
ffffffff80401e7c:	1000                	addi	s0,sp,32
ffffffff80401e7e:	fea43423          	sd	a0,-24(s0)
ffffffff80401e82:	feb43023          	sd	a1,-32(s0)
ffffffff80401e86:	fe043783          	ld	a5,-32(s0)
ffffffff80401e8a:	679c                	ld	a5,8(a5)
ffffffff80401e8c:	fe043603          	ld	a2,-32(s0)
ffffffff80401e90:	85be                	mv	a1,a5
ffffffff80401e92:	fe843503          	ld	a0,-24(s0)
ffffffff80401e96:	f9fff0ef          	jal	ra,ffffffff80401e34 <_list_add>
ffffffff80401e9a:	0001                	nop
ffffffff80401e9c:	60e2                	ld	ra,24(sp)
ffffffff80401e9e:	6442                	ld	s0,16(sp)
ffffffff80401ea0:	6105                	addi	sp,sp,32
ffffffff80401ea2:	8082                	ret

ffffffff80401ea4 <list_empty>:
ffffffff80401ea4:	1101                	addi	sp,sp,-32
ffffffff80401ea6:	ec22                	sd	s0,24(sp)
ffffffff80401ea8:	1000                	addi	s0,sp,32
ffffffff80401eaa:	fea43423          	sd	a0,-24(s0)
ffffffff80401eae:	fe843783          	ld	a5,-24(s0)
ffffffff80401eb2:	639c                	ld	a5,0(a5)
ffffffff80401eb4:	fe843703          	ld	a4,-24(s0)
ffffffff80401eb8:	40f707b3          	sub	a5,a4,a5
ffffffff80401ebc:	0017b793          	seqz	a5,a5
ffffffff80401ec0:	0ff7f793          	andi	a5,a5,255
ffffffff80401ec4:	2781                	sext.w	a5,a5
ffffffff80401ec6:	853e                	mv	a0,a5
ffffffff80401ec8:	6462                	ld	s0,24(sp)
ffffffff80401eca:	6105                	addi	sp,sp,32
ffffffff80401ecc:	8082                	ret

ffffffff80401ece <_panic>:
ffffffff80401ece:	7179                	addi	sp,sp,-48
ffffffff80401ed0:	f406                	sd	ra,40(sp)
ffffffff80401ed2:	f022                	sd	s0,32(sp)
ffffffff80401ed4:	1800                	addi	s0,sp,48
ffffffff80401ed6:	fea43423          	sd	a0,-24(s0)
ffffffff80401eda:	87ae                	mv	a5,a1
ffffffff80401edc:	fcc43c23          	sd	a2,-40(s0)
ffffffff80401ee0:	fef42223          	sw	a5,-28(s0)
ffffffff80401ee4:	fe442783          	lw	a5,-28(s0)
ffffffff80401ee8:	86be                	mv	a3,a5
ffffffff80401eea:	fe843603          	ld	a2,-24(s0)
ffffffff80401eee:	fd843583          	ld	a1,-40(s0)
ffffffff80401ef2:	0000c517          	auipc	a0,0xc
ffffffff80401ef6:	98e50513          	addi	a0,a0,-1650 # ffffffff8040d880 <__FUNCTION__.1902+0x30>
ffffffff80401efa:	063040ef          	jal	ra,ffffffff8040675c <printk>
ffffffff80401efe:	a001                	j	ffffffff80401efe <_panic+0x30>

ffffffff80401f00 <init_system_futex>:
ffffffff80401f00:	1101                	addi	sp,sp,-32
ffffffff80401f02:	ec06                	sd	ra,24(sp)
ffffffff80401f04:	e822                	sd	s0,16(sp)
ffffffff80401f06:	1000                	addi	s0,sp,32
ffffffff80401f08:	9c0fe0ef          	jal	ra,ffffffff804000c8 <disable_preempt>
ffffffff80401f0c:	fe042623          	sw	zero,-20(s0)
ffffffff80401f10:	a025                	j	ffffffff80401f38 <init_system_futex+0x38>
ffffffff80401f12:	fec42703          	lw	a4,-20(s0)
ffffffff80401f16:	87ba                	mv	a5,a4
ffffffff80401f18:	0786                	slli	a5,a5,0x1
ffffffff80401f1a:	97ba                	add	a5,a5,a4
ffffffff80401f1c:	078e                	slli	a5,a5,0x3
ffffffff80401f1e:	0001d717          	auipc	a4,0x1d
ffffffff80401f22:	20270713          	addi	a4,a4,514 # ffffffff8041f120 <futex_buckets>
ffffffff80401f26:	97ba                	add	a5,a5,a4
ffffffff80401f28:	853e                	mv	a0,a5
ffffffff80401f2a:	ee5ff0ef          	jal	ra,ffffffff80401e0e <init_list_head>
ffffffff80401f2e:	fec42783          	lw	a5,-20(s0)
ffffffff80401f32:	2785                	addiw	a5,a5,1
ffffffff80401f34:	fef42623          	sw	a5,-20(s0)
ffffffff80401f38:	fec42783          	lw	a5,-20(s0)
ffffffff80401f3c:	0007871b          	sext.w	a4,a5
ffffffff80401f40:	06300793          	li	a5,99
ffffffff80401f44:	fce7d7e3          	bge	a5,a4,ffffffff80401f12 <init_system_futex+0x12>
ffffffff80401f48:	958fe0ef          	jal	ra,ffffffff804000a0 <enable_preempt>
ffffffff80401f4c:	0001                	nop
ffffffff80401f4e:	60e2                	ld	ra,24(sp)
ffffffff80401f50:	6442                	ld	s0,16(sp)
ffffffff80401f52:	6105                	addi	sp,sp,32
ffffffff80401f54:	8082                	ret

ffffffff80401f56 <futex_hash>:
ffffffff80401f56:	1101                	addi	sp,sp,-32
ffffffff80401f58:	ec22                	sd	s0,24(sp)
ffffffff80401f5a:	1000                	addi	s0,sp,32
ffffffff80401f5c:	fea43423          	sd	a0,-24(s0)
ffffffff80401f60:	fe843783          	ld	a5,-24(s0)
ffffffff80401f64:	01e7d713          	srli	a4,a5,0x1e
ffffffff80401f68:	fe843783          	ld	a5,-24(s0)
ffffffff80401f6c:	8f3d                	xor	a4,a4,a5
ffffffff80401f6e:	0000c797          	auipc	a5,0xc
ffffffff80401f72:	96a78793          	addi	a5,a5,-1686 # ffffffff8040d8d8 <__FUNCTION__.1877+0x10>
ffffffff80401f76:	639c                	ld	a5,0(a5)
ffffffff80401f78:	02f707b3          	mul	a5,a4,a5
ffffffff80401f7c:	fef43423          	sd	a5,-24(s0)
ffffffff80401f80:	fe843783          	ld	a5,-24(s0)
ffffffff80401f84:	01b7d713          	srli	a4,a5,0x1b
ffffffff80401f88:	fe843783          	ld	a5,-24(s0)
ffffffff80401f8c:	8f3d                	xor	a4,a4,a5
ffffffff80401f8e:	0000c797          	auipc	a5,0xc
ffffffff80401f92:	95278793          	addi	a5,a5,-1710 # ffffffff8040d8e0 <__FUNCTION__.1877+0x18>
ffffffff80401f96:	639c                	ld	a5,0(a5)
ffffffff80401f98:	02f707b3          	mul	a5,a4,a5
ffffffff80401f9c:	fef43423          	sd	a5,-24(s0)
ffffffff80401fa0:	fe843783          	ld	a5,-24(s0)
ffffffff80401fa4:	83fd                	srli	a5,a5,0x1f
ffffffff80401fa6:	fe843703          	ld	a4,-24(s0)
ffffffff80401faa:	8fb9                	xor	a5,a5,a4
ffffffff80401fac:	fef43423          	sd	a5,-24(s0)
ffffffff80401fb0:	fe843703          	ld	a4,-24(s0)
ffffffff80401fb4:	06400793          	li	a5,100
ffffffff80401fb8:	02f777b3          	remu	a5,a4,a5
ffffffff80401fbc:	2781                	sext.w	a5,a5
ffffffff80401fbe:	853e                	mv	a0,a5
ffffffff80401fc0:	6462                	ld	s0,24(sp)
ffffffff80401fc2:	6105                	addi	sp,sp,32
ffffffff80401fc4:	8082                	ret

ffffffff80401fc6 <get_node>:
ffffffff80401fc6:	715d                	addi	sp,sp,-80
ffffffff80401fc8:	e486                	sd	ra,72(sp)
ffffffff80401fca:	e0a2                	sd	s0,64(sp)
ffffffff80401fcc:	0880                	addi	s0,sp,80
ffffffff80401fce:	faa43c23          	sd	a0,-72(s0)
ffffffff80401fd2:	87ae                	mv	a5,a1
ffffffff80401fd4:	faf42a23          	sw	a5,-76(s0)
ffffffff80401fd8:	fb843783          	ld	a5,-72(s0)
ffffffff80401fdc:	853e                	mv	a0,a5
ffffffff80401fde:	f79ff0ef          	jal	ra,ffffffff80401f56 <futex_hash>
ffffffff80401fe2:	87aa                	mv	a5,a0
ffffffff80401fe4:	fef42223          	sw	a5,-28(s0)
ffffffff80401fe8:	fe442703          	lw	a4,-28(s0)
ffffffff80401fec:	87ba                	mv	a5,a4
ffffffff80401fee:	0786                	slli	a5,a5,0x1
ffffffff80401ff0:	97ba                	add	a5,a5,a4
ffffffff80401ff2:	078e                	slli	a5,a5,0x3
ffffffff80401ff4:	0001d717          	auipc	a4,0x1d
ffffffff80401ff8:	12c70713          	addi	a4,a4,300 # ffffffff8041f120 <futex_buckets>
ffffffff80401ffc:	97ba                	add	a5,a5,a4
ffffffff80401ffe:	fcf43c23          	sd	a5,-40(s0)
ffffffff80402002:	fd843783          	ld	a5,-40(s0)
ffffffff80402006:	639c                	ld	a5,0(a5)
ffffffff80402008:	fef43423          	sd	a5,-24(s0)
ffffffff8040200c:	a02d                	j	ffffffff80402036 <get_node+0x70>
ffffffff8040200e:	fe843783          	ld	a5,-24(s0)
ffffffff80402012:	17e1                	addi	a5,a5,-8
ffffffff80402014:	fcf43823          	sd	a5,-48(s0)
ffffffff80402018:	fd043783          	ld	a5,-48(s0)
ffffffff8040201c:	6398                	ld	a4,0(a5)
ffffffff8040201e:	fb843783          	ld	a5,-72(s0)
ffffffff80402022:	00f71563          	bne	a4,a5,ffffffff8040202c <get_node+0x66>
ffffffff80402026:	fd043783          	ld	a5,-48(s0)
ffffffff8040202a:	a88d                	j	ffffffff8040209c <get_node+0xd6>
ffffffff8040202c:	fe843783          	ld	a5,-24(s0)
ffffffff80402030:	639c                	ld	a5,0(a5)
ffffffff80402032:	fef43423          	sd	a5,-24(s0)
ffffffff80402036:	fe843703          	ld	a4,-24(s0)
ffffffff8040203a:	fd843783          	ld	a5,-40(s0)
ffffffff8040203e:	fcf718e3          	bne	a4,a5,ffffffff8040200e <get_node+0x48>
ffffffff80402042:	fb442783          	lw	a5,-76(s0)
ffffffff80402046:	2781                	sext.w	a5,a5
ffffffff80402048:	cba9                	beqz	a5,ffffffff8040209a <get_node+0xd4>
ffffffff8040204a:	03800513          	li	a0,56
ffffffff8040204e:	3e7020ef          	jal	ra,ffffffff80404c34 <kmalloc>
ffffffff80402052:	fca43423          	sd	a0,-56(s0)
ffffffff80402056:	fb843703          	ld	a4,-72(s0)
ffffffff8040205a:	fc843783          	ld	a5,-56(s0)
ffffffff8040205e:	e398                	sd	a4,0(a5)
ffffffff80402060:	fc843783          	ld	a5,-56(s0)
ffffffff80402064:	02078793          	addi	a5,a5,32
ffffffff80402068:	853e                	mv	a0,a5
ffffffff8040206a:	da5ff0ef          	jal	ra,ffffffff80401e0e <init_list_head>
ffffffff8040206e:	fc843783          	ld	a5,-56(s0)
ffffffff80402072:	00878693          	addi	a3,a5,8
ffffffff80402076:	fe442703          	lw	a4,-28(s0)
ffffffff8040207a:	87ba                	mv	a5,a4
ffffffff8040207c:	0786                	slli	a5,a5,0x1
ffffffff8040207e:	97ba                	add	a5,a5,a4
ffffffff80402080:	078e                	slli	a5,a5,0x3
ffffffff80402082:	0001d717          	auipc	a4,0x1d
ffffffff80402086:	09e70713          	addi	a4,a4,158 # ffffffff8041f120 <futex_buckets>
ffffffff8040208a:	97ba                	add	a5,a5,a4
ffffffff8040208c:	85be                	mv	a1,a5
ffffffff8040208e:	8536                	mv	a0,a3
ffffffff80402090:	de7ff0ef          	jal	ra,ffffffff80401e76 <list_add_tail>
ffffffff80402094:	fc843783          	ld	a5,-56(s0)
ffffffff80402098:	a011                	j	ffffffff8040209c <get_node+0xd6>
ffffffff8040209a:	4781                	li	a5,0
ffffffff8040209c:	853e                	mv	a0,a5
ffffffff8040209e:	60a6                	ld	ra,72(sp)
ffffffff804020a0:	6406                	ld	s0,64(sp)
ffffffff804020a2:	6161                	addi	sp,sp,80
ffffffff804020a4:	8082                	ret

ffffffff804020a6 <futex_wait>:
ffffffff804020a6:	7179                	addi	sp,sp,-48
ffffffff804020a8:	f406                	sd	ra,40(sp)
ffffffff804020aa:	f022                	sd	s0,32(sp)
ffffffff804020ac:	1800                	addi	s0,sp,48
ffffffff804020ae:	fca43c23          	sd	a0,-40(s0)
ffffffff804020b2:	fcb43823          	sd	a1,-48(s0)
ffffffff804020b6:	812fe0ef          	jal	ra,ffffffff804000c8 <disable_preempt>
ffffffff804020ba:	4585                	li	a1,1
ffffffff804020bc:	fd843503          	ld	a0,-40(s0)
ffffffff804020c0:	f07ff0ef          	jal	ra,ffffffff80401fc6 <get_node>
ffffffff804020c4:	fea43423          	sd	a0,-24(s0)
ffffffff804020c8:	fe843783          	ld	a5,-24(s0)
ffffffff804020cc:	ef89                	bnez	a5,ffffffff804020e6 <futex_wait+0x40>
ffffffff804020ce:	0000b617          	auipc	a2,0xb
ffffffff804020d2:	7fa60613          	addi	a2,a2,2042 # ffffffff8040d8c8 <__FUNCTION__.1877>
ffffffff804020d6:	03500593          	li	a1,53
ffffffff804020da:	0000b517          	auipc	a0,0xb
ffffffff804020de:	7ce50513          	addi	a0,a0,1998 # ffffffff8040d8a8 <__FUNCTION__.1902+0x58>
ffffffff804020e2:	dedff0ef          	jal	ra,ffffffff80401ece <_panic>
ffffffff804020e6:	fd843783          	ld	a5,-40(s0)
ffffffff804020ea:	639c                	ld	a5,0(a5)
ffffffff804020ec:	fd043703          	ld	a4,-48(s0)
ffffffff804020f0:	02f71363          	bne	a4,a5,ffffffff80402116 <futex_wait+0x70>
ffffffff804020f4:	0001e797          	auipc	a5,0x1e
ffffffff804020f8:	99478793          	addi	a5,a5,-1644 # ffffffff8041fa88 <current_running>
ffffffff804020fc:	639c                	ld	a5,0(a5)
ffffffff804020fe:	02878713          	addi	a4,a5,40
ffffffff80402102:	fe843783          	ld	a5,-24(s0)
ffffffff80402106:	02078793          	addi	a5,a5,32
ffffffff8040210a:	85be                	mv	a1,a5
ffffffff8040210c:	853a                	mv	a0,a4
ffffffff8040210e:	0de010ef          	jal	ra,ffffffff804031ec <do_block>
ffffffff80402112:	139000ef          	jal	ra,ffffffff80402a4a <do_scheduler>
ffffffff80402116:	f8bfd0ef          	jal	ra,ffffffff804000a0 <enable_preempt>
ffffffff8040211a:	0001                	nop
ffffffff8040211c:	70a2                	ld	ra,40(sp)
ffffffff8040211e:	7402                	ld	s0,32(sp)
ffffffff80402120:	6145                	addi	sp,sp,48
ffffffff80402122:	8082                	ret

ffffffff80402124 <futex_wakeup>:
ffffffff80402124:	7179                	addi	sp,sp,-48
ffffffff80402126:	f406                	sd	ra,40(sp)
ffffffff80402128:	f022                	sd	s0,32(sp)
ffffffff8040212a:	1800                	addi	s0,sp,48
ffffffff8040212c:	fca43c23          	sd	a0,-40(s0)
ffffffff80402130:	87ae                	mv	a5,a1
ffffffff80402132:	fcf42a23          	sw	a5,-44(s0)
ffffffff80402136:	f93fd0ef          	jal	ra,ffffffff804000c8 <disable_preempt>
ffffffff8040213a:	4581                	li	a1,0
ffffffff8040213c:	fd843503          	ld	a0,-40(s0)
ffffffff80402140:	e87ff0ef          	jal	ra,ffffffff80401fc6 <get_node>
ffffffff80402144:	fea43023          	sd	a0,-32(s0)
ffffffff80402148:	fe043783          	ld	a5,-32(s0)
ffffffff8040214c:	c3b1                	beqz	a5,ffffffff80402190 <futex_wakeup+0x6c>
ffffffff8040214e:	fe042623          	sw	zero,-20(s0)
ffffffff80402152:	a02d                	j	ffffffff8040217c <futex_wakeup+0x58>
ffffffff80402154:	fe043783          	ld	a5,-32(s0)
ffffffff80402158:	02078793          	addi	a5,a5,32
ffffffff8040215c:	853e                	mv	a0,a5
ffffffff8040215e:	d47ff0ef          	jal	ra,ffffffff80401ea4 <list_empty>
ffffffff80402162:	87aa                	mv	a5,a0
ffffffff80402164:	e78d                	bnez	a5,ffffffff8040218e <futex_wakeup+0x6a>
ffffffff80402166:	fe043783          	ld	a5,-32(s0)
ffffffff8040216a:	739c                	ld	a5,32(a5)
ffffffff8040216c:	853e                	mv	a0,a5
ffffffff8040216e:	0b8010ef          	jal	ra,ffffffff80403226 <do_unblock>
ffffffff80402172:	fec42783          	lw	a5,-20(s0)
ffffffff80402176:	2785                	addiw	a5,a5,1
ffffffff80402178:	fef42623          	sw	a5,-20(s0)
ffffffff8040217c:	fec42703          	lw	a4,-20(s0)
ffffffff80402180:	fd442783          	lw	a5,-44(s0)
ffffffff80402184:	2701                	sext.w	a4,a4
ffffffff80402186:	2781                	sext.w	a5,a5
ffffffff80402188:	fcf746e3          	blt	a4,a5,ffffffff80402154 <futex_wakeup+0x30>
ffffffff8040218c:	a011                	j	ffffffff80402190 <futex_wakeup+0x6c>
ffffffff8040218e:	0001                	nop
ffffffff80402190:	0bb000ef          	jal	ra,ffffffff80402a4a <do_scheduler>
ffffffff80402194:	f0dfd0ef          	jal	ra,ffffffff804000a0 <enable_preempt>
ffffffff80402198:	0001                	nop
ffffffff8040219a:	70a2                	ld	ra,40(sp)
ffffffff8040219c:	7402                	ld	s0,32(sp)
ffffffff8040219e:	6145                	addi	sp,sp,48
ffffffff804021a0:	8082                	ret

ffffffff804021a2 <init_list_head>:
ffffffff804021a2:	1101                	addi	sp,sp,-32
ffffffff804021a4:	ec22                	sd	s0,24(sp)
ffffffff804021a6:	1000                	addi	s0,sp,32
ffffffff804021a8:	fea43423          	sd	a0,-24(s0)
ffffffff804021ac:	fe843783          	ld	a5,-24(s0)
ffffffff804021b0:	fe843703          	ld	a4,-24(s0)
ffffffff804021b4:	e398                	sd	a4,0(a5)
ffffffff804021b6:	fe843783          	ld	a5,-24(s0)
ffffffff804021ba:	fe843703          	ld	a4,-24(s0)
ffffffff804021be:	e798                	sd	a4,8(a5)
ffffffff804021c0:	0001                	nop
ffffffff804021c2:	6462                	ld	s0,24(sp)
ffffffff804021c4:	6105                	addi	sp,sp,32
ffffffff804021c6:	8082                	ret

ffffffff804021c8 <_list_add>:
ffffffff804021c8:	7179                	addi	sp,sp,-48
ffffffff804021ca:	f422                	sd	s0,40(sp)
ffffffff804021cc:	1800                	addi	s0,sp,48
ffffffff804021ce:	fea43423          	sd	a0,-24(s0)
ffffffff804021d2:	feb43023          	sd	a1,-32(s0)
ffffffff804021d6:	fcc43c23          	sd	a2,-40(s0)
ffffffff804021da:	fd843783          	ld	a5,-40(s0)
ffffffff804021de:	fe843703          	ld	a4,-24(s0)
ffffffff804021e2:	e798                	sd	a4,8(a5)
ffffffff804021e4:	fe843783          	ld	a5,-24(s0)
ffffffff804021e8:	fd843703          	ld	a4,-40(s0)
ffffffff804021ec:	e398                	sd	a4,0(a5)
ffffffff804021ee:	fe843783          	ld	a5,-24(s0)
ffffffff804021f2:	fe043703          	ld	a4,-32(s0)
ffffffff804021f6:	e798                	sd	a4,8(a5)
ffffffff804021f8:	fe043783          	ld	a5,-32(s0)
ffffffff804021fc:	fe843703          	ld	a4,-24(s0)
ffffffff80402200:	e398                	sd	a4,0(a5)
ffffffff80402202:	0001                	nop
ffffffff80402204:	7422                	ld	s0,40(sp)
ffffffff80402206:	6145                	addi	sp,sp,48
ffffffff80402208:	8082                	ret

ffffffff8040220a <_list_del>:
ffffffff8040220a:	1101                	addi	sp,sp,-32
ffffffff8040220c:	ec22                	sd	s0,24(sp)
ffffffff8040220e:	1000                	addi	s0,sp,32
ffffffff80402210:	fea43423          	sd	a0,-24(s0)
ffffffff80402214:	feb43023          	sd	a1,-32(s0)
ffffffff80402218:	fe043783          	ld	a5,-32(s0)
ffffffff8040221c:	fe843703          	ld	a4,-24(s0)
ffffffff80402220:	e798                	sd	a4,8(a5)
ffffffff80402222:	fe843783          	ld	a5,-24(s0)
ffffffff80402226:	fe043703          	ld	a4,-32(s0)
ffffffff8040222a:	e398                	sd	a4,0(a5)
ffffffff8040222c:	0001                	nop
ffffffff8040222e:	6462                	ld	s0,24(sp)
ffffffff80402230:	6105                	addi	sp,sp,32
ffffffff80402232:	8082                	ret

ffffffff80402234 <list_del>:
ffffffff80402234:	1101                	addi	sp,sp,-32
ffffffff80402236:	ec06                	sd	ra,24(sp)
ffffffff80402238:	e822                	sd	s0,16(sp)
ffffffff8040223a:	1000                	addi	s0,sp,32
ffffffff8040223c:	fea43423          	sd	a0,-24(s0)
ffffffff80402240:	fe843783          	ld	a5,-24(s0)
ffffffff80402244:	679c                	ld	a5,8(a5)
ffffffff80402246:	c79d                	beqz	a5,ffffffff80402274 <list_del+0x40>
ffffffff80402248:	fe843783          	ld	a5,-24(s0)
ffffffff8040224c:	639c                	ld	a5,0(a5)
ffffffff8040224e:	c39d                	beqz	a5,ffffffff80402274 <list_del+0x40>
ffffffff80402250:	fe843783          	ld	a5,-24(s0)
ffffffff80402254:	6798                	ld	a4,8(a5)
ffffffff80402256:	fe843783          	ld	a5,-24(s0)
ffffffff8040225a:	639c                	ld	a5,0(a5)
ffffffff8040225c:	85be                	mv	a1,a5
ffffffff8040225e:	853a                	mv	a0,a4
ffffffff80402260:	fabff0ef          	jal	ra,ffffffff8040220a <_list_del>
ffffffff80402264:	fe843783          	ld	a5,-24(s0)
ffffffff80402268:	0007b423          	sd	zero,8(a5)
ffffffff8040226c:	fe843783          	ld	a5,-24(s0)
ffffffff80402270:	0007b023          	sd	zero,0(a5)
ffffffff80402274:	0001                	nop
ffffffff80402276:	60e2                	ld	ra,24(sp)
ffffffff80402278:	6442                	ld	s0,16(sp)
ffffffff8040227a:	6105                	addi	sp,sp,32
ffffffff8040227c:	8082                	ret

ffffffff8040227e <list_add_tail>:
ffffffff8040227e:	1101                	addi	sp,sp,-32
ffffffff80402280:	ec06                	sd	ra,24(sp)
ffffffff80402282:	e822                	sd	s0,16(sp)
ffffffff80402284:	1000                	addi	s0,sp,32
ffffffff80402286:	fea43423          	sd	a0,-24(s0)
ffffffff8040228a:	feb43023          	sd	a1,-32(s0)
ffffffff8040228e:	fe043783          	ld	a5,-32(s0)
ffffffff80402292:	679c                	ld	a5,8(a5)
ffffffff80402294:	fe043603          	ld	a2,-32(s0)
ffffffff80402298:	85be                	mv	a1,a5
ffffffff8040229a:	fe843503          	ld	a0,-24(s0)
ffffffff8040229e:	f2bff0ef          	jal	ra,ffffffff804021c8 <_list_add>
ffffffff804022a2:	0001                	nop
ffffffff804022a4:	60e2                	ld	ra,24(sp)
ffffffff804022a6:	6442                	ld	s0,16(sp)
ffffffff804022a8:	6105                	addi	sp,sp,32
ffffffff804022aa:	8082                	ret

ffffffff804022ac <_panic>:
ffffffff804022ac:	7179                	addi	sp,sp,-48
ffffffff804022ae:	f406                	sd	ra,40(sp)
ffffffff804022b0:	f022                	sd	s0,32(sp)
ffffffff804022b2:	1800                	addi	s0,sp,48
ffffffff804022b4:	fea43423          	sd	a0,-24(s0)
ffffffff804022b8:	87ae                	mv	a5,a1
ffffffff804022ba:	fcc43c23          	sd	a2,-40(s0)
ffffffff804022be:	fef42223          	sw	a5,-28(s0)
ffffffff804022c2:	fe442783          	lw	a5,-28(s0)
ffffffff804022c6:	86be                	mv	a3,a5
ffffffff804022c8:	fe843603          	ld	a2,-24(s0)
ffffffff804022cc:	fd843583          	ld	a1,-40(s0)
ffffffff804022d0:	0000b517          	auipc	a0,0xb
ffffffff804022d4:	61850513          	addi	a0,a0,1560 # ffffffff8040d8e8 <__FUNCTION__.1877+0x20>
ffffffff804022d8:	484040ef          	jal	ra,ffffffff8040675c <printk>
ffffffff804022dc:	a001                	j	ffffffff804022dc <_panic+0x30>

ffffffff804022de <kva2pa>:
ffffffff804022de:	1101                	addi	sp,sp,-32
ffffffff804022e0:	ec22                	sd	s0,24(sp)
ffffffff804022e2:	1000                	addi	s0,sp,32
ffffffff804022e4:	fea43423          	sd	a0,-24(s0)
ffffffff804022e8:	fe843703          	ld	a4,-24(s0)
ffffffff804022ec:	4785                	li	a5,1
ffffffff804022ee:	1782                	slli	a5,a5,0x20
ffffffff804022f0:	97ba                	add	a5,a5,a4
ffffffff804022f2:	853e                	mv	a0,a5
ffffffff804022f4:	6462                	ld	s0,24(sp)
ffffffff804022f6:	6105                	addi	sp,sp,32
ffffffff804022f8:	8082                	ret

ffffffff804022fa <pa2kva>:
ffffffff804022fa:	1101                	addi	sp,sp,-32
ffffffff804022fc:	ec22                	sd	s0,24(sp)
ffffffff804022fe:	1000                	addi	s0,sp,32
ffffffff80402300:	fea43423          	sd	a0,-24(s0)
ffffffff80402304:	fe843703          	ld	a4,-24(s0)
ffffffff80402308:	57fd                	li	a5,-1
ffffffff8040230a:	1782                	slli	a5,a5,0x20
ffffffff8040230c:	97ba                	add	a5,a5,a4
ffffffff8040230e:	853e                	mv	a0,a5
ffffffff80402310:	6462                	ld	s0,24(sp)
ffffffff80402312:	6105                	addi	sp,sp,32
ffffffff80402314:	8082                	ret

ffffffff80402316 <get_pfn>:
ffffffff80402316:	1101                	addi	sp,sp,-32
ffffffff80402318:	ec22                	sd	s0,24(sp)
ffffffff8040231a:	1000                	addi	s0,sp,32
ffffffff8040231c:	fea43423          	sd	a0,-24(s0)
ffffffff80402320:	fe843783          	ld	a5,-24(s0)
ffffffff80402324:	83a9                	srli	a5,a5,0xa
ffffffff80402326:	853e                	mv	a0,a5
ffffffff80402328:	6462                	ld	s0,24(sp)
ffffffff8040232a:	6105                	addi	sp,sp,32
ffffffff8040232c:	8082                	ret

ffffffff8040232e <get_attribute>:
ffffffff8040232e:	1101                	addi	sp,sp,-32
ffffffff80402330:	ec22                	sd	s0,24(sp)
ffffffff80402332:	1000                	addi	s0,sp,32
ffffffff80402334:	fea43423          	sd	a0,-24(s0)
ffffffff80402338:	feb43023          	sd	a1,-32(s0)
ffffffff8040233c:	fe843703          	ld	a4,-24(s0)
ffffffff80402340:	fe043783          	ld	a5,-32(s0)
ffffffff80402344:	8ff9                	and	a5,a5,a4
ffffffff80402346:	853e                	mv	a0,a5
ffffffff80402348:	6462                	ld	s0,24(sp)
ffffffff8040234a:	6105                	addi	sp,sp,32
ffffffff8040234c:	8082                	ret

ffffffff8040234e <get_kva_of>:
ffffffff8040234e:	711d                	addi	sp,sp,-96
ffffffff80402350:	ec86                	sd	ra,88(sp)
ffffffff80402352:	e8a2                	sd	s0,80(sp)
ffffffff80402354:	e4a6                	sd	s1,72(sp)
ffffffff80402356:	1080                	addi	s0,sp,96
ffffffff80402358:	faa43423          	sd	a0,-88(s0)
ffffffff8040235c:	fab43023          	sd	a1,-96(s0)
ffffffff80402360:	fa843783          	ld	a5,-88(s0)
ffffffff80402364:	83f9                	srli	a5,a5,0x1e
ffffffff80402366:	1ff7f793          	andi	a5,a5,511
ffffffff8040236a:	fcf43823          	sd	a5,-48(s0)
ffffffff8040236e:	fa843783          	ld	a5,-88(s0)
ffffffff80402372:	83d5                	srli	a5,a5,0x15
ffffffff80402374:	1ff7f793          	andi	a5,a5,511
ffffffff80402378:	fcf43423          	sd	a5,-56(s0)
ffffffff8040237c:	fa843783          	ld	a5,-88(s0)
ffffffff80402380:	83b1                	srli	a5,a5,0xc
ffffffff80402382:	1ff7f793          	andi	a5,a5,511
ffffffff80402386:	fcf43023          	sd	a5,-64(s0)
ffffffff8040238a:	fa843703          	ld	a4,-88(s0)
ffffffff8040238e:	6785                	lui	a5,0x1
ffffffff80402390:	17fd                	addi	a5,a5,-1
ffffffff80402392:	8ff9                	and	a5,a5,a4
ffffffff80402394:	faf43c23          	sd	a5,-72(s0)
ffffffff80402398:	fd043783          	ld	a5,-48(s0)
ffffffff8040239c:	00379713          	slli	a4,a5,0x3
ffffffff804023a0:	fa043783          	ld	a5,-96(s0)
ffffffff804023a4:	97ba                	add	a5,a5,a4
ffffffff804023a6:	fcf43c23          	sd	a5,-40(s0)
ffffffff804023aa:	fd843783          	ld	a5,-40(s0)
ffffffff804023ae:	639c                	ld	a5,0(a5)
ffffffff804023b0:	4585                	li	a1,1
ffffffff804023b2:	853e                	mv	a0,a5
ffffffff804023b4:	f7bff0ef          	jal	ra,ffffffff8040232e <get_attribute>
ffffffff804023b8:	87aa                	mv	a5,a0
ffffffff804023ba:	ef91                	bnez	a5,ffffffff804023d6 <get_kva_of+0x88>
ffffffff804023bc:	0000b617          	auipc	a2,0xb
ffffffff804023c0:	5ac60613          	addi	a2,a2,1452 # ffffffff8040d968 <__FUNCTION__.1237>
ffffffff804023c4:	0a400593          	li	a1,164
ffffffff804023c8:	0000b517          	auipc	a0,0xb
ffffffff804023cc:	54850513          	addi	a0,a0,1352 # ffffffff8040d910 <__FUNCTION__.1877+0x48>
ffffffff804023d0:	eddff0ef          	jal	ra,ffffffff804022ac <_panic>
ffffffff804023d4:	a84d                	j	ffffffff80402486 <get_kva_of+0x138>
ffffffff804023d6:	fd843783          	ld	a5,-40(s0)
ffffffff804023da:	639c                	ld	a5,0(a5)
ffffffff804023dc:	4589                	li	a1,2
ffffffff804023de:	853e                	mv	a0,a5
ffffffff804023e0:	f4fff0ef          	jal	ra,ffffffff8040232e <get_attribute>
ffffffff804023e4:	87aa                	mv	a5,a0
ffffffff804023e6:	0017b793          	seqz	a5,a5
ffffffff804023ea:	0ff7f493          	andi	s1,a5,255
ffffffff804023ee:	fd843783          	ld	a5,-40(s0)
ffffffff804023f2:	639c                	ld	a5,0(a5)
ffffffff804023f4:	4591                	li	a1,4
ffffffff804023f6:	853e                	mv	a0,a5
ffffffff804023f8:	f37ff0ef          	jal	ra,ffffffff8040232e <get_attribute>
ffffffff804023fc:	87aa                	mv	a5,a0
ffffffff804023fe:	0017b793          	seqz	a5,a5
ffffffff80402402:	0ff7f793          	andi	a5,a5,255
ffffffff80402406:	8fe5                	and	a5,a5,s1
ffffffff80402408:	0ff7f793          	andi	a5,a5,255
ffffffff8040240c:	0007849b          	sext.w	s1,a5
ffffffff80402410:	fd843783          	ld	a5,-40(s0)
ffffffff80402414:	639c                	ld	a5,0(a5)
ffffffff80402416:	45a1                	li	a1,8
ffffffff80402418:	853e                	mv	a0,a5
ffffffff8040241a:	f15ff0ef          	jal	ra,ffffffff8040232e <get_attribute>
ffffffff8040241e:	87aa                	mv	a5,a0
ffffffff80402420:	0017b793          	seqz	a5,a5
ffffffff80402424:	0ff7f793          	andi	a5,a5,255
ffffffff80402428:	2781                	sext.w	a5,a5
ffffffff8040242a:	8fe5                	and	a5,a5,s1
ffffffff8040242c:	2781                	sext.w	a5,a5
ffffffff8040242e:	c785                	beqz	a5,ffffffff80402456 <get_kva_of+0x108>
ffffffff80402430:	fd843783          	ld	a5,-40(s0)
ffffffff80402434:	639c                	ld	a5,0(a5)
ffffffff80402436:	853e                	mv	a0,a5
ffffffff80402438:	edfff0ef          	jal	ra,ffffffff80402316 <get_pfn>
ffffffff8040243c:	87aa                	mv	a5,a0
ffffffff8040243e:	07b2                	slli	a5,a5,0xc
ffffffff80402440:	853e                	mv	a0,a5
ffffffff80402442:	eb9ff0ef          	jal	ra,ffffffff804022fa <pa2kva>
ffffffff80402446:	872a                	mv	a4,a0
ffffffff80402448:	fc843783          	ld	a5,-56(s0)
ffffffff8040244c:	078e                	slli	a5,a5,0x3
ffffffff8040244e:	97ba                	add	a5,a5,a4
ffffffff80402450:	fcf43c23          	sd	a5,-40(s0)
ffffffff80402454:	a80d                	j	ffffffff80402486 <get_kva_of+0x138>
ffffffff80402456:	fd843783          	ld	a5,-40(s0)
ffffffff8040245a:	639c                	ld	a5,0(a5)
ffffffff8040245c:	853e                	mv	a0,a5
ffffffff8040245e:	eb9ff0ef          	jal	ra,ffffffff80402316 <get_pfn>
ffffffff80402462:	87aa                	mv	a5,a0
ffffffff80402464:	07b2                	slli	a5,a5,0xc
ffffffff80402466:	853e                	mv	a0,a5
ffffffff80402468:	e93ff0ef          	jal	ra,ffffffff804022fa <pa2kva>
ffffffff8040246c:	872a                	mv	a4,a0
ffffffff8040246e:	fc843783          	ld	a5,-56(s0)
ffffffff80402472:	07d6                	slli	a5,a5,0x15
ffffffff80402474:	973e                	add	a4,a4,a5
ffffffff80402476:	fc043783          	ld	a5,-64(s0)
ffffffff8040247a:	07b2                	slli	a5,a5,0xc
ffffffff8040247c:	973e                	add	a4,a4,a5
ffffffff8040247e:	fb843783          	ld	a5,-72(s0)
ffffffff80402482:	97ba                	add	a5,a5,a4
ffffffff80402484:	aa59                	j	ffffffff8040261a <get_kva_of+0x2cc>
ffffffff80402486:	fd843783          	ld	a5,-40(s0)
ffffffff8040248a:	639c                	ld	a5,0(a5)
ffffffff8040248c:	4585                	li	a1,1
ffffffff8040248e:	853e                	mv	a0,a5
ffffffff80402490:	e9fff0ef          	jal	ra,ffffffff8040232e <get_attribute>
ffffffff80402494:	87aa                	mv	a5,a0
ffffffff80402496:	ef91                	bnez	a5,ffffffff804024b2 <get_kva_of+0x164>
ffffffff80402498:	0000b617          	auipc	a2,0xb
ffffffff8040249c:	4d060613          	addi	a2,a2,1232 # ffffffff8040d968 <__FUNCTION__.1237>
ffffffff804024a0:	0ac00593          	li	a1,172
ffffffff804024a4:	0000b517          	auipc	a0,0xb
ffffffff804024a8:	46c50513          	addi	a0,a0,1132 # ffffffff8040d910 <__FUNCTION__.1877+0x48>
ffffffff804024ac:	e01ff0ef          	jal	ra,ffffffff804022ac <_panic>
ffffffff804024b0:	a06d                	j	ffffffff8040255a <get_kva_of+0x20c>
ffffffff804024b2:	fd843783          	ld	a5,-40(s0)
ffffffff804024b6:	639c                	ld	a5,0(a5)
ffffffff804024b8:	4589                	li	a1,2
ffffffff804024ba:	853e                	mv	a0,a5
ffffffff804024bc:	e73ff0ef          	jal	ra,ffffffff8040232e <get_attribute>
ffffffff804024c0:	87aa                	mv	a5,a0
ffffffff804024c2:	0017b793          	seqz	a5,a5
ffffffff804024c6:	0ff7f493          	andi	s1,a5,255
ffffffff804024ca:	fd843783          	ld	a5,-40(s0)
ffffffff804024ce:	639c                	ld	a5,0(a5)
ffffffff804024d0:	4591                	li	a1,4
ffffffff804024d2:	853e                	mv	a0,a5
ffffffff804024d4:	e5bff0ef          	jal	ra,ffffffff8040232e <get_attribute>
ffffffff804024d8:	87aa                	mv	a5,a0
ffffffff804024da:	0017b793          	seqz	a5,a5
ffffffff804024de:	0ff7f793          	andi	a5,a5,255
ffffffff804024e2:	8fe5                	and	a5,a5,s1
ffffffff804024e4:	0ff7f793          	andi	a5,a5,255
ffffffff804024e8:	0007849b          	sext.w	s1,a5
ffffffff804024ec:	fd843783          	ld	a5,-40(s0)
ffffffff804024f0:	639c                	ld	a5,0(a5)
ffffffff804024f2:	45a1                	li	a1,8
ffffffff804024f4:	853e                	mv	a0,a5
ffffffff804024f6:	e39ff0ef          	jal	ra,ffffffff8040232e <get_attribute>
ffffffff804024fa:	87aa                	mv	a5,a0
ffffffff804024fc:	0017b793          	seqz	a5,a5
ffffffff80402500:	0ff7f793          	andi	a5,a5,255
ffffffff80402504:	2781                	sext.w	a5,a5
ffffffff80402506:	8fe5                	and	a5,a5,s1
ffffffff80402508:	2781                	sext.w	a5,a5
ffffffff8040250a:	c785                	beqz	a5,ffffffff80402532 <get_kva_of+0x1e4>
ffffffff8040250c:	fd843783          	ld	a5,-40(s0)
ffffffff80402510:	639c                	ld	a5,0(a5)
ffffffff80402512:	853e                	mv	a0,a5
ffffffff80402514:	e03ff0ef          	jal	ra,ffffffff80402316 <get_pfn>
ffffffff80402518:	87aa                	mv	a5,a0
ffffffff8040251a:	07b2                	slli	a5,a5,0xc
ffffffff8040251c:	853e                	mv	a0,a5
ffffffff8040251e:	dddff0ef          	jal	ra,ffffffff804022fa <pa2kva>
ffffffff80402522:	872a                	mv	a4,a0
ffffffff80402524:	fc043783          	ld	a5,-64(s0)
ffffffff80402528:	078e                	slli	a5,a5,0x3
ffffffff8040252a:	97ba                	add	a5,a5,a4
ffffffff8040252c:	fcf43c23          	sd	a5,-40(s0)
ffffffff80402530:	a02d                	j	ffffffff8040255a <get_kva_of+0x20c>
ffffffff80402532:	fd843783          	ld	a5,-40(s0)
ffffffff80402536:	639c                	ld	a5,0(a5)
ffffffff80402538:	853e                	mv	a0,a5
ffffffff8040253a:	dddff0ef          	jal	ra,ffffffff80402316 <get_pfn>
ffffffff8040253e:	87aa                	mv	a5,a0
ffffffff80402540:	07b2                	slli	a5,a5,0xc
ffffffff80402542:	853e                	mv	a0,a5
ffffffff80402544:	db7ff0ef          	jal	ra,ffffffff804022fa <pa2kva>
ffffffff80402548:	872a                	mv	a4,a0
ffffffff8040254a:	fc043783          	ld	a5,-64(s0)
ffffffff8040254e:	07b2                	slli	a5,a5,0xc
ffffffff80402550:	973e                	add	a4,a4,a5
ffffffff80402552:	fb843783          	ld	a5,-72(s0)
ffffffff80402556:	97ba                	add	a5,a5,a4
ffffffff80402558:	a0c9                	j	ffffffff8040261a <get_kva_of+0x2cc>
ffffffff8040255a:	fd843783          	ld	a5,-40(s0)
ffffffff8040255e:	639c                	ld	a5,0(a5)
ffffffff80402560:	4585                	li	a1,1
ffffffff80402562:	853e                	mv	a0,a5
ffffffff80402564:	dcbff0ef          	jal	ra,ffffffff8040232e <get_attribute>
ffffffff80402568:	87aa                	mv	a5,a0
ffffffff8040256a:	ef91                	bnez	a5,ffffffff80402586 <get_kva_of+0x238>
ffffffff8040256c:	0000b617          	auipc	a2,0xb
ffffffff80402570:	3fc60613          	addi	a2,a2,1020 # ffffffff8040d968 <__FUNCTION__.1237>
ffffffff80402574:	0b400593          	li	a1,180
ffffffff80402578:	0000b517          	auipc	a0,0xb
ffffffff8040257c:	39850513          	addi	a0,a0,920 # ffffffff8040d910 <__FUNCTION__.1877+0x48>
ffffffff80402580:	d2dff0ef          	jal	ra,ffffffff804022ac <_panic>
ffffffff80402584:	a859                	j	ffffffff8040261a <get_kva_of+0x2cc>
ffffffff80402586:	fd843783          	ld	a5,-40(s0)
ffffffff8040258a:	639c                	ld	a5,0(a5)
ffffffff8040258c:	4589                	li	a1,2
ffffffff8040258e:	853e                	mv	a0,a5
ffffffff80402590:	d9fff0ef          	jal	ra,ffffffff8040232e <get_attribute>
ffffffff80402594:	87aa                	mv	a5,a0
ffffffff80402596:	0017b793          	seqz	a5,a5
ffffffff8040259a:	0ff7f493          	andi	s1,a5,255
ffffffff8040259e:	fd843783          	ld	a5,-40(s0)
ffffffff804025a2:	639c                	ld	a5,0(a5)
ffffffff804025a4:	4591                	li	a1,4
ffffffff804025a6:	853e                	mv	a0,a5
ffffffff804025a8:	d87ff0ef          	jal	ra,ffffffff8040232e <get_attribute>
ffffffff804025ac:	87aa                	mv	a5,a0
ffffffff804025ae:	0017b793          	seqz	a5,a5
ffffffff804025b2:	0ff7f793          	andi	a5,a5,255
ffffffff804025b6:	8fe5                	and	a5,a5,s1
ffffffff804025b8:	0ff7f793          	andi	a5,a5,255
ffffffff804025bc:	0007849b          	sext.w	s1,a5
ffffffff804025c0:	fd843783          	ld	a5,-40(s0)
ffffffff804025c4:	639c                	ld	a5,0(a5)
ffffffff804025c6:	45a1                	li	a1,8
ffffffff804025c8:	853e                	mv	a0,a5
ffffffff804025ca:	d65ff0ef          	jal	ra,ffffffff8040232e <get_attribute>
ffffffff804025ce:	87aa                	mv	a5,a0
ffffffff804025d0:	0017b793          	seqz	a5,a5
ffffffff804025d4:	0ff7f793          	andi	a5,a5,255
ffffffff804025d8:	2781                	sext.w	a5,a5
ffffffff804025da:	8fe5                	and	a5,a5,s1
ffffffff804025dc:	2781                	sext.w	a5,a5
ffffffff804025de:	cf91                	beqz	a5,ffffffff804025fa <get_kva_of+0x2ac>
ffffffff804025e0:	0000b617          	auipc	a2,0xb
ffffffff804025e4:	38860613          	addi	a2,a2,904 # ffffffff8040d968 <__FUNCTION__.1237>
ffffffff804025e8:	0b700593          	li	a1,183
ffffffff804025ec:	0000b517          	auipc	a0,0xb
ffffffff804025f0:	32450513          	addi	a0,a0,804 # ffffffff8040d910 <__FUNCTION__.1877+0x48>
ffffffff804025f4:	cb9ff0ef          	jal	ra,ffffffff804022ac <_panic>
ffffffff804025f8:	a00d                	j	ffffffff8040261a <get_kva_of+0x2cc>
ffffffff804025fa:	fd843783          	ld	a5,-40(s0)
ffffffff804025fe:	639c                	ld	a5,0(a5)
ffffffff80402600:	853e                	mv	a0,a5
ffffffff80402602:	d15ff0ef          	jal	ra,ffffffff80402316 <get_pfn>
ffffffff80402606:	87aa                	mv	a5,a0
ffffffff80402608:	07b2                	slli	a5,a5,0xc
ffffffff8040260a:	853e                	mv	a0,a5
ffffffff8040260c:	cefff0ef          	jal	ra,ffffffff804022fa <pa2kva>
ffffffff80402610:	872a                	mv	a4,a0
ffffffff80402612:	fb843783          	ld	a5,-72(s0)
ffffffff80402616:	97ba                	add	a5,a5,a4
ffffffff80402618:	a009                	j	ffffffff8040261a <get_kva_of+0x2cc>
ffffffff8040261a:	853e                	mv	a0,a5
ffffffff8040261c:	60e6                	ld	ra,88(sp)
ffffffff8040261e:	6446                	ld	s0,80(sp)
ffffffff80402620:	64a6                	ld	s1,72(sp)
ffffffff80402622:	6125                	addi	sp,sp,96
ffffffff80402624:	8082                	ret

ffffffff80402626 <clear_pgdir>:
ffffffff80402626:	7179                	addi	sp,sp,-48
ffffffff80402628:	f422                	sd	s0,40(sp)
ffffffff8040262a:	1800                	addi	s0,sp,48
ffffffff8040262c:	fca43c23          	sd	a0,-40(s0)
ffffffff80402630:	fd843783          	ld	a5,-40(s0)
ffffffff80402634:	fef43423          	sd	a5,-24(s0)
ffffffff80402638:	fe042223          	sw	zero,-28(s0)
ffffffff8040263c:	a839                	j	ffffffff8040265a <clear_pgdir+0x34>
ffffffff8040263e:	fe843783          	ld	a5,-24(s0)
ffffffff80402642:	0007b023          	sd	zero,0(a5) # 1000 <_start-0xffffffff803ff000>
ffffffff80402646:	fe843783          	ld	a5,-24(s0)
ffffffff8040264a:	07a1                	addi	a5,a5,8
ffffffff8040264c:	fef43423          	sd	a5,-24(s0)
ffffffff80402650:	fe442783          	lw	a5,-28(s0)
ffffffff80402654:	2785                	addiw	a5,a5,1
ffffffff80402656:	fef42223          	sw	a5,-28(s0)
ffffffff8040265a:	fe442783          	lw	a5,-28(s0)
ffffffff8040265e:	0007871b          	sext.w	a4,a5
ffffffff80402662:	1ff00793          	li	a5,511
ffffffff80402666:	fce7dce3          	bge	a5,a4,ffffffff8040263e <clear_pgdir+0x18>
ffffffff8040266a:	0001                	nop
ffffffff8040266c:	7422                	ld	s0,40(sp)
ffffffff8040266e:	6145                	addi	sp,sp,48
ffffffff80402670:	8082                	ret

ffffffff80402672 <init_pcb_default>:
ffffffff80402672:	7179                	addi	sp,sp,-48
ffffffff80402674:	f406                	sd	ra,40(sp)
ffffffff80402676:	f022                	sd	s0,32(sp)
ffffffff80402678:	1800                	addi	s0,sp,48
ffffffff8040267a:	fca43c23          	sd	a0,-40(s0)
ffffffff8040267e:	87ae                	mv	a5,a1
ffffffff80402680:	fcf42a23          	sw	a5,-44(s0)
ffffffff80402684:	fd843783          	ld	a5,-40(s0)
ffffffff80402688:	0007b823          	sd	zero,16(a5)
ffffffff8040268c:	fd843703          	ld	a4,-40(s0)
ffffffff80402690:	fd843783          	ld	a5,-40(s0)
ffffffff80402694:	ff98                	sd	a4,56(a5)
ffffffff80402696:	00016797          	auipc	a5,0x16
ffffffff8040269a:	fb278793          	addi	a5,a5,-78 # ffffffff80418648 <process_id>
ffffffff8040269e:	439c                	lw	a5,0(a5)
ffffffff804026a0:	0017871b          	addiw	a4,a5,1
ffffffff804026a4:	0007069b          	sext.w	a3,a4
ffffffff804026a8:	00016717          	auipc	a4,0x16
ffffffff804026ac:	fa070713          	addi	a4,a4,-96 # ffffffff80418648 <process_id>
ffffffff804026b0:	c314                	sw	a3,0(a4)
ffffffff804026b2:	fd843703          	ld	a4,-40(s0)
ffffffff804026b6:	cf3c                	sw	a5,88(a4)
ffffffff804026b8:	fd843783          	ld	a5,-40(s0)
ffffffff804026bc:	fd442703          	lw	a4,-44(s0)
ffffffff804026c0:	cff8                	sw	a4,92(a5)
ffffffff804026c2:	fd843783          	ld	a5,-40(s0)
ffffffff804026c6:	04078793          	addi	a5,a5,64
ffffffff804026ca:	853e                	mv	a0,a5
ffffffff804026cc:	ad7ff0ef          	jal	ra,ffffffff804021a2 <init_list_head>
ffffffff804026d0:	fd843783          	ld	a5,-40(s0)
ffffffff804026d4:	4709                	li	a4,2
ffffffff804026d6:	d3b8                	sw	a4,96(a5)
ffffffff804026d8:	fd843783          	ld	a5,-40(s0)
ffffffff804026dc:	4705                	li	a4,1
ffffffff804026de:	d7f8                	sw	a4,108(a5)
ffffffff804026e0:	fd843783          	ld	a5,-40(s0)
ffffffff804026e4:	57f8                	lw	a4,108(a5)
ffffffff804026e6:	fd843783          	ld	a5,-40(s0)
ffffffff804026ea:	dbb8                	sw	a4,112(a5)
ffffffff804026ec:	fd843783          	ld	a5,-40(s0)
ffffffff804026f0:	4705                	li	a4,1
ffffffff804026f2:	d3f8                	sw	a4,100(a5)
ffffffff804026f4:	fd843783          	ld	a5,-40(s0)
ffffffff804026f8:	0607a423          	sw	zero,104(a5)
ffffffff804026fc:	fd843783          	ld	a5,-40(s0)
ffffffff80402700:	4705                	li	a4,1
ffffffff80402702:	08e7a423          	sw	a4,136(a5)
ffffffff80402706:	fd843783          	ld	a5,-40(s0)
ffffffff8040270a:	4705                	li	a4,1
ffffffff8040270c:	08e7a623          	sw	a4,140(a5)
ffffffff80402710:	fd843783          	ld	a5,-40(s0)
ffffffff80402714:	473d                	li	a4,15
ffffffff80402716:	ffb8                	sd	a4,120(a5)
ffffffff80402718:	fd843783          	ld	a5,-40(s0)
ffffffff8040271c:	0807bc23          	sd	zero,152(a5)
ffffffff80402720:	fd843783          	ld	a5,-40(s0)
ffffffff80402724:	0c078023          	sb	zero,192(a5)
ffffffff80402728:	fd843783          	ld	a5,-40(s0)
ffffffff8040272c:	4705                	li	a4,1
ffffffff8040272e:	0ce78c23          	sb	a4,216(a5)
ffffffff80402732:	fd843783          	ld	a5,-40(s0)
ffffffff80402736:	0c078423          	sb	zero,200(a5)
ffffffff8040273a:	fd843783          	ld	a5,-40(s0)
ffffffff8040273e:	0e078023          	sb	zero,224(a5)
ffffffff80402742:	fd843783          	ld	a5,-40(s0)
ffffffff80402746:	4705                	li	a4,1
ffffffff80402748:	0ee78c23          	sb	a4,248(a5)
ffffffff8040274c:	fd843783          	ld	a5,-40(s0)
ffffffff80402750:	4705                	li	a4,1
ffffffff80402752:	0ee78423          	sb	a4,232(a5)
ffffffff80402756:	4789                	li	a5,2
ffffffff80402758:	fef42623          	sw	a5,-20(s0)
ffffffff8040275c:	a831                	j	ffffffff80402778 <init_pcb_default+0x106>
ffffffff8040275e:	fd843703          	ld	a4,-40(s0)
ffffffff80402762:	fec42783          	lw	a5,-20(s0)
ffffffff80402766:	0796                	slli	a5,a5,0x5
ffffffff80402768:	97ba                	add	a5,a5,a4
ffffffff8040276a:	0c078c23          	sb	zero,216(a5)
ffffffff8040276e:	fec42783          	lw	a5,-20(s0)
ffffffff80402772:	2785                	addiw	a5,a5,1
ffffffff80402774:	fef42623          	sw	a5,-20(s0)
ffffffff80402778:	fec42783          	lw	a5,-20(s0)
ffffffff8040277c:	0007871b          	sext.w	a4,a5
ffffffff80402780:	47bd                	li	a5,15
ffffffff80402782:	fce7dee3          	bge	a5,a4,ffffffff8040275e <init_pcb_default+0xec>
ffffffff80402786:	fd843783          	ld	a5,-40(s0)
ffffffff8040278a:	0a07b823          	sd	zero,176(a5)
ffffffff8040278e:	fd843783          	ld	a5,-40(s0)
ffffffff80402792:	0a07bc23          	sd	zero,184(a5)
ffffffff80402796:	0001                	nop
ffffffff80402798:	70a2                	ld	ra,40(sp)
ffffffff8040279a:	7402                	ld	s0,32(sp)
ffffffff8040279c:	6145                	addi	sp,sp,48
ffffffff8040279e:	8082                	ret

ffffffff804027a0 <set_stack_base>:
ffffffff804027a0:	7179                	addi	sp,sp,-48
ffffffff804027a2:	f422                	sd	s0,40(sp)
ffffffff804027a4:	1800                	addi	s0,sp,48
ffffffff804027a6:	fea43423          	sd	a0,-24(s0)
ffffffff804027aa:	feb43023          	sd	a1,-32(s0)
ffffffff804027ae:	fcc43c23          	sd	a2,-40(s0)
ffffffff804027b2:	fe043703          	ld	a4,-32(s0)
ffffffff804027b6:	77fd                	lui	a5,0xfffff
ffffffff804027b8:	973e                	add	a4,a4,a5
ffffffff804027ba:	fe843783          	ld	a5,-24(s0)
ffffffff804027be:	ef98                	sd	a4,24(a5)
ffffffff804027c0:	fd843703          	ld	a4,-40(s0)
ffffffff804027c4:	77fd                	lui	a5,0xfffff
ffffffff804027c6:	973e                	add	a4,a4,a5
ffffffff804027c8:	fe843783          	ld	a5,-24(s0)
ffffffff804027cc:	f398                	sd	a4,32(a5)
ffffffff804027ce:	0001                	nop
ffffffff804027d0:	7422                	ld	s0,40(sp)
ffffffff804027d2:	6145                	addi	sp,sp,48
ffffffff804027d4:	8082                	ret

ffffffff804027d6 <copy_stack>:
ffffffff804027d6:	7179                	addi	sp,sp,-48
ffffffff804027d8:	f406                	sd	ra,40(sp)
ffffffff804027da:	f022                	sd	s0,32(sp)
ffffffff804027dc:	1800                	addi	s0,sp,48
ffffffff804027de:	fea43423          	sd	a0,-24(s0)
ffffffff804027e2:	feb43023          	sd	a1,-32(s0)
ffffffff804027e6:	fcc43c23          	sd	a2,-40(s0)
ffffffff804027ea:	fe843783          	ld	a5,-24(s0)
ffffffff804027ee:	6398                	ld	a4,0(a5)
ffffffff804027f0:	0001d797          	auipc	a5,0x1d
ffffffff804027f4:	29878793          	addi	a5,a5,664 # ffffffff8041fa88 <current_running>
ffffffff804027f8:	639c                	ld	a5,0(a5)
ffffffff804027fa:	639c                	ld	a5,0(a5)
ffffffff804027fc:	fe043603          	ld	a2,-32(s0)
ffffffff80402800:	85be                	mv	a1,a5
ffffffff80402802:	853a                	mv	a0,a4
ffffffff80402804:	374030ef          	jal	ra,ffffffff80405b78 <memcpy>
ffffffff80402808:	0001                	nop
ffffffff8040280a:	70a2                	ld	ra,40(sp)
ffffffff8040280c:	7402                	ld	s0,32(sp)
ffffffff8040280e:	6145                	addi	sp,sp,48
ffffffff80402810:	8082                	ret

ffffffff80402812 <is_elf_format>:
ffffffff80402812:	7179                	addi	sp,sp,-48
ffffffff80402814:	f422                	sd	s0,40(sp)
ffffffff80402816:	1800                	addi	s0,sp,48
ffffffff80402818:	fca43c23          	sd	a0,-40(s0)
ffffffff8040281c:	fd843783          	ld	a5,-40(s0)
ffffffff80402820:	fef43423          	sd	a5,-24(s0)
ffffffff80402824:	fe843783          	ld	a5,-24(s0)
ffffffff80402828:	0007c783          	lbu	a5,0(a5)
ffffffff8040282c:	eb9d                	bnez	a5,ffffffff80402862 <is_elf_format+0x50>
ffffffff8040282e:	fe843783          	ld	a5,-24(s0)
ffffffff80402832:	0017c783          	lbu	a5,1(a5)
ffffffff80402836:	873e                	mv	a4,a5
ffffffff80402838:	4785                	li	a5,1
ffffffff8040283a:	02f71463          	bne	a4,a5,ffffffff80402862 <is_elf_format+0x50>
ffffffff8040283e:	fe843783          	ld	a5,-24(s0)
ffffffff80402842:	0027c783          	lbu	a5,2(a5)
ffffffff80402846:	873e                	mv	a4,a5
ffffffff80402848:	4789                	li	a5,2
ffffffff8040284a:	00f71c63          	bne	a4,a5,ffffffff80402862 <is_elf_format+0x50>
ffffffff8040284e:	fe843783          	ld	a5,-24(s0)
ffffffff80402852:	0037c783          	lbu	a5,3(a5)
ffffffff80402856:	873e                	mv	a4,a5
ffffffff80402858:	478d                	li	a5,3
ffffffff8040285a:	00f71463          	bne	a4,a5,ffffffff80402862 <is_elf_format+0x50>
ffffffff8040285e:	4781                	li	a5,0
ffffffff80402860:	a011                	j	ffffffff80402864 <is_elf_format+0x52>
ffffffff80402862:	4785                	li	a5,1
ffffffff80402864:	853e                	mv	a0,a5
ffffffff80402866:	7422                	ld	s0,40(sp)
ffffffff80402868:	6145                	addi	sp,sp,48
ffffffff8040286a:	8082                	ret

ffffffff8040286c <load_elf>:
ffffffff8040286c:	7159                	addi	sp,sp,-112
ffffffff8040286e:	f486                	sd	ra,104(sp)
ffffffff80402870:	f0a2                	sd	s0,96(sp)
ffffffff80402872:	1880                	addi	s0,sp,112
ffffffff80402874:	faa43423          	sd	a0,-88(s0)
ffffffff80402878:	87ae                	mv	a5,a1
ffffffff8040287a:	f8c43c23          	sd	a2,-104(s0)
ffffffff8040287e:	f8d43823          	sd	a3,-112(s0)
ffffffff80402882:	faf42223          	sw	a5,-92(s0)
ffffffff80402886:	fa843783          	ld	a5,-88(s0)
ffffffff8040288a:	fcf43823          	sd	a5,-48(s0)
ffffffff8040288e:	fc043423          	sd	zero,-56(s0)
ffffffff80402892:	fe043423          	sd	zero,-24(s0)
ffffffff80402896:	fe042023          	sw	zero,-32(s0)
ffffffff8040289a:	fa442783          	lw	a5,-92(s0)
ffffffff8040289e:	0007871b          	sext.w	a4,a5
ffffffff804028a2:	478d                	li	a5,3
ffffffff804028a4:	00e7f863          	bgeu	a5,a4,ffffffff804028b4 <load_elf+0x48>
ffffffff804028a8:	fa843503          	ld	a0,-88(s0)
ffffffff804028ac:	f67ff0ef          	jal	ra,ffffffff80402812 <is_elf_format>
ffffffff804028b0:	87aa                	mv	a5,a0
ffffffff804028b2:	e399                	bnez	a5,ffffffff804028b8 <load_elf+0x4c>
ffffffff804028b4:	4781                	li	a5,0
ffffffff804028b6:	a269                	j	ffffffff80402a40 <load_elf+0x1d4>
ffffffff804028b8:	fd043783          	ld	a5,-48(s0)
ffffffff804028bc:	739c                	ld	a5,32(a5)
ffffffff804028be:	fa843703          	ld	a4,-88(s0)
ffffffff804028c2:	97ba                	add	a5,a5,a4
ffffffff804028c4:	fef43423          	sd	a5,-24(s0)
ffffffff804028c8:	fd043783          	ld	a5,-48(s0)
ffffffff804028cc:	0387d783          	lhu	a5,56(a5)
ffffffff804028d0:	fef41323          	sh	a5,-26(s0)
ffffffff804028d4:	fd043783          	ld	a5,-48(s0)
ffffffff804028d8:	0367d783          	lhu	a5,54(a5)
ffffffff804028dc:	fcf41323          	sh	a5,-58(s0)
ffffffff804028e0:	a2a9                	j	ffffffff80402a2a <load_elf+0x1be>
ffffffff804028e2:	fe843783          	ld	a5,-24(s0)
ffffffff804028e6:	fcf43423          	sd	a5,-56(s0)
ffffffff804028ea:	fc843783          	ld	a5,-56(s0)
ffffffff804028ee:	439c                	lw	a5,0(a5)
ffffffff804028f0:	873e                	mv	a4,a5
ffffffff804028f2:	4785                	li	a5,1
ffffffff804028f4:	12f71463          	bne	a4,a5,ffffffff80402a1c <load_elf+0x1b0>
ffffffff804028f8:	fe042023          	sw	zero,-32(s0)
ffffffff804028fc:	aa09                	j	ffffffff80402a0e <load_elf+0x1a2>
ffffffff804028fe:	fe042703          	lw	a4,-32(s0)
ffffffff80402902:	fc843783          	ld	a5,-56(s0)
ffffffff80402906:	739c                	ld	a5,32(a5)
ffffffff80402908:	0af77563          	bgeu	a4,a5,ffffffff804029b2 <load_elf+0x146>
ffffffff8040290c:	fc843783          	ld	a5,-56(s0)
ffffffff80402910:	6b98                	ld	a4,16(a5)
ffffffff80402912:	fe042783          	lw	a5,-32(s0)
ffffffff80402916:	97ba                	add	a5,a5,a4
ffffffff80402918:	f9043703          	ld	a4,-112(s0)
ffffffff8040291c:	4639                	li	a2,14
ffffffff8040291e:	f9843583          	ld	a1,-104(s0)
ffffffff80402922:	853e                	mv	a0,a5
ffffffff80402924:	9702                	jalr	a4
ffffffff80402926:	87aa                	mv	a5,a0
ffffffff80402928:	faf43c23          	sd	a5,-72(s0)
ffffffff8040292c:	fc843783          	ld	a5,-56(s0)
ffffffff80402930:	6798                	ld	a4,8(a5)
ffffffff80402932:	fe042783          	lw	a5,-32(s0)
ffffffff80402936:	97ba                	add	a5,a5,a4
ffffffff80402938:	fa843703          	ld	a4,-88(s0)
ffffffff8040293c:	00f706b3          	add	a3,a4,a5
ffffffff80402940:	fc843783          	ld	a5,-56(s0)
ffffffff80402944:	7398                	ld	a4,32(a5)
ffffffff80402946:	fe042783          	lw	a5,-32(s0)
ffffffff8040294a:	40f707b3          	sub	a5,a4,a5
ffffffff8040294e:	6705                	lui	a4,0x1
ffffffff80402950:	00f77363          	bgeu	a4,a5,ffffffff80402956 <load_elf+0xea>
ffffffff80402954:	6785                	lui	a5,0x1
ffffffff80402956:	2781                	sext.w	a5,a5
ffffffff80402958:	863e                	mv	a2,a5
ffffffff8040295a:	85b6                	mv	a1,a3
ffffffff8040295c:	fb843503          	ld	a0,-72(s0)
ffffffff80402960:	218030ef          	jal	ra,ffffffff80405b78 <memcpy>
ffffffff80402964:	fc843783          	ld	a5,-56(s0)
ffffffff80402968:	7398                	ld	a4,32(a5)
ffffffff8040296a:	fe042783          	lw	a5,-32(s0)
ffffffff8040296e:	8f1d                	sub	a4,a4,a5
ffffffff80402970:	6785                	lui	a5,0x1
ffffffff80402972:	08f77763          	bgeu	a4,a5,ffffffff80402a00 <load_elf+0x194>
ffffffff80402976:	fc843783          	ld	a5,-56(s0)
ffffffff8040297a:	739c                	ld	a5,32(a5)
ffffffff8040297c:	0007871b          	sext.w	a4,a5
ffffffff80402980:	6785                	lui	a5,0x1
ffffffff80402982:	17fd                	addi	a5,a5,-1
ffffffff80402984:	8ff9                	and	a5,a5,a4
ffffffff80402986:	fcf42e23          	sw	a5,-36(s0)
ffffffff8040298a:	a829                	j	ffffffff804029a4 <load_elf+0x138>
ffffffff8040298c:	fdc42783          	lw	a5,-36(s0)
ffffffff80402990:	fb843703          	ld	a4,-72(s0)
ffffffff80402994:	97ba                	add	a5,a5,a4
ffffffff80402996:	00078023          	sb	zero,0(a5) # 1000 <_start-0xffffffff803ff000>
ffffffff8040299a:	fdc42783          	lw	a5,-36(s0)
ffffffff8040299e:	2785                	addiw	a5,a5,1
ffffffff804029a0:	fcf42e23          	sw	a5,-36(s0)
ffffffff804029a4:	fdc42783          	lw	a5,-36(s0)
ffffffff804029a8:	873e                	mv	a4,a5
ffffffff804029aa:	6785                	lui	a5,0x1
ffffffff804029ac:	fef760e3          	bltu	a4,a5,ffffffff8040298c <load_elf+0x120>
ffffffff804029b0:	a881                	j	ffffffff80402a00 <load_elf+0x194>
ffffffff804029b2:	fc843783          	ld	a5,-56(s0)
ffffffff804029b6:	6b98                	ld	a4,16(a5)
ffffffff804029b8:	fe042783          	lw	a5,-32(s0)
ffffffff804029bc:	97ba                	add	a5,a5,a4
ffffffff804029be:	f9043703          	ld	a4,-112(s0)
ffffffff804029c2:	4639                	li	a2,14
ffffffff804029c4:	f9843583          	ld	a1,-104(s0)
ffffffff804029c8:	853e                	mv	a0,a5
ffffffff804029ca:	9702                	jalr	a4
ffffffff804029cc:	87aa                	mv	a5,a0
ffffffff804029ce:	faf43823          	sd	a5,-80(s0)
ffffffff804029d2:	fc042c23          	sw	zero,-40(s0)
ffffffff804029d6:	a831                	j	ffffffff804029f2 <load_elf+0x186>
ffffffff804029d8:	fd842783          	lw	a5,-40(s0)
ffffffff804029dc:	078e                	slli	a5,a5,0x3
ffffffff804029de:	fb043703          	ld	a4,-80(s0)
ffffffff804029e2:	97ba                	add	a5,a5,a4
ffffffff804029e4:	0007b023          	sd	zero,0(a5) # 1000 <_start-0xffffffff803ff000>
ffffffff804029e8:	fd842783          	lw	a5,-40(s0)
ffffffff804029ec:	2785                	addiw	a5,a5,1
ffffffff804029ee:	fcf42c23          	sw	a5,-40(s0)
ffffffff804029f2:	fd842783          	lw	a5,-40(s0)
ffffffff804029f6:	873e                	mv	a4,a5
ffffffff804029f8:	1ff00793          	li	a5,511
ffffffff804029fc:	fce7fee3          	bgeu	a5,a4,ffffffff804029d8 <load_elf+0x16c>
ffffffff80402a00:	fe042703          	lw	a4,-32(s0)
ffffffff80402a04:	6785                	lui	a5,0x1
ffffffff80402a06:	9fb9                	addw	a5,a5,a4
ffffffff80402a08:	2781                	sext.w	a5,a5
ffffffff80402a0a:	fef42023          	sw	a5,-32(s0)
ffffffff80402a0e:	fe042703          	lw	a4,-32(s0)
ffffffff80402a12:	fc843783          	ld	a5,-56(s0)
ffffffff80402a16:	779c                	ld	a5,40(a5)
ffffffff80402a18:	eef763e3          	bltu	a4,a5,ffffffff804028fe <load_elf+0x92>
ffffffff80402a1c:	fc645783          	lhu	a5,-58(s0)
ffffffff80402a20:	fe843703          	ld	a4,-24(s0)
ffffffff80402a24:	97ba                	add	a5,a5,a4
ffffffff80402a26:	fef43423          	sd	a5,-24(s0)
ffffffff80402a2a:	fe645783          	lhu	a5,-26(s0)
ffffffff80402a2e:	fff7871b          	addiw	a4,a5,-1
ffffffff80402a32:	fee41323          	sh	a4,-26(s0)
ffffffff80402a36:	ea0796e3          	bnez	a5,ffffffff804028e2 <load_elf+0x76>
ffffffff80402a3a:	fd043783          	ld	a5,-48(s0)
ffffffff80402a3e:	6f9c                	ld	a5,24(a5)
ffffffff80402a40:	853e                	mv	a0,a5
ffffffff80402a42:	70a6                	ld	ra,104(sp)
ffffffff80402a44:	7406                	ld	s0,96(sp)
ffffffff80402a46:	6165                	addi	sp,sp,112
ffffffff80402a48:	8082                	ret

ffffffff80402a4a <do_scheduler>:
ffffffff80402a4a:	7139                	addi	sp,sp,-64
ffffffff80402a4c:	fc06                	sd	ra,56(sp)
ffffffff80402a4e:	f822                	sd	s0,48(sp)
ffffffff80402a50:	0080                	addi	s0,sp,64
ffffffff80402a52:	0001d797          	auipc	a5,0x1d
ffffffff80402a56:	03678793          	addi	a5,a5,54 # ffffffff8041fa88 <current_running>
ffffffff80402a5a:	639c                	ld	a5,0(a5)
ffffffff80402a5c:	fcf43c23          	sd	a5,-40(s0)
ffffffff80402a60:	fd843783          	ld	a5,-40(s0)
ffffffff80402a64:	53bc                	lw	a5,96(a5)
ffffffff80402a66:	873e                	mv	a4,a5
ffffffff80402a68:	4785                	li	a5,1
ffffffff80402a6a:	02f71763          	bne	a4,a5,ffffffff80402a98 <do_scheduler+0x4e>
ffffffff80402a6e:	fd843783          	ld	a5,-40(s0)
ffffffff80402a72:	4709                	li	a4,2
ffffffff80402a74:	d3b8                	sw	a4,96(a5)
ffffffff80402a76:	fd843783          	ld	a5,-40(s0)
ffffffff80402a7a:	57f8                	lw	a4,108(a5)
ffffffff80402a7c:	fd843783          	ld	a5,-40(s0)
ffffffff80402a80:	dbb8                	sw	a4,112(a5)
ffffffff80402a82:	fd843783          	ld	a5,-40(s0)
ffffffff80402a86:	02878793          	addi	a5,a5,40
ffffffff80402a8a:	0000c597          	auipc	a1,0xc
ffffffff80402a8e:	b8e58593          	addi	a1,a1,-1138 # ffffffff8040e618 <ready_queue>
ffffffff80402a92:	853e                	mv	a0,a5
ffffffff80402a94:	feaff0ef          	jal	ra,ffffffff8040227e <list_add_tail>
ffffffff80402a98:	130010ef          	jal	ra,ffffffff80403bc8 <kernel_time_count>
ffffffff80402a9c:	0001d797          	auipc	a5,0x1d
ffffffff80402aa0:	fec78793          	addi	a5,a5,-20 # ffffffff8041fa88 <current_running>
ffffffff80402aa4:	0007b023          	sd	zero,0(a5)
ffffffff80402aa8:	0000c797          	auipc	a5,0xc
ffffffff80402aac:	b7078793          	addi	a5,a5,-1168 # ffffffff8040e618 <ready_queue>
ffffffff80402ab0:	639c                	ld	a5,0(a5)
ffffffff80402ab2:	fef43423          	sd	a5,-24(s0)
ffffffff80402ab6:	57fd                	li	a5,-1
ffffffff80402ab8:	fef42223          	sw	a5,-28(s0)
ffffffff80402abc:	a085                	j	ffffffff80402b1c <do_scheduler+0xd2>
ffffffff80402abe:	fe843783          	ld	a5,-24(s0)
ffffffff80402ac2:	6b9c                	ld	a5,16(a5)
ffffffff80402ac4:	fcf43823          	sd	a5,-48(s0)
ffffffff80402ac8:	fd043783          	ld	a5,-48(s0)
ffffffff80402acc:	7fbc                	ld	a5,120(a5)
ffffffff80402ace:	fcf43423          	sd	a5,-56(s0)
ffffffff80402ad2:	fc043023          	sd	zero,-64(s0)
ffffffff80402ad6:	fc043783          	ld	a5,-64(s0)
ffffffff80402ada:	2781                	sext.w	a5,a5
ffffffff80402adc:	873e                	mv	a4,a5
ffffffff80402ade:	fc843783          	ld	a5,-56(s0)
ffffffff80402ae2:	00e7d7b3          	srl	a5,a5,a4
ffffffff80402ae6:	8b85                	andi	a5,a5,1
ffffffff80402ae8:	c78d                	beqz	a5,ffffffff80402b12 <do_scheduler+0xc8>
ffffffff80402aea:	fd043783          	ld	a5,-48(s0)
ffffffff80402aee:	5bb8                	lw	a4,112(a5)
ffffffff80402af0:	fe442783          	lw	a5,-28(s0)
ffffffff80402af4:	2781                	sext.w	a5,a5
ffffffff80402af6:	00e7de63          	bge	a5,a4,ffffffff80402b12 <do_scheduler+0xc8>
ffffffff80402afa:	fd043783          	ld	a5,-48(s0)
ffffffff80402afe:	5bbc                	lw	a5,112(a5)
ffffffff80402b00:	fef42223          	sw	a5,-28(s0)
ffffffff80402b04:	0001d797          	auipc	a5,0x1d
ffffffff80402b08:	f8478793          	addi	a5,a5,-124 # ffffffff8041fa88 <current_running>
ffffffff80402b0c:	fd043703          	ld	a4,-48(s0)
ffffffff80402b10:	e398                	sd	a4,0(a5)
ffffffff80402b12:	fe843783          	ld	a5,-24(s0)
ffffffff80402b16:	639c                	ld	a5,0(a5)
ffffffff80402b18:	fef43423          	sd	a5,-24(s0)
ffffffff80402b1c:	fe843703          	ld	a4,-24(s0)
ffffffff80402b20:	0000c797          	auipc	a5,0xc
ffffffff80402b24:	af878793          	addi	a5,a5,-1288 # ffffffff8040e618 <ready_queue>
ffffffff80402b28:	f8f71be3          	bne	a4,a5,ffffffff80402abe <do_scheduler+0x74>
ffffffff80402b2c:	0001d797          	auipc	a5,0x1d
ffffffff80402b30:	f5c78793          	addi	a5,a5,-164 # ffffffff8041fa88 <current_running>
ffffffff80402b34:	639c                	ld	a5,0(a5)
ffffffff80402b36:	c395                	beqz	a5,ffffffff80402b5a <do_scheduler+0x110>
ffffffff80402b38:	0001d797          	auipc	a5,0x1d
ffffffff80402b3c:	f5078793          	addi	a5,a5,-176 # ffffffff8041fa88 <current_running>
ffffffff80402b40:	639c                	ld	a5,0(a5)
ffffffff80402b42:	4705                	li	a4,1
ffffffff80402b44:	d3b8                	sw	a4,96(a5)
ffffffff80402b46:	0001d797          	auipc	a5,0x1d
ffffffff80402b4a:	f4278793          	addi	a5,a5,-190 # ffffffff8041fa88 <current_running>
ffffffff80402b4e:	639c                	ld	a5,0(a5)
ffffffff80402b50:	02878793          	addi	a5,a5,40
ffffffff80402b54:	853e                	mv	a0,a5
ffffffff80402b56:	edeff0ef          	jal	ra,ffffffff80402234 <list_del>
ffffffff80402b5a:	0000c797          	auipc	a5,0xc
ffffffff80402b5e:	abe78793          	addi	a5,a5,-1346 # ffffffff8040e618 <ready_queue>
ffffffff80402b62:	639c                	ld	a5,0(a5)
ffffffff80402b64:	fef43423          	sd	a5,-24(s0)
ffffffff80402b68:	a025                	j	ffffffff80402b90 <do_scheduler+0x146>
ffffffff80402b6a:	fe843783          	ld	a5,-24(s0)
ffffffff80402b6e:	6b9c                	ld	a5,16(a5)
ffffffff80402b70:	fcf43823          	sd	a5,-48(s0)
ffffffff80402b74:	fd043783          	ld	a5,-48(s0)
ffffffff80402b78:	5bbc                	lw	a5,112(a5)
ffffffff80402b7a:	2785                	addiw	a5,a5,1
ffffffff80402b7c:	0007871b          	sext.w	a4,a5
ffffffff80402b80:	fd043783          	ld	a5,-48(s0)
ffffffff80402b84:	dbb8                	sw	a4,112(a5)
ffffffff80402b86:	fe843783          	ld	a5,-24(s0)
ffffffff80402b8a:	639c                	ld	a5,0(a5)
ffffffff80402b8c:	fef43423          	sd	a5,-24(s0)
ffffffff80402b90:	fe843703          	ld	a4,-24(s0)
ffffffff80402b94:	0000c797          	auipc	a5,0xc
ffffffff80402b98:	a8478793          	addi	a5,a5,-1404 # ffffffff8040e618 <ready_queue>
ffffffff80402b9c:	fcf717e3          	bne	a4,a5,ffffffff80402b6a <do_scheduler+0x120>
ffffffff80402ba0:	0001d797          	auipc	a5,0x1d
ffffffff80402ba4:	ee878793          	addi	a5,a5,-280 # ffffffff8041fa88 <current_running>
ffffffff80402ba8:	639c                	ld	a5,0(a5)
ffffffff80402baa:	eb91                	bnez	a5,ffffffff80402bbe <do_scheduler+0x174>
ffffffff80402bac:	0001d797          	auipc	a5,0x1d
ffffffff80402bb0:	edc78793          	addi	a5,a5,-292 # ffffffff8041fa88 <current_running>
ffffffff80402bb4:	0000b717          	auipc	a4,0xb
ffffffff80402bb8:	4e470713          	addi	a4,a4,1252 # ffffffff8040e098 <pid0_pcb>
ffffffff80402bbc:	e398                	sd	a4,0(a5)
ffffffff80402bbe:	0001d797          	auipc	a5,0x1d
ffffffff80402bc2:	eca78793          	addi	a5,a5,-310 # ffffffff8041fa88 <current_running>
ffffffff80402bc6:	639c                	ld	a5,0(a5)
ffffffff80402bc8:	85be                	mv	a1,a5
ffffffff80402bca:	fd843503          	ld	a0,-40(s0)
ffffffff80402bce:	d22fd0ef          	jal	ra,ffffffff804000f0 <switch_to>
ffffffff80402bd2:	0001                	nop
ffffffff80402bd4:	70e2                	ld	ra,56(sp)
ffffffff80402bd6:	7442                	ld	s0,48(sp)
ffffffff80402bd8:	6121                	addi	sp,sp,64
ffffffff80402bda:	8082                	ret

ffffffff80402bdc <init_pcb_stack>:
ffffffff80402bdc:	7175                	addi	sp,sp,-144
ffffffff80402bde:	e506                	sd	ra,136(sp)
ffffffff80402be0:	e122                	sd	s0,128(sp)
ffffffff80402be2:	0900                	addi	s0,sp,144
ffffffff80402be4:	faa43423          	sd	a0,-88(s0)
ffffffff80402be8:	fab43023          	sd	a1,-96(s0)
ffffffff80402bec:	f8c43c23          	sd	a2,-104(s0)
ffffffff80402bf0:	f8d43823          	sd	a3,-112(s0)
ffffffff80402bf4:	f8f43023          	sd	a5,-128(s0)
ffffffff80402bf8:	f7043c23          	sd	a6,-136(s0)
ffffffff80402bfc:	87ba                	mv	a5,a4
ffffffff80402bfe:	f8f42623          	sw	a5,-116(s0)
ffffffff80402c02:	fa043783          	ld	a5,-96(s0)
ffffffff80402c06:	ed878793          	addi	a5,a5,-296
ffffffff80402c0a:	fef43423          	sd	a5,-24(s0)
ffffffff80402c0e:	00016797          	auipc	a5,0x16
ffffffff80402c12:	21a78793          	addi	a5,a5,538 # ffffffff80418e28 <__global_pointer$>
ffffffff80402c16:	fef43023          	sd	a5,-32(s0)
ffffffff80402c1a:	f9043783          	ld	a5,-112(s0)
ffffffff80402c1e:	fcf43c23          	sd	a5,-40(s0)
ffffffff80402c22:	fa043783          	ld	a5,-96(s0)
ffffffff80402c26:	e6878713          	addi	a4,a5,-408
ffffffff80402c2a:	f7843783          	ld	a5,-136(s0)
ffffffff80402c2e:	e398                	sd	a4,0(a5)
ffffffff80402c30:	f7843783          	ld	a5,-136(s0)
ffffffff80402c34:	f9843703          	ld	a4,-104(s0)
ffffffff80402c38:	e798                	sd	a4,8(a5)
ffffffff80402c3a:	f9843603          	ld	a2,-104(s0)
ffffffff80402c3e:	fa043583          	ld	a1,-96(s0)
ffffffff80402c42:	f7843503          	ld	a0,-136(s0)
ffffffff80402c46:	b5bff0ef          	jal	ra,ffffffff804027a0 <set_stack_base>
ffffffff80402c4a:	f7843783          	ld	a5,-136(s0)
ffffffff80402c4e:	fa843703          	ld	a4,-88(s0)
ffffffff80402c52:	e3d8                	sd	a4,128(a5)
ffffffff80402c54:	fe843783          	ld	a5,-24(s0)
ffffffff80402c58:	fcf43823          	sd	a5,-48(s0)
ffffffff80402c5c:	fd043783          	ld	a5,-48(s0)
ffffffff80402c60:	07e1                	addi	a5,a5,24
ffffffff80402c62:	fe043703          	ld	a4,-32(s0)
ffffffff80402c66:	e398                	sd	a4,0(a5)
ffffffff80402c68:	fd043783          	ld	a5,-48(s0)
ffffffff80402c6c:	02078793          	addi	a5,a5,32
ffffffff80402c70:	f7843703          	ld	a4,-136(s0)
ffffffff80402c74:	e398                	sd	a4,0(a5)
ffffffff80402c76:	fd043783          	ld	a5,-48(s0)
ffffffff80402c7a:	05078793          	addi	a5,a5,80
ffffffff80402c7e:	f8c42703          	lw	a4,-116(s0)
ffffffff80402c82:	e398                	sd	a4,0(a5)
ffffffff80402c84:	fd043783          	ld	a5,-48(s0)
ffffffff80402c88:	05878793          	addi	a5,a5,88
ffffffff80402c8c:	f8043703          	ld	a4,-128(s0)
ffffffff80402c90:	e398                	sd	a4,0(a5)
ffffffff80402c92:	fe843783          	ld	a5,-24(s0)
ffffffff80402c96:	00040737          	lui	a4,0x40
ffffffff80402c9a:	10e7b023          	sd	a4,256(a5)
ffffffff80402c9e:	fe843783          	ld	a5,-24(s0)
ffffffff80402ca2:	1007b023          	sd	zero,256(a5)
ffffffff80402ca6:	fe843783          	ld	a5,-24(s0)
ffffffff80402caa:	fd843703          	ld	a4,-40(s0)
ffffffff80402cae:	10e7b423          	sd	a4,264(a5)
ffffffff80402cb2:	47a1                	li	a5,8
ffffffff80402cb4:	fcf42623          	sw	a5,-52(s0)
ffffffff80402cb8:	f7843783          	ld	a5,-136(s0)
ffffffff80402cbc:	4fbc                	lw	a5,88(a5)
ffffffff80402cbe:	fcf42423          	sw	a5,-56(s0)
ffffffff80402cc2:	fa843503          	ld	a0,-88(s0)
ffffffff80402cc6:	e18ff0ef          	jal	ra,ffffffff804022de <kva2pa>
ffffffff80402cca:	87aa                	mv	a5,a0
ffffffff80402ccc:	83b1                	srli	a5,a5,0xc
ffffffff80402cce:	fcf42223          	sw	a5,-60(s0)
ffffffff80402cd2:	fcc46783          	lwu	a5,-52(s0)
ffffffff80402cd6:	03c79713          	slli	a4,a5,0x3c
ffffffff80402cda:	fc846783          	lwu	a5,-56(s0)
ffffffff80402cde:	17b2                	slli	a5,a5,0x2c
ffffffff80402ce0:	8f5d                	or	a4,a4,a5
ffffffff80402ce2:	fc446783          	lwu	a5,-60(s0)
ffffffff80402ce6:	8f5d                	or	a4,a4,a5
ffffffff80402ce8:	fe843783          	ld	a5,-24(s0)
ffffffff80402cec:	12e7b023          	sd	a4,288(a5)
ffffffff80402cf0:	fa043783          	ld	a5,-96(s0)
ffffffff80402cf4:	e6878793          	addi	a5,a5,-408
ffffffff80402cf8:	faf43c23          	sd	a5,-72(s0)
ffffffff80402cfc:	ffffd717          	auipc	a4,0xffffd
ffffffff80402d00:	44070713          	addi	a4,a4,1088 # ffffffff8040013c <ret_from_exception>
ffffffff80402d04:	fb843783          	ld	a5,-72(s0)
ffffffff80402d08:	e398                	sd	a4,0(a5)
ffffffff80402d0a:	0001                	nop
ffffffff80402d0c:	60aa                	ld	ra,136(sp)
ffffffff80402d0e:	640a                	ld	s0,128(sp)
ffffffff80402d10:	6149                	addi	sp,sp,144
ffffffff80402d12:	8082                	ret

ffffffff80402d14 <copy_to>:
ffffffff80402d14:	7139                	addi	sp,sp,-64
ffffffff80402d16:	fc06                	sd	ra,56(sp)
ffffffff80402d18:	f822                	sd	s0,48(sp)
ffffffff80402d1a:	0080                	addi	s0,sp,64
ffffffff80402d1c:	fca43c23          	sd	a0,-40(s0)
ffffffff80402d20:	fcb43823          	sd	a1,-48(s0)
ffffffff80402d24:	fcc43423          	sd	a2,-56(s0)
ffffffff80402d28:	0001d797          	auipc	a5,0x1d
ffffffff80402d2c:	d6078793          	addi	a5,a5,-672 # ffffffff8041fa88 <current_running>
ffffffff80402d30:	639c                	ld	a5,0(a5)
ffffffff80402d32:	6f98                	ld	a4,24(a5)
ffffffff80402d34:	0001d797          	auipc	a5,0x1d
ffffffff80402d38:	d5478793          	addi	a5,a5,-684 # ffffffff8041fa88 <current_running>
ffffffff80402d3c:	639c                	ld	a5,0(a5)
ffffffff80402d3e:	639c                	ld	a5,0(a5)
ffffffff80402d40:	8f1d                	sub	a4,a4,a5
ffffffff80402d42:	6785                	lui	a5,0x1
ffffffff80402d44:	97ba                	add	a5,a5,a4
ffffffff80402d46:	fef43423          	sd	a5,-24(s0)
ffffffff80402d4a:	0001d797          	auipc	a5,0x1d
ffffffff80402d4e:	d3e78793          	addi	a5,a5,-706 # ffffffff8041fa88 <current_running>
ffffffff80402d52:	639c                	ld	a5,0(a5)
ffffffff80402d54:	7398                	ld	a4,32(a5)
ffffffff80402d56:	0001d797          	auipc	a5,0x1d
ffffffff80402d5a:	d3278793          	addi	a5,a5,-718 # ffffffff8041fa88 <current_running>
ffffffff80402d5e:	639c                	ld	a5,0(a5)
ffffffff80402d60:	679c                	ld	a5,8(a5)
ffffffff80402d62:	8f1d                	sub	a4,a4,a5
ffffffff80402d64:	6785                	lui	a5,0x1
ffffffff80402d66:	97ba                	add	a5,a5,a4
ffffffff80402d68:	fef43023          	sd	a5,-32(s0)
ffffffff80402d6c:	fd043703          	ld	a4,-48(s0)
ffffffff80402d70:	77fd                	lui	a5,0xfffff
ffffffff80402d72:	973e                	add	a4,a4,a5
ffffffff80402d74:	fd843783          	ld	a5,-40(s0)
ffffffff80402d78:	ef98                	sd	a4,24(a5)
ffffffff80402d7a:	fd843783          	ld	a5,-40(s0)
ffffffff80402d7e:	fc843703          	ld	a4,-56(s0)
ffffffff80402d82:	f398                	sd	a4,32(a5)
ffffffff80402d84:	fd043703          	ld	a4,-48(s0)
ffffffff80402d88:	fe843783          	ld	a5,-24(s0)
ffffffff80402d8c:	8f1d                	sub	a4,a4,a5
ffffffff80402d8e:	fd843783          	ld	a5,-40(s0)
ffffffff80402d92:	e398                	sd	a4,0(a5)
ffffffff80402d94:	fd843783          	ld	a5,-40(s0)
ffffffff80402d98:	fc843703          	ld	a4,-56(s0)
ffffffff80402d9c:	e798                	sd	a4,8(a5)
ffffffff80402d9e:	fe043603          	ld	a2,-32(s0)
ffffffff80402da2:	fe843583          	ld	a1,-24(s0)
ffffffff80402da6:	fd843503          	ld	a0,-40(s0)
ffffffff80402daa:	a2dff0ef          	jal	ra,ffffffff804027d6 <copy_stack>
ffffffff80402dae:	0001                	nop
ffffffff80402db0:	70e2                	ld	ra,56(sp)
ffffffff80402db2:	7442                	ld	s0,48(sp)
ffffffff80402db4:	6121                	addi	sp,sp,64
ffffffff80402db6:	8082                	ret

ffffffff80402db8 <do_clone>:
ffffffff80402db8:	711d                	addi	sp,sp,-96
ffffffff80402dba:	ec86                	sd	ra,88(sp)
ffffffff80402dbc:	e8a2                	sd	s0,80(sp)
ffffffff80402dbe:	1080                	addi	s0,sp,96
ffffffff80402dc0:	87aa                	mv	a5,a0
ffffffff80402dc2:	fab43823          	sd	a1,-80(s0)
ffffffff80402dc6:	fad43423          	sd	a3,-88(s0)
ffffffff80402dca:	faf42e23          	sw	a5,-68(s0)
ffffffff80402dce:	87b2                	mv	a5,a2
ffffffff80402dd0:	faf42c23          	sw	a5,-72(s0)
ffffffff80402dd4:	87ba                	mv	a5,a4
ffffffff80402dd6:	faf42223          	sw	a5,-92(s0)
ffffffff80402dda:	4785                	li	a5,1
ffffffff80402ddc:	fef42623          	sw	a5,-20(s0)
ffffffff80402de0:	a2ad                	j	ffffffff80402f4a <do_clone+0x192>
ffffffff80402de2:	0001d717          	auipc	a4,0x1d
ffffffff80402de6:	cae70713          	addi	a4,a4,-850 # ffffffff8041fa90 <pcb>
ffffffff80402dea:	fec42683          	lw	a3,-20(s0)
ffffffff80402dee:	2c000793          	li	a5,704
ffffffff80402df2:	02f687b3          	mul	a5,a3,a5
ffffffff80402df6:	97ba                	add	a5,a5,a4
ffffffff80402df8:	53bc                	lw	a5,96(a5)
ffffffff80402dfa:	873e                	mv	a4,a5
ffffffff80402dfc:	4791                	li	a5,4
ffffffff80402dfe:	14f71163          	bne	a4,a5,ffffffff80402f40 <do_clone+0x188>
ffffffff80402e02:	fec42703          	lw	a4,-20(s0)
ffffffff80402e06:	2c000793          	li	a5,704
ffffffff80402e0a:	02f70733          	mul	a4,a4,a5
ffffffff80402e0e:	0001d797          	auipc	a5,0x1d
ffffffff80402e12:	c8278793          	addi	a5,a5,-894 # ffffffff8041fa90 <pcb>
ffffffff80402e16:	97ba                	add	a5,a5,a4
ffffffff80402e18:	fef43023          	sd	a5,-32(s0)
ffffffff80402e1c:	458d                	li	a1,3
ffffffff80402e1e:	fe043503          	ld	a0,-32(s0)
ffffffff80402e22:	851ff0ef          	jal	ra,ffffffff80402672 <init_pcb_default>
ffffffff80402e26:	0001d797          	auipc	a5,0x1d
ffffffff80402e2a:	c6278793          	addi	a5,a5,-926 # ffffffff8041fa88 <current_running>
ffffffff80402e2e:	639c                	ld	a5,0(a5)
ffffffff80402e30:	57b8                	lw	a4,104(a5)
ffffffff80402e32:	2705                	addiw	a4,a4,1
ffffffff80402e34:	2701                	sext.w	a4,a4
ffffffff80402e36:	d7b8                	sw	a4,104(a5)
ffffffff80402e38:	0001d797          	auipc	a5,0x1d
ffffffff80402e3c:	c5078793          	addi	a5,a5,-944 # ffffffff8041fa88 <current_running>
ffffffff80402e40:	6398                	ld	a4,0(a5)
ffffffff80402e42:	fe043783          	ld	a5,-32(s0)
ffffffff80402e46:	efd8                	sd	a4,152(a5)
ffffffff80402e48:	fe043783          	ld	a5,-32(s0)
ffffffff80402e4c:	fbc42703          	lw	a4,-68(s0)
ffffffff80402e50:	0ae7a023          	sw	a4,160(a5)
ffffffff80402e54:	480010ef          	jal	ra,ffffffff804042d4 <allocPage>
ffffffff80402e58:	872a                	mv	a4,a0
ffffffff80402e5a:	6785                	lui	a5,0x1
ffffffff80402e5c:	97ba                	add	a5,a5,a4
ffffffff80402e5e:	fcf43c23          	sd	a5,-40(s0)
ffffffff80402e62:	fb043783          	ld	a5,-80(s0)
ffffffff80402e66:	e385                	bnez	a5,ffffffff80402e86 <do_clone+0xce>
ffffffff80402e68:	0001d797          	auipc	a5,0x1d
ffffffff80402e6c:	c2078793          	addi	a5,a5,-992 # ffffffff8041fa88 <current_running>
ffffffff80402e70:	639c                	ld	a5,0(a5)
ffffffff80402e72:	57bc                	lw	a5,104(a5)
ffffffff80402e74:	02079713          	slli	a4,a5,0x20
ffffffff80402e78:	9301                	srli	a4,a4,0x20
ffffffff80402e7a:	00f007b7          	lui	a5,0xf00
ffffffff80402e7e:	07c1                	addi	a5,a5,16
ffffffff80402e80:	97ba                	add	a5,a5,a4
ffffffff80402e82:	07b2                	slli	a5,a5,0xc
ffffffff80402e84:	a019                	j	ffffffff80402e8a <do_clone+0xd2>
ffffffff80402e86:	fb043783          	ld	a5,-80(s0)
ffffffff80402e8a:	fcf43823          	sd	a5,-48(s0)
ffffffff80402e8e:	0001d797          	auipc	a5,0x1d
ffffffff80402e92:	bfa78793          	addi	a5,a5,-1030 # ffffffff8041fa88 <current_running>
ffffffff80402e96:	639c                	ld	a5,0(a5)
ffffffff80402e98:	63d8                	ld	a4,128(a5)
ffffffff80402e9a:	fe043783          	ld	a5,-32(s0)
ffffffff80402e9e:	e3d8                	sd	a4,128(a5)
ffffffff80402ea0:	fe043783          	ld	a5,-32(s0)
ffffffff80402ea4:	fa442703          	lw	a4,-92(s0)
ffffffff80402ea8:	cfb8                	sw	a4,88(a5)
ffffffff80402eaa:	fa442783          	lw	a5,-92(s0)
ffffffff80402eae:	2785                	addiw	a5,a5,1
ffffffff80402eb0:	0007871b          	sext.w	a4,a5
ffffffff80402eb4:	00015797          	auipc	a5,0x15
ffffffff80402eb8:	79478793          	addi	a5,a5,1940 # ffffffff80418648 <process_id>
ffffffff80402ebc:	c398                	sw	a4,0(a5)
ffffffff80402ebe:	fd043603          	ld	a2,-48(s0)
ffffffff80402ec2:	fd843583          	ld	a1,-40(s0)
ffffffff80402ec6:	fe043503          	ld	a0,-32(s0)
ffffffff80402eca:	e4bff0ef          	jal	ra,ffffffff80402d14 <copy_to>
ffffffff80402ece:	fd843783          	ld	a5,-40(s0)
ffffffff80402ed2:	ed878793          	addi	a5,a5,-296
ffffffff80402ed6:	fcf43423          	sd	a5,-56(s0)
ffffffff80402eda:	fe043703          	ld	a4,-32(s0)
ffffffff80402ede:	fc843783          	ld	a5,-56(s0)
ffffffff80402ee2:	f398                	sd	a4,32(a5)
ffffffff80402ee4:	fc843783          	ld	a5,-56(s0)
ffffffff80402ee8:	0407b823          	sd	zero,80(a5)
ffffffff80402eec:	fe043783          	ld	a5,-32(s0)
ffffffff80402ef0:	639c                	ld	a5,0(a5)
ffffffff80402ef2:	f9078713          	addi	a4,a5,-112
ffffffff80402ef6:	fe043783          	ld	a5,-32(s0)
ffffffff80402efa:	e398                	sd	a4,0(a5)
ffffffff80402efc:	fe043783          	ld	a5,-32(s0)
ffffffff80402f00:	639c                	ld	a5,0(a5)
ffffffff80402f02:	fcf43023          	sd	a5,-64(s0)
ffffffff80402f06:	ffffd717          	auipc	a4,0xffffd
ffffffff80402f0a:	23670713          	addi	a4,a4,566 # ffffffff8040013c <ret_from_exception>
ffffffff80402f0e:	fc043783          	ld	a5,-64(s0)
ffffffff80402f12:	e398                	sd	a4,0(a5)
ffffffff80402f14:	fe043783          	ld	a5,-32(s0)
ffffffff80402f18:	02878793          	addi	a5,a5,40
ffffffff80402f1c:	853e                	mv	a0,a5
ffffffff80402f1e:	b16ff0ef          	jal	ra,ffffffff80402234 <list_del>
ffffffff80402f22:	fe043783          	ld	a5,-32(s0)
ffffffff80402f26:	02878793          	addi	a5,a5,40
ffffffff80402f2a:	0000b597          	auipc	a1,0xb
ffffffff80402f2e:	6ee58593          	addi	a1,a1,1774 # ffffffff8040e618 <ready_queue>
ffffffff80402f32:	853e                	mv	a0,a5
ffffffff80402f34:	b4aff0ef          	jal	ra,ffffffff8040227e <list_add_tail>
ffffffff80402f38:	fe043783          	ld	a5,-32(s0)
ffffffff80402f3c:	4fbc                	lw	a5,88(a5)
ffffffff80402f3e:	a831                	j	ffffffff80402f5a <do_clone+0x1a2>
ffffffff80402f40:	fec42783          	lw	a5,-20(s0)
ffffffff80402f44:	2785                	addiw	a5,a5,1
ffffffff80402f46:	fef42623          	sw	a5,-20(s0)
ffffffff80402f4a:	fec42783          	lw	a5,-20(s0)
ffffffff80402f4e:	0007871b          	sext.w	a4,a5
ffffffff80402f52:	47bd                	li	a5,15
ffffffff80402f54:	e8e7d7e3          	bge	a5,a4,ffffffff80402de2 <do_clone+0x2a>
ffffffff80402f58:	57fd                	li	a5,-1
ffffffff80402f5a:	853e                	mv	a0,a5
ffffffff80402f5c:	60e6                	ld	ra,88(sp)
ffffffff80402f5e:	6446                	ld	s0,80(sp)
ffffffff80402f60:	6125                	addi	sp,sp,96
ffffffff80402f62:	8082                	ret

ffffffff80402f64 <do_wait4>:
ffffffff80402f64:	7179                	addi	sp,sp,-48
ffffffff80402f66:	f406                	sd	ra,40(sp)
ffffffff80402f68:	f022                	sd	s0,32(sp)
ffffffff80402f6a:	1800                	addi	s0,sp,48
ffffffff80402f6c:	87aa                	mv	a5,a0
ffffffff80402f6e:	fcb43823          	sd	a1,-48(s0)
ffffffff80402f72:	8732                	mv	a4,a2
ffffffff80402f74:	fcf42e23          	sw	a5,-36(s0)
ffffffff80402f78:	87ba                	mv	a5,a4
ffffffff80402f7a:	fcf42c23          	sw	a5,-40(s0)
ffffffff80402f7e:	fe043423          	sd	zero,-24(s0)
ffffffff80402f82:	fd043783          	ld	a5,-48(s0)
ffffffff80402f86:	cf99                	beqz	a5,ffffffff80402fa4 <do_wait4+0x40>
ffffffff80402f88:	fd043703          	ld	a4,-48(s0)
ffffffff80402f8c:	0001d797          	auipc	a5,0x1d
ffffffff80402f90:	afc78793          	addi	a5,a5,-1284 # ffffffff8041fa88 <current_running>
ffffffff80402f94:	639c                	ld	a5,0(a5)
ffffffff80402f96:	63dc                	ld	a5,128(a5)
ffffffff80402f98:	85be                	mv	a1,a5
ffffffff80402f9a:	853a                	mv	a0,a4
ffffffff80402f9c:	bb2ff0ef          	jal	ra,ffffffff8040234e <get_kva_of>
ffffffff80402fa0:	fea43423          	sd	a0,-24(s0)
ffffffff80402fa4:	57fd                	li	a5,-1
ffffffff80402fa6:	fef42223          	sw	a5,-28(s0)
ffffffff80402faa:	4785                	li	a5,1
ffffffff80402fac:	fef42023          	sw	a5,-32(s0)
ffffffff80402fb0:	aa25                	j	ffffffff804030e8 <do_wait4+0x184>
ffffffff80402fb2:	0001d717          	auipc	a4,0x1d
ffffffff80402fb6:	ade70713          	addi	a4,a4,-1314 # ffffffff8041fa90 <pcb>
ffffffff80402fba:	fe042683          	lw	a3,-32(s0)
ffffffff80402fbe:	2c000793          	li	a5,704
ffffffff80402fc2:	02f687b3          	mul	a5,a3,a5
ffffffff80402fc6:	97ba                	add	a5,a5,a4
ffffffff80402fc8:	6fd8                	ld	a4,152(a5)
ffffffff80402fca:	0001d797          	auipc	a5,0x1d
ffffffff80402fce:	abe78793          	addi	a5,a5,-1346 # ffffffff8041fa88 <current_running>
ffffffff80402fd2:	639c                	ld	a5,0(a5)
ffffffff80402fd4:	10f71563          	bne	a4,a5,ffffffff804030de <do_wait4+0x17a>
ffffffff80402fd8:	fdc42783          	lw	a5,-36(s0)
ffffffff80402fdc:	0007871b          	sext.w	a4,a5
ffffffff80402fe0:	57fd                	li	a5,-1
ffffffff80402fe2:	02f70363          	beq	a4,a5,ffffffff80403008 <do_wait4+0xa4>
ffffffff80402fe6:	0001d717          	auipc	a4,0x1d
ffffffff80402fea:	aaa70713          	addi	a4,a4,-1366 # ffffffff8041fa90 <pcb>
ffffffff80402fee:	fe042683          	lw	a3,-32(s0)
ffffffff80402ff2:	2c000793          	li	a5,704
ffffffff80402ff6:	02f687b3          	mul	a5,a3,a5
ffffffff80402ffa:	97ba                	add	a5,a5,a4
ffffffff80402ffc:	4fb8                	lw	a4,88(a5)
ffffffff80402ffe:	fdc42783          	lw	a5,-36(s0)
ffffffff80403002:	2781                	sext.w	a5,a5
ffffffff80403004:	0ce79d63          	bne	a5,a4,ffffffff804030de <do_wait4+0x17a>
ffffffff80403008:	0001d717          	auipc	a4,0x1d
ffffffff8040300c:	a8870713          	addi	a4,a4,-1400 # ffffffff8041fa90 <pcb>
ffffffff80403010:	fe042683          	lw	a3,-32(s0)
ffffffff80403014:	2c000793          	li	a5,704
ffffffff80403018:	02f687b3          	mul	a5,a3,a5
ffffffff8040301c:	97ba                	add	a5,a5,a4
ffffffff8040301e:	53bc                	lw	a5,96(a5)
ffffffff80403020:	873e                	mv	a4,a5
ffffffff80403022:	4789                	li	a5,2
ffffffff80403024:	08f71f63          	bne	a4,a5,ffffffff804030c2 <do_wait4+0x15e>
ffffffff80403028:	0001d797          	auipc	a5,0x1d
ffffffff8040302c:	a6078793          	addi	a5,a5,-1440 # ffffffff8041fa88 <current_running>
ffffffff80403030:	639c                	ld	a5,0(a5)
ffffffff80403032:	0607a023          	sw	zero,96(a5)
ffffffff80403036:	0001d797          	auipc	a5,0x1d
ffffffff8040303a:	a5278793          	addi	a5,a5,-1454 # ffffffff8041fa88 <current_running>
ffffffff8040303e:	639c                	ld	a5,0(a5)
ffffffff80403040:	02878693          	addi	a3,a5,40
ffffffff80403044:	fe042703          	lw	a4,-32(s0)
ffffffff80403048:	2c000793          	li	a5,704
ffffffff8040304c:	02f707b3          	mul	a5,a4,a5
ffffffff80403050:	04078713          	addi	a4,a5,64
ffffffff80403054:	0001d797          	auipc	a5,0x1d
ffffffff80403058:	a3c78793          	addi	a5,a5,-1476 # ffffffff8041fa90 <pcb>
ffffffff8040305c:	97ba                	add	a5,a5,a4
ffffffff8040305e:	85be                	mv	a1,a5
ffffffff80403060:	8536                	mv	a0,a3
ffffffff80403062:	a1cff0ef          	jal	ra,ffffffff8040227e <list_add_tail>
ffffffff80403066:	0001d717          	auipc	a4,0x1d
ffffffff8040306a:	a2a70713          	addi	a4,a4,-1494 # ffffffff8041fa90 <pcb>
ffffffff8040306e:	fe042683          	lw	a3,-32(s0)
ffffffff80403072:	2c000793          	li	a5,704
ffffffff80403076:	02f687b3          	mul	a5,a3,a5
ffffffff8040307a:	97ba                	add	a5,a5,a4
ffffffff8040307c:	4fbc                	lw	a5,88(a5)
ffffffff8040307e:	fef42223          	sw	a5,-28(s0)
ffffffff80403082:	9c9ff0ef          	jal	ra,ffffffff80402a4a <do_scheduler>
ffffffff80403086:	fe843783          	ld	a5,-24(s0)
ffffffff8040308a:	cb85                	beqz	a5,ffffffff804030ba <do_wait4+0x156>
ffffffff8040308c:	0001d717          	auipc	a4,0x1d
ffffffff80403090:	a0470713          	addi	a4,a4,-1532 # ffffffff8041fa90 <pcb>
ffffffff80403094:	fe042683          	lw	a3,-32(s0)
ffffffff80403098:	2c000793          	li	a5,704
ffffffff8040309c:	02f687b3          	mul	a5,a3,a5
ffffffff804030a0:	97ba                	add	a5,a5,a4
ffffffff804030a2:	0a87a783          	lw	a5,168(a5)
ffffffff804030a6:	0087979b          	slliw	a5,a5,0x8
ffffffff804030aa:	0007871b          	sext.w	a4,a5
ffffffff804030ae:	fe843783          	ld	a5,-24(s0)
ffffffff804030b2:	1742                	slli	a4,a4,0x30
ffffffff804030b4:	9341                	srli	a4,a4,0x30
ffffffff804030b6:	00e79023          	sh	a4,0(a5)
ffffffff804030ba:	4785                	li	a5,1
ffffffff804030bc:	fef42023          	sw	a5,-32(s0)
ffffffff804030c0:	a839                	j	ffffffff804030de <do_wait4+0x17a>
ffffffff804030c2:	0001d717          	auipc	a4,0x1d
ffffffff804030c6:	9ce70713          	addi	a4,a4,-1586 # ffffffff8041fa90 <pcb>
ffffffff804030ca:	fe042683          	lw	a3,-32(s0)
ffffffff804030ce:	2c000793          	li	a5,704
ffffffff804030d2:	02f687b3          	mul	a5,a3,a5
ffffffff804030d6:	97ba                	add	a5,a5,a4
ffffffff804030d8:	4fbc                	lw	a5,88(a5)
ffffffff804030da:	fef42223          	sw	a5,-28(s0)
ffffffff804030de:	fe042783          	lw	a5,-32(s0)
ffffffff804030e2:	2785                	addiw	a5,a5,1
ffffffff804030e4:	fef42023          	sw	a5,-32(s0)
ffffffff804030e8:	fe042783          	lw	a5,-32(s0)
ffffffff804030ec:	0007871b          	sext.w	a4,a5
ffffffff804030f0:	47bd                	li	a5,15
ffffffff804030f2:	ece7d0e3          	bge	a5,a4,ffffffff80402fb2 <do_wait4+0x4e>
ffffffff804030f6:	fe442783          	lw	a5,-28(s0)
ffffffff804030fa:	853e                	mv	a0,a5
ffffffff804030fc:	70a2                	ld	ra,40(sp)
ffffffff804030fe:	7402                	ld	s0,32(sp)
ffffffff80403100:	6145                	addi	sp,sp,48
ffffffff80403102:	8082                	ret

ffffffff80403104 <do_nanosleep>:
ffffffff80403104:	7139                	addi	sp,sp,-64
ffffffff80403106:	fc06                	sd	ra,56(sp)
ffffffff80403108:	f822                	sd	s0,48(sp)
ffffffff8040310a:	0080                	addi	s0,sp,64
ffffffff8040310c:	fca43423          	sd	a0,-56(s0)
ffffffff80403110:	0001d797          	auipc	a5,0x1d
ffffffff80403114:	97878793          	addi	a5,a5,-1672 # ffffffff8041fa88 <current_running>
ffffffff80403118:	639c                	ld	a5,0(a5)
ffffffff8040311a:	02878793          	addi	a5,a5,40
ffffffff8040311e:	0000b597          	auipc	a1,0xb
ffffffff80403122:	51258593          	addi	a1,a1,1298 # ffffffff8040e630 <general_block_queue>
ffffffff80403126:	853e                	mv	a0,a5
ffffffff80403128:	0c4000ef          	jal	ra,ffffffff804031ec <do_block>
ffffffff8040312c:	fe043423          	sd	zero,-24(s0)
ffffffff80403130:	fc843783          	ld	a5,-56(s0)
ffffffff80403134:	43dc                	lw	a5,4(a5)
ffffffff80403136:	1782                	slli	a5,a5,0x20
ffffffff80403138:	9381                	srli	a5,a5,0x20
ffffffff8040313a:	fef43023          	sd	a5,-32(s0)
ffffffff8040313e:	fc042e23          	sw	zero,-36(s0)
ffffffff80403142:	a0a1                	j	ffffffff8040318a <do_nanosleep+0x86>
ffffffff80403144:	fe843703          	ld	a4,-24(s0)
ffffffff80403148:	47a9                	li	a5,10
ffffffff8040314a:	02f75733          	divu	a4,a4,a5
ffffffff8040314e:	00015797          	auipc	a5,0x15
ffffffff80403152:	54278793          	addi	a5,a5,1346 # ffffffff80418690 <time_base>
ffffffff80403156:	439c                	lw	a5,0(a5)
ffffffff80403158:	02079693          	slli	a3,a5,0x20
ffffffff8040315c:	9281                	srli	a3,a3,0x20
ffffffff8040315e:	fe043603          	ld	a2,-32(s0)
ffffffff80403162:	47a9                	li	a5,10
ffffffff80403164:	02f677b3          	remu	a5,a2,a5
ffffffff80403168:	02f687b3          	mul	a5,a3,a5
ffffffff8040316c:	97ba                	add	a5,a5,a4
ffffffff8040316e:	fef43423          	sd	a5,-24(s0)
ffffffff80403172:	fe043703          	ld	a4,-32(s0)
ffffffff80403176:	47a9                	li	a5,10
ffffffff80403178:	02f757b3          	divu	a5,a4,a5
ffffffff8040317c:	fef43023          	sd	a5,-32(s0)
ffffffff80403180:	fdc42783          	lw	a5,-36(s0)
ffffffff80403184:	2785                	addiw	a5,a5,1
ffffffff80403186:	fcf42e23          	sw	a5,-36(s0)
ffffffff8040318a:	fdc42783          	lw	a5,-36(s0)
ffffffff8040318e:	0007871b          	sext.w	a4,a5
ffffffff80403192:	47a1                	li	a5,8
ffffffff80403194:	fae7f8e3          	bgeu	a5,a4,ffffffff80403144 <do_nanosleep+0x40>
ffffffff80403198:	fc843783          	ld	a5,-56(s0)
ffffffff8040319c:	4398                	lw	a4,0(a5)
ffffffff8040319e:	00015797          	auipc	a5,0x15
ffffffff804031a2:	4f278793          	addi	a5,a5,1266 # ffffffff80418690 <time_base>
ffffffff804031a6:	439c                	lw	a5,0(a5)
ffffffff804031a8:	02f707bb          	mulw	a5,a4,a5
ffffffff804031ac:	2781                	sext.w	a5,a5
ffffffff804031ae:	1782                	slli	a5,a5,0x20
ffffffff804031b0:	9381                	srli	a5,a5,0x20
ffffffff804031b2:	fe843703          	ld	a4,-24(s0)
ffffffff804031b6:	97ba                	add	a5,a5,a4
ffffffff804031b8:	fef43423          	sd	a5,-24(s0)
ffffffff804031bc:	0001d797          	auipc	a5,0x1d
ffffffff804031c0:	8cc78793          	addi	a5,a5,-1844 # ffffffff8041fa88 <current_running>
ffffffff804031c4:	639c                	ld	a5,0(a5)
ffffffff804031c6:	02878793          	addi	a5,a5,40
ffffffff804031ca:	fe843603          	ld	a2,-24(s0)
ffffffff804031ce:	85be                	mv	a1,a5
ffffffff804031d0:	00000517          	auipc	a0,0x0
ffffffff804031d4:	05650513          	addi	a0,a0,86 # ffffffff80403226 <do_unblock>
ffffffff804031d8:	726000ef          	jal	ra,ffffffff804038fe <timer_create>
ffffffff804031dc:	86fff0ef          	jal	ra,ffffffff80402a4a <do_scheduler>
ffffffff804031e0:	4781                	li	a5,0
ffffffff804031e2:	853e                	mv	a0,a5
ffffffff804031e4:	70e2                	ld	ra,56(sp)
ffffffff804031e6:	7442                	ld	s0,48(sp)
ffffffff804031e8:	6121                	addi	sp,sp,64
ffffffff804031ea:	8082                	ret

ffffffff804031ec <do_block>:
ffffffff804031ec:	7179                	addi	sp,sp,-48
ffffffff804031ee:	f406                	sd	ra,40(sp)
ffffffff804031f0:	f022                	sd	s0,32(sp)
ffffffff804031f2:	1800                	addi	s0,sp,48
ffffffff804031f4:	fca43c23          	sd	a0,-40(s0)
ffffffff804031f8:	fcb43823          	sd	a1,-48(s0)
ffffffff804031fc:	fd843783          	ld	a5,-40(s0)
ffffffff80403200:	fd878793          	addi	a5,a5,-40
ffffffff80403204:	fef43423          	sd	a5,-24(s0)
ffffffff80403208:	fe843783          	ld	a5,-24(s0)
ffffffff8040320c:	0607a023          	sw	zero,96(a5)
ffffffff80403210:	fd043583          	ld	a1,-48(s0)
ffffffff80403214:	fd843503          	ld	a0,-40(s0)
ffffffff80403218:	866ff0ef          	jal	ra,ffffffff8040227e <list_add_tail>
ffffffff8040321c:	0001                	nop
ffffffff8040321e:	70a2                	ld	ra,40(sp)
ffffffff80403220:	7402                	ld	s0,32(sp)
ffffffff80403222:	6145                	addi	sp,sp,48
ffffffff80403224:	8082                	ret

ffffffff80403226 <do_unblock>:
ffffffff80403226:	7179                	addi	sp,sp,-48
ffffffff80403228:	f406                	sd	ra,40(sp)
ffffffff8040322a:	f022                	sd	s0,32(sp)
ffffffff8040322c:	1800                	addi	s0,sp,48
ffffffff8040322e:	fca43c23          	sd	a0,-40(s0)
ffffffff80403232:	fd843503          	ld	a0,-40(s0)
ffffffff80403236:	ffffe0ef          	jal	ra,ffffffff80402234 <list_del>
ffffffff8040323a:	fd843783          	ld	a5,-40(s0)
ffffffff8040323e:	6b9c                	ld	a5,16(a5)
ffffffff80403240:	fef43423          	sd	a5,-24(s0)
ffffffff80403244:	fe843783          	ld	a5,-24(s0)
ffffffff80403248:	4709                	li	a4,2
ffffffff8040324a:	d3b8                	sw	a4,96(a5)
ffffffff8040324c:	0000b597          	auipc	a1,0xb
ffffffff80403250:	3cc58593          	addi	a1,a1,972 # ffffffff8040e618 <ready_queue>
ffffffff80403254:	fd843503          	ld	a0,-40(s0)
ffffffff80403258:	826ff0ef          	jal	ra,ffffffff8040227e <list_add_tail>
ffffffff8040325c:	0001                	nop
ffffffff8040325e:	70a2                	ld	ra,40(sp)
ffffffff80403260:	7402                	ld	s0,32(sp)
ffffffff80403262:	6145                	addi	sp,sp,48
ffffffff80403264:	8082                	ret

ffffffff80403266 <do_exit>:
ffffffff80403266:	7139                	addi	sp,sp,-64
ffffffff80403268:	fc06                	sd	ra,56(sp)
ffffffff8040326a:	f822                	sd	s0,48(sp)
ffffffff8040326c:	0080                	addi	s0,sp,64
ffffffff8040326e:	87aa                	mv	a5,a0
ffffffff80403270:	fcf42623          	sw	a5,-52(s0)
ffffffff80403274:	0001d797          	auipc	a5,0x1d
ffffffff80403278:	81478793          	addi	a5,a5,-2028 # ffffffff8041fa88 <current_running>
ffffffff8040327c:	639c                	ld	a5,0(a5)
ffffffff8040327e:	63bc                	ld	a5,64(a5)
ffffffff80403280:	fef43423          	sd	a5,-24(s0)
ffffffff80403284:	a83d                	j	ffffffff804032c2 <do_exit+0x5c>
ffffffff80403286:	fe843783          	ld	a5,-24(s0)
ffffffff8040328a:	639c                	ld	a5,0(a5)
ffffffff8040328c:	fcf43c23          	sd	a5,-40(s0)
ffffffff80403290:	fe843503          	ld	a0,-24(s0)
ffffffff80403294:	fa1fe0ef          	jal	ra,ffffffff80402234 <list_del>
ffffffff80403298:	fe843783          	ld	a5,-24(s0)
ffffffff8040329c:	fd878793          	addi	a5,a5,-40
ffffffff804032a0:	fcf43823          	sd	a5,-48(s0)
ffffffff804032a4:	fd043783          	ld	a5,-48(s0)
ffffffff804032a8:	53bc                	lw	a5,96(a5)
ffffffff804032aa:	873e                	mv	a4,a5
ffffffff804032ac:	4791                	li	a5,4
ffffffff804032ae:	00f70663          	beq	a4,a5,ffffffff804032ba <do_exit+0x54>
ffffffff804032b2:	fe843503          	ld	a0,-24(s0)
ffffffff804032b6:	f71ff0ef          	jal	ra,ffffffff80403226 <do_unblock>
ffffffff804032ba:	fd843783          	ld	a5,-40(s0)
ffffffff804032be:	fef43423          	sd	a5,-24(s0)
ffffffff804032c2:	0001c797          	auipc	a5,0x1c
ffffffff804032c6:	7c678793          	addi	a5,a5,1990 # ffffffff8041fa88 <current_running>
ffffffff804032ca:	639c                	ld	a5,0(a5)
ffffffff804032cc:	04078793          	addi	a5,a5,64
ffffffff804032d0:	fe843703          	ld	a4,-24(s0)
ffffffff804032d4:	faf719e3          	bne	a4,a5,ffffffff80403286 <do_exit+0x20>
ffffffff804032d8:	0001c797          	auipc	a5,0x1c
ffffffff804032dc:	7b078793          	addi	a5,a5,1968 # ffffffff8041fa88 <current_running>
ffffffff804032e0:	639c                	ld	a5,0(a5)
ffffffff804032e2:	fcc42703          	lw	a4,-52(s0)
ffffffff804032e6:	0ae7a423          	sw	a4,168(a5)
ffffffff804032ea:	0001c797          	auipc	a5,0x1c
ffffffff804032ee:	79e78793          	addi	a5,a5,1950 # ffffffff8041fa88 <current_running>
ffffffff804032f2:	639c                	ld	a5,0(a5)
ffffffff804032f4:	4ffc                	lw	a5,92(a5)
ffffffff804032f6:	873e                	mv	a4,a5
ffffffff804032f8:	478d                	li	a5,3
ffffffff804032fa:	00f70963          	beq	a4,a5,ffffffff8040330c <do_exit+0xa6>
ffffffff804032fe:	0001c797          	auipc	a5,0x1c
ffffffff80403302:	78a78793          	addi	a5,a5,1930 # ffffffff8041fa88 <current_running>
ffffffff80403306:	639c                	ld	a5,0(a5)
ffffffff80403308:	53fc                	lw	a5,100(a5)
ffffffff8040330a:	eb89                	bnez	a5,ffffffff8040331c <do_exit+0xb6>
ffffffff8040330c:	0001c797          	auipc	a5,0x1c
ffffffff80403310:	77c78793          	addi	a5,a5,1916 # ffffffff8041fa88 <current_running>
ffffffff80403314:	639c                	ld	a5,0(a5)
ffffffff80403316:	470d                	li	a4,3
ffffffff80403318:	d3b8                	sw	a4,96(a5)
ffffffff8040331a:	aa0d                	j	ffffffff8040344c <do_exit+0x1e6>
ffffffff8040331c:	0001c797          	auipc	a5,0x1c
ffffffff80403320:	76c78793          	addi	a5,a5,1900 # ffffffff8041fa88 <current_running>
ffffffff80403324:	639c                	ld	a5,0(a5)
ffffffff80403326:	53fc                	lw	a5,100(a5)
ffffffff80403328:	873e                	mv	a4,a5
ffffffff8040332a:	4785                	li	a5,1
ffffffff8040332c:	12f71063          	bne	a4,a5,ffffffff8040344c <do_exit+0x1e6>
ffffffff80403330:	fe042223          	sw	zero,-28(s0)
ffffffff80403334:	a0c1                	j	ffffffff804033f4 <do_exit+0x18e>
ffffffff80403336:	0001c717          	auipc	a4,0x1c
ffffffff8040333a:	75a70713          	addi	a4,a4,1882 # ffffffff8041fa90 <pcb>
ffffffff8040333e:	fe442683          	lw	a3,-28(s0)
ffffffff80403342:	2c000793          	li	a5,704
ffffffff80403346:	02f687b3          	mul	a5,a3,a5
ffffffff8040334a:	97ba                	add	a5,a5,a4
ffffffff8040334c:	53bc                	lw	a5,96(a5)
ffffffff8040334e:	873e                	mv	a4,a5
ffffffff80403350:	478d                	li	a5,3
ffffffff80403352:	08f71c63          	bne	a4,a5,ffffffff804033ea <do_exit+0x184>
ffffffff80403356:	0001c717          	auipc	a4,0x1c
ffffffff8040335a:	73a70713          	addi	a4,a4,1850 # ffffffff8041fa90 <pcb>
ffffffff8040335e:	fe442683          	lw	a3,-28(s0)
ffffffff80403362:	2c000793          	li	a5,704
ffffffff80403366:	02f687b3          	mul	a5,a3,a5
ffffffff8040336a:	97ba                	add	a5,a5,a4
ffffffff8040336c:	6fd8                	ld	a4,152(a5)
ffffffff8040336e:	0001c797          	auipc	a5,0x1c
ffffffff80403372:	71a78793          	addi	a5,a5,1818 # ffffffff8041fa88 <current_running>
ffffffff80403376:	639c                	ld	a5,0(a5)
ffffffff80403378:	06f71963          	bne	a4,a5,ffffffff804033ea <do_exit+0x184>
ffffffff8040337c:	0001c717          	auipc	a4,0x1c
ffffffff80403380:	71470713          	addi	a4,a4,1812 # ffffffff8041fa90 <pcb>
ffffffff80403384:	fe442683          	lw	a3,-28(s0)
ffffffff80403388:	2c000793          	li	a5,704
ffffffff8040338c:	02f687b3          	mul	a5,a3,a5
ffffffff80403390:	97ba                	add	a5,a5,a4
ffffffff80403392:	4711                	li	a4,4
ffffffff80403394:	d3b8                	sw	a4,96(a5)
ffffffff80403396:	0001c717          	auipc	a4,0x1c
ffffffff8040339a:	6fa70713          	addi	a4,a4,1786 # ffffffff8041fa90 <pcb>
ffffffff8040339e:	fe442683          	lw	a3,-28(s0)
ffffffff804033a2:	2c000793          	li	a5,704
ffffffff804033a6:	02f687b3          	mul	a5,a3,a5
ffffffff804033aa:	97ba                	add	a5,a5,a4
ffffffff804033ac:	0807bc23          	sd	zero,152(a5)
ffffffff804033b0:	0001c797          	auipc	a5,0x1c
ffffffff804033b4:	6d878793          	addi	a5,a5,1752 # ffffffff8041fa88 <current_running>
ffffffff804033b8:	639c                	ld	a5,0(a5)
ffffffff804033ba:	02878793          	addi	a5,a5,40
ffffffff804033be:	0000b597          	auipc	a1,0xb
ffffffff804033c2:	28a58593          	addi	a1,a1,650 # ffffffff8040e648 <available_queue>
ffffffff804033c6:	853e                	mv	a0,a5
ffffffff804033c8:	eb7fe0ef          	jal	ra,ffffffff8040227e <list_add_tail>
ffffffff804033cc:	0001c717          	auipc	a4,0x1c
ffffffff804033d0:	6c470713          	addi	a4,a4,1732 # ffffffff8041fa90 <pcb>
ffffffff804033d4:	fe442683          	lw	a3,-28(s0)
ffffffff804033d8:	2c000793          	li	a5,704
ffffffff804033dc:	02f687b3          	mul	a5,a3,a5
ffffffff804033e0:	97ba                	add	a5,a5,a4
ffffffff804033e2:	6f9c                	ld	a5,24(a5)
ffffffff804033e4:	853e                	mv	a0,a5
ffffffff804033e6:	77a010ef          	jal	ra,ffffffff80404b60 <freePage>
ffffffff804033ea:	fe442783          	lw	a5,-28(s0)
ffffffff804033ee:	2785                	addiw	a5,a5,1
ffffffff804033f0:	fef42223          	sw	a5,-28(s0)
ffffffff804033f4:	fe442783          	lw	a5,-28(s0)
ffffffff804033f8:	0007871b          	sext.w	a4,a5
ffffffff804033fc:	47bd                	li	a5,15
ffffffff804033fe:	f2e7dce3          	bge	a5,a4,ffffffff80403336 <do_exit+0xd0>
ffffffff80403402:	0001c797          	auipc	a5,0x1c
ffffffff80403406:	68678793          	addi	a5,a5,1670 # ffffffff8041fa88 <current_running>
ffffffff8040340a:	639c                	ld	a5,0(a5)
ffffffff8040340c:	4711                	li	a4,4
ffffffff8040340e:	d3b8                	sw	a4,96(a5)
ffffffff80403410:	0001c797          	auipc	a5,0x1c
ffffffff80403414:	67878793          	addi	a5,a5,1656 # ffffffff8041fa88 <current_running>
ffffffff80403418:	639c                	ld	a5,0(a5)
ffffffff8040341a:	02878793          	addi	a5,a5,40
ffffffff8040341e:	0000b597          	auipc	a1,0xb
ffffffff80403422:	22a58593          	addi	a1,a1,554 # ffffffff8040e648 <available_queue>
ffffffff80403426:	853e                	mv	a0,a5
ffffffff80403428:	e57fe0ef          	jal	ra,ffffffff8040227e <list_add_tail>
ffffffff8040342c:	0001c797          	auipc	a5,0x1c
ffffffff80403430:	65c78793          	addi	a5,a5,1628 # ffffffff8041fa88 <current_running>
ffffffff80403434:	639c                	ld	a5,0(a5)
ffffffff80403436:	63d8                	ld	a4,128(a5)
ffffffff80403438:	0001c797          	auipc	a5,0x1c
ffffffff8040343c:	65078793          	addi	a5,a5,1616 # ffffffff8041fa88 <current_running>
ffffffff80403440:	639c                	ld	a5,0(a5)
ffffffff80403442:	6f9c                	ld	a5,24(a5)
ffffffff80403444:	85be                	mv	a1,a5
ffffffff80403446:	853a                	mv	a0,a4
ffffffff80403448:	6a1010ef          	jal	ra,ffffffff804052e8 <free_all_pages>
ffffffff8040344c:	dfeff0ef          	jal	ra,ffffffff80402a4a <do_scheduler>
ffffffff80403450:	0001                	nop
ffffffff80403452:	70e2                	ld	ra,56(sp)
ffffffff80403454:	7442                	ld	s0,48(sp)
ffffffff80403456:	6121                	addi	sp,sp,64
ffffffff80403458:	8082                	ret

ffffffff8040345a <do_exec>:
ffffffff8040345a:	7171                	addi	sp,sp,-176
ffffffff8040345c:	f506                	sd	ra,168(sp)
ffffffff8040345e:	f122                	sd	s0,160(sp)
ffffffff80403460:	ed26                	sd	s1,152(sp)
ffffffff80403462:	1900                	addi	s0,sp,176
ffffffff80403464:	f6a43423          	sd	a0,-152(s0)
ffffffff80403468:	87ae                	mv	a5,a1
ffffffff8040346a:	f4c43c23          	sd	a2,-168(s0)
ffffffff8040346e:	8736                	mv	a4,a3
ffffffff80403470:	f6f42223          	sw	a5,-156(s0)
ffffffff80403474:	87ba                	mv	a5,a4
ffffffff80403476:	f6f42023          	sw	a5,-160(s0)
ffffffff8040347a:	4785                	li	a5,1
ffffffff8040347c:	fcf42e23          	sw	a5,-36(s0)
ffffffff80403480:	ac6d                	j	ffffffff8040373a <do_exec+0x2e0>
ffffffff80403482:	0001c717          	auipc	a4,0x1c
ffffffff80403486:	60e70713          	addi	a4,a4,1550 # ffffffff8041fa90 <pcb>
ffffffff8040348a:	fdc42683          	lw	a3,-36(s0)
ffffffff8040348e:	2c000793          	li	a5,704
ffffffff80403492:	02f687b3          	mul	a5,a3,a5
ffffffff80403496:	97ba                	add	a5,a5,a4
ffffffff80403498:	53bc                	lw	a5,96(a5)
ffffffff8040349a:	873e                	mv	a4,a5
ffffffff8040349c:	4791                	li	a5,4
ffffffff8040349e:	28f71963          	bne	a4,a5,ffffffff80403730 <do_exec+0x2d6>
ffffffff804034a2:	fdc42703          	lw	a4,-36(s0)
ffffffff804034a6:	2c000793          	li	a5,704
ffffffff804034aa:	02f70733          	mul	a4,a4,a5
ffffffff804034ae:	0001c797          	auipc	a5,0x1c
ffffffff804034b2:	5e278793          	addi	a5,a5,1506 # ffffffff8041fa90 <pcb>
ffffffff804034b6:	97ba                	add	a5,a5,a4
ffffffff804034b8:	faf43c23          	sd	a5,-72(s0)
ffffffff804034bc:	619000ef          	jal	ra,ffffffff804042d4 <allocPage>
ffffffff804034c0:	872a                	mv	a4,a0
ffffffff804034c2:	6785                	lui	a5,0x1
ffffffff804034c4:	97ba                	add	a5,a5,a4
ffffffff804034c6:	faf43823          	sd	a5,-80(s0)
ffffffff804034ca:	000f07b7          	lui	a5,0xf0
ffffffff804034ce:	0785                	addi	a5,a5,1
ffffffff804034d0:	07c2                	slli	a5,a5,0x10
ffffffff804034d2:	faf43423          	sd	a5,-88(s0)
ffffffff804034d6:	fb843783          	ld	a5,-72(s0)
ffffffff804034da:	0007b823          	sd	zero,16(a5) # f0010 <_start-0xffffffff8030fff0>
ffffffff804034de:	fb843703          	ld	a4,-72(s0)
ffffffff804034e2:	fb843783          	ld	a5,-72(s0)
ffffffff804034e6:	ff98                	sd	a4,56(a5)
ffffffff804034e8:	00015797          	auipc	a5,0x15
ffffffff804034ec:	16078793          	addi	a5,a5,352 # ffffffff80418648 <process_id>
ffffffff804034f0:	439c                	lw	a5,0(a5)
ffffffff804034f2:	0017871b          	addiw	a4,a5,1
ffffffff804034f6:	0007069b          	sext.w	a3,a4
ffffffff804034fa:	00015717          	auipc	a4,0x15
ffffffff804034fe:	14e70713          	addi	a4,a4,334 # ffffffff80418648 <process_id>
ffffffff80403502:	c314                	sw	a3,0(a4)
ffffffff80403504:	fb843703          	ld	a4,-72(s0)
ffffffff80403508:	cf3c                	sw	a5,88(a4)
ffffffff8040350a:	fb843783          	ld	a5,-72(s0)
ffffffff8040350e:	4709                	li	a4,2
ffffffff80403510:	cff8                	sw	a4,92(a5)
ffffffff80403512:	fb843783          	ld	a5,-72(s0)
ffffffff80403516:	4709                	li	a4,2
ffffffff80403518:	d3b8                	sw	a4,96(a5)
ffffffff8040351a:	fb843783          	ld	a5,-72(s0)
ffffffff8040351e:	4705                	li	a4,1
ffffffff80403520:	d7f8                	sw	a4,108(a5)
ffffffff80403522:	fb843783          	ld	a5,-72(s0)
ffffffff80403526:	57f8                	lw	a4,108(a5)
ffffffff80403528:	fb843783          	ld	a5,-72(s0)
ffffffff8040352c:	dbb8                	sw	a4,112(a5)
ffffffff8040352e:	fb843783          	ld	a5,-72(s0)
ffffffff80403532:	f6042703          	lw	a4,-160(s0)
ffffffff80403536:	d3f8                	sw	a4,100(a5)
ffffffff80403538:	fb843783          	ld	a5,-72(s0)
ffffffff8040353c:	0607a423          	sw	zero,104(a5)
ffffffff80403540:	fb843783          	ld	a5,-72(s0)
ffffffff80403544:	4705                	li	a4,1
ffffffff80403546:	08e7a423          	sw	a4,136(a5)
ffffffff8040354a:	fb843783          	ld	a5,-72(s0)
ffffffff8040354e:	4705                	li	a4,1
ffffffff80403550:	08e7a623          	sw	a4,140(a5)
ffffffff80403554:	0001c797          	auipc	a5,0x1c
ffffffff80403558:	53478793          	addi	a5,a5,1332 # ffffffff8041fa88 <current_running>
ffffffff8040355c:	639c                	ld	a5,0(a5)
ffffffff8040355e:	7fb8                	ld	a4,120(a5)
ffffffff80403560:	fb843783          	ld	a5,-72(s0)
ffffffff80403564:	ffb8                	sd	a4,120(a5)
ffffffff80403566:	f8043023          	sd	zero,-128(s0)
ffffffff8040356a:	f7c40713          	addi	a4,s0,-132
ffffffff8040356e:	f8040793          	addi	a5,s0,-128
ffffffff80403572:	863a                	mv	a2,a4
ffffffff80403574:	85be                	mv	a1,a5
ffffffff80403576:	f6843503          	ld	a0,-152(s0)
ffffffff8040357a:	595090ef          	jal	ra,ffffffff8040d30e <get_elf_file>
ffffffff8040357e:	557000ef          	jal	ra,ffffffff804042d4 <allocPage>
ffffffff80403582:	faa43023          	sd	a0,-96(s0)
ffffffff80403586:	fa043503          	ld	a0,-96(s0)
ffffffff8040358a:	89cff0ef          	jal	ra,ffffffff80402626 <clear_pgdir>
ffffffff8040358e:	fa843703          	ld	a4,-88(s0)
ffffffff80403592:	77fd                	lui	a5,0xfffff
ffffffff80403594:	97ba                	add	a5,a5,a4
ffffffff80403596:	0d600613          	li	a2,214
ffffffff8040359a:	fa043583          	ld	a1,-96(s0)
ffffffff8040359e:	853e                	mv	a0,a5
ffffffff804035a0:	7a1010ef          	jal	ra,ffffffff80405540 <alloc_page_helper>
ffffffff804035a4:	f8a43c23          	sd	a0,-104(s0)
ffffffff804035a8:	f8043783          	ld	a5,-128(s0)
ffffffff804035ac:	f7c42703          	lw	a4,-132(s0)
ffffffff804035b0:	2701                	sext.w	a4,a4
ffffffff804035b2:	00002697          	auipc	a3,0x2
ffffffff804035b6:	f8e68693          	addi	a3,a3,-114 # ffffffff80405540 <alloc_page_helper>
ffffffff804035ba:	fa043603          	ld	a2,-96(s0)
ffffffff804035be:	85ba                	mv	a1,a4
ffffffff804035c0:	853e                	mv	a0,a5
ffffffff804035c2:	aaaff0ef          	jal	ra,ffffffff8040286c <load_elf>
ffffffff804035c6:	f8a43823          	sd	a0,-112(s0)
ffffffff804035ca:	008037b7          	lui	a5,0x803
ffffffff804035ce:	00879513          	slli	a0,a5,0x8
ffffffff804035d2:	d29fe0ef          	jal	ra,ffffffff804022fa <pa2kva>
ffffffff804035d6:	87aa                	mv	a5,a0
ffffffff804035d8:	85be                	mv	a1,a5
ffffffff804035da:	fa043503          	ld	a0,-96(s0)
ffffffff804035de:	6c9010ef          	jal	ra,ffffffff804054a6 <share_pgtable>
ffffffff804035e2:	f6442783          	lw	a5,-156(s0)
ffffffff804035e6:	2781                	sext.w	a5,a5
ffffffff804035e8:	c3fd                	beqz	a5,ffffffff804036ce <do_exec+0x274>
ffffffff804035ea:	f9843783          	ld	a5,-104(s0)
ffffffff804035ee:	f8f43423          	sd	a5,-120(s0)
ffffffff804035f2:	f6442783          	lw	a5,-156(s0)
ffffffff804035f6:	00379713          	slli	a4,a5,0x3
ffffffff804035fa:	f9843783          	ld	a5,-104(s0)
ffffffff804035fe:	97ba                	add	a5,a5,a4
ffffffff80403600:	fcf43823          	sd	a5,-48(s0)
ffffffff80403604:	f6442783          	lw	a5,-156(s0)
ffffffff80403608:	00379713          	slli	a4,a5,0x3
ffffffff8040360c:	fa843783          	ld	a5,-88(s0)
ffffffff80403610:	973e                	add	a4,a4,a5
ffffffff80403612:	77fd                	lui	a5,0xfffff
ffffffff80403614:	97ba                	add	a5,a5,a4
ffffffff80403616:	fcf43423          	sd	a5,-56(s0)
ffffffff8040361a:	fc042223          	sw	zero,-60(s0)
ffffffff8040361e:	a045                	j	ffffffff804036be <do_exec+0x264>
ffffffff80403620:	fc442783          	lw	a5,-60(s0)
ffffffff80403624:	078e                	slli	a5,a5,0x3
ffffffff80403626:	f5843703          	ld	a4,-168(s0)
ffffffff8040362a:	97ba                	add	a5,a5,a4
ffffffff8040362c:	6384                	ld	s1,0(a5)
ffffffff8040362e:	fc442783          	lw	a5,-60(s0)
ffffffff80403632:	078e                	slli	a5,a5,0x3
ffffffff80403634:	f5843703          	ld	a4,-168(s0)
ffffffff80403638:	97ba                	add	a5,a5,a4
ffffffff8040363a:	639c                	ld	a5,0(a5)
ffffffff8040363c:	853e                	mv	a0,a5
ffffffff8040363e:	504020ef          	jal	ra,ffffffff80405b42 <strlen>
ffffffff80403642:	87aa                	mv	a5,a0
ffffffff80403644:	2785                	addiw	a5,a5,1
ffffffff80403646:	2781                	sext.w	a5,a5
ffffffff80403648:	2781                	sext.w	a5,a5
ffffffff8040364a:	863e                	mv	a2,a5
ffffffff8040364c:	85a6                	mv	a1,s1
ffffffff8040364e:	fd043503          	ld	a0,-48(s0)
ffffffff80403652:	526020ef          	jal	ra,ffffffff80405b78 <memcpy>
ffffffff80403656:	fc442783          	lw	a5,-60(s0)
ffffffff8040365a:	078e                	slli	a5,a5,0x3
ffffffff8040365c:	f8843703          	ld	a4,-120(s0)
ffffffff80403660:	97ba                	add	a5,a5,a4
ffffffff80403662:	fc843703          	ld	a4,-56(s0)
ffffffff80403666:	e398                	sd	a4,0(a5)
ffffffff80403668:	fc442783          	lw	a5,-60(s0)
ffffffff8040366c:	078e                	slli	a5,a5,0x3
ffffffff8040366e:	f5843703          	ld	a4,-168(s0)
ffffffff80403672:	97ba                	add	a5,a5,a4
ffffffff80403674:	639c                	ld	a5,0(a5)
ffffffff80403676:	853e                	mv	a0,a5
ffffffff80403678:	4ca020ef          	jal	ra,ffffffff80405b42 <strlen>
ffffffff8040367c:	87aa                	mv	a5,a0
ffffffff8040367e:	2785                	addiw	a5,a5,1
ffffffff80403680:	2781                	sext.w	a5,a5
ffffffff80403682:	873e                	mv	a4,a5
ffffffff80403684:	fd043783          	ld	a5,-48(s0)
ffffffff80403688:	97ba                	add	a5,a5,a4
ffffffff8040368a:	fcf43823          	sd	a5,-48(s0)
ffffffff8040368e:	fc442783          	lw	a5,-60(s0)
ffffffff80403692:	078e                	slli	a5,a5,0x3
ffffffff80403694:	f5843703          	ld	a4,-168(s0)
ffffffff80403698:	97ba                	add	a5,a5,a4
ffffffff8040369a:	639c                	ld	a5,0(a5)
ffffffff8040369c:	853e                	mv	a0,a5
ffffffff8040369e:	4a4020ef          	jal	ra,ffffffff80405b42 <strlen>
ffffffff804036a2:	87aa                	mv	a5,a0
ffffffff804036a4:	2785                	addiw	a5,a5,1
ffffffff804036a6:	2781                	sext.w	a5,a5
ffffffff804036a8:	873e                	mv	a4,a5
ffffffff804036aa:	fc843783          	ld	a5,-56(s0)
ffffffff804036ae:	97ba                	add	a5,a5,a4
ffffffff804036b0:	fcf43423          	sd	a5,-56(s0)
ffffffff804036b4:	fc442783          	lw	a5,-60(s0)
ffffffff804036b8:	2785                	addiw	a5,a5,1
ffffffff804036ba:	fcf42223          	sw	a5,-60(s0)
ffffffff804036be:	fc442703          	lw	a4,-60(s0)
ffffffff804036c2:	f6442783          	lw	a5,-156(s0)
ffffffff804036c6:	2701                	sext.w	a4,a4
ffffffff804036c8:	2781                	sext.w	a5,a5
ffffffff804036ca:	f4f74be3          	blt	a4,a5,ffffffff80403620 <do_exec+0x1c6>
ffffffff804036ce:	fa843703          	ld	a4,-88(s0)
ffffffff804036d2:	77fd                	lui	a5,0xfffff
ffffffff804036d4:	97ba                	add	a5,a5,a4
ffffffff804036d6:	f6442703          	lw	a4,-156(s0)
ffffffff804036da:	fb843803          	ld	a6,-72(s0)
ffffffff804036de:	f9043683          	ld	a3,-112(s0)
ffffffff804036e2:	fa843603          	ld	a2,-88(s0)
ffffffff804036e6:	fb043583          	ld	a1,-80(s0)
ffffffff804036ea:	fa043503          	ld	a0,-96(s0)
ffffffff804036ee:	ceeff0ef          	jal	ra,ffffffff80402bdc <init_pcb_stack>
ffffffff804036f2:	fb843783          	ld	a5,-72(s0)
ffffffff804036f6:	02878793          	addi	a5,a5,40 # fffffffffffff028 <__BSS_END__+0x7fbd78c8>
ffffffff804036fa:	853e                	mv	a0,a5
ffffffff804036fc:	b39fe0ef          	jal	ra,ffffffff80402234 <list_del>
ffffffff80403700:	fb843783          	ld	a5,-72(s0)
ffffffff80403704:	02878793          	addi	a5,a5,40
ffffffff80403708:	0000b597          	auipc	a1,0xb
ffffffff8040370c:	f1058593          	addi	a1,a1,-240 # ffffffff8040e618 <ready_queue>
ffffffff80403710:	853e                	mv	a0,a5
ffffffff80403712:	b6dfe0ef          	jal	ra,ffffffff8040227e <list_add_tail>
ffffffff80403716:	0001c717          	auipc	a4,0x1c
ffffffff8040371a:	37a70713          	addi	a4,a4,890 # ffffffff8041fa90 <pcb>
ffffffff8040371e:	fdc42683          	lw	a3,-36(s0)
ffffffff80403722:	2c000793          	li	a5,704
ffffffff80403726:	02f687b3          	mul	a5,a3,a5
ffffffff8040372a:	97ba                	add	a5,a5,a4
ffffffff8040372c:	4fbc                	lw	a5,88(a5)
ffffffff8040372e:	a831                	j	ffffffff8040374a <do_exec+0x2f0>
ffffffff80403730:	fdc42783          	lw	a5,-36(s0)
ffffffff80403734:	2785                	addiw	a5,a5,1
ffffffff80403736:	fcf42e23          	sw	a5,-36(s0)
ffffffff8040373a:	fdc42783          	lw	a5,-36(s0)
ffffffff8040373e:	0007871b          	sext.w	a4,a5
ffffffff80403742:	47bd                	li	a5,15
ffffffff80403744:	d2e7dfe3          	bge	a5,a4,ffffffff80403482 <do_exec+0x28>
ffffffff80403748:	57fd                	li	a5,-1
ffffffff8040374a:	853e                	mv	a0,a5
ffffffff8040374c:	70aa                	ld	ra,168(sp)
ffffffff8040374e:	740a                	ld	s0,160(sp)
ffffffff80403750:	64ea                	ld	s1,152(sp)
ffffffff80403752:	614d                	addi	sp,sp,176
ffffffff80403754:	8082                	ret

ffffffff80403756 <do_getpid>:
ffffffff80403756:	1141                	addi	sp,sp,-16
ffffffff80403758:	e422                	sd	s0,8(sp)
ffffffff8040375a:	0800                	addi	s0,sp,16
ffffffff8040375c:	0001c797          	auipc	a5,0x1c
ffffffff80403760:	32c78793          	addi	a5,a5,812 # ffffffff8041fa88 <current_running>
ffffffff80403764:	639c                	ld	a5,0(a5)
ffffffff80403766:	4fbc                	lw	a5,88(a5)
ffffffff80403768:	853e                	mv	a0,a5
ffffffff8040376a:	6422                	ld	s0,8(sp)
ffffffff8040376c:	0141                	addi	sp,sp,16
ffffffff8040376e:	8082                	ret

ffffffff80403770 <do_getppid>:
ffffffff80403770:	1141                	addi	sp,sp,-16
ffffffff80403772:	e422                	sd	s0,8(sp)
ffffffff80403774:	0800                	addi	s0,sp,16
ffffffff80403776:	0001c797          	auipc	a5,0x1c
ffffffff8040377a:	31278793          	addi	a5,a5,786 # ffffffff8041fa88 <current_running>
ffffffff8040377e:	639c                	ld	a5,0(a5)
ffffffff80403780:	6fdc                	ld	a5,152(a5)
ffffffff80403782:	e399                	bnez	a5,ffffffff80403788 <do_getppid+0x18>
ffffffff80403784:	4785                	li	a5,1
ffffffff80403786:	a801                	j	ffffffff80403796 <do_getppid+0x26>
ffffffff80403788:	0001c797          	auipc	a5,0x1c
ffffffff8040378c:	30078793          	addi	a5,a5,768 # ffffffff8041fa88 <current_running>
ffffffff80403790:	639c                	ld	a5,0(a5)
ffffffff80403792:	6fdc                	ld	a5,152(a5)
ffffffff80403794:	4fbc                	lw	a5,88(a5)
ffffffff80403796:	853e                	mv	a0,a5
ffffffff80403798:	6422                	ld	s0,8(sp)
ffffffff8040379a:	0141                	addi	sp,sp,16
ffffffff8040379c:	8082                	ret

ffffffff8040379e <show_ready_queue>:
ffffffff8040379e:	1101                	addi	sp,sp,-32
ffffffff804037a0:	ec06                	sd	ra,24(sp)
ffffffff804037a2:	e822                	sd	s0,16(sp)
ffffffff804037a4:	1000                	addi	s0,sp,32
ffffffff804037a6:	45a1                	li	a1,8
ffffffff804037a8:	4505                	li	a0,1
ffffffff804037aa:	84cfe0ef          	jal	ra,ffffffff804017f6 <vt100_move_cursor>
ffffffff804037ae:	0000b797          	auipc	a5,0xb
ffffffff804037b2:	e6a78793          	addi	a5,a5,-406 # ffffffff8040e618 <ready_queue>
ffffffff804037b6:	639c                	ld	a5,0(a5)
ffffffff804037b8:	fef43423          	sd	a5,-24(s0)
ffffffff804037bc:	a02d                	j	ffffffff804037e6 <show_ready_queue+0x48>
ffffffff804037be:	fe843783          	ld	a5,-24(s0)
ffffffff804037c2:	6b9c                	ld	a5,16(a5)
ffffffff804037c4:	fef43023          	sd	a5,-32(s0)
ffffffff804037c8:	fe043783          	ld	a5,-32(s0)
ffffffff804037cc:	4fbc                	lw	a5,88(a5)
ffffffff804037ce:	85be                	mv	a1,a5
ffffffff804037d0:	0000a517          	auipc	a0,0xa
ffffffff804037d4:	16050513          	addi	a0,a0,352 # ffffffff8040d930 <__FUNCTION__.1877+0x68>
ffffffff804037d8:	785020ef          	jal	ra,ffffffff8040675c <printk>
ffffffff804037dc:	fe843783          	ld	a5,-24(s0)
ffffffff804037e0:	639c                	ld	a5,0(a5)
ffffffff804037e2:	fef43423          	sd	a5,-24(s0)
ffffffff804037e6:	fe843703          	ld	a4,-24(s0)
ffffffff804037ea:	0000b797          	auipc	a5,0xb
ffffffff804037ee:	e2e78793          	addi	a5,a5,-466 # ffffffff8040e618 <ready_queue>
ffffffff804037f2:	fcf716e3          	bne	a4,a5,ffffffff804037be <show_ready_queue+0x20>
ffffffff804037f6:	0001c797          	auipc	a5,0x1c
ffffffff804037fa:	29278793          	addi	a5,a5,658 # ffffffff8041fa88 <current_running>
ffffffff804037fe:	639c                	ld	a5,0(a5)
ffffffff80403800:	4fbc                	lw	a5,88(a5)
ffffffff80403802:	85be                	mv	a1,a5
ffffffff80403804:	0000a517          	auipc	a0,0xa
ffffffff80403808:	14c50513          	addi	a0,a0,332 # ffffffff8040d950 <__FUNCTION__.1877+0x88>
ffffffff8040380c:	751020ef          	jal	ra,ffffffff8040675c <printk>
ffffffff80403810:	0001                	nop
ffffffff80403812:	60e2                	ld	ra,24(sp)
ffffffff80403814:	6442                	ld	s0,16(sp)
ffffffff80403816:	6105                	addi	sp,sp,32
ffffffff80403818:	8082                	ret

ffffffff8040381a <_list_add>:
ffffffff8040381a:	7179                	addi	sp,sp,-48
ffffffff8040381c:	f422                	sd	s0,40(sp)
ffffffff8040381e:	1800                	addi	s0,sp,48
ffffffff80403820:	fea43423          	sd	a0,-24(s0)
ffffffff80403824:	feb43023          	sd	a1,-32(s0)
ffffffff80403828:	fcc43c23          	sd	a2,-40(s0)
ffffffff8040382c:	fd843783          	ld	a5,-40(s0)
ffffffff80403830:	fe843703          	ld	a4,-24(s0)
ffffffff80403834:	e798                	sd	a4,8(a5)
ffffffff80403836:	fe843783          	ld	a5,-24(s0)
ffffffff8040383a:	fd843703          	ld	a4,-40(s0)
ffffffff8040383e:	e398                	sd	a4,0(a5)
ffffffff80403840:	fe843783          	ld	a5,-24(s0)
ffffffff80403844:	fe043703          	ld	a4,-32(s0)
ffffffff80403848:	e798                	sd	a4,8(a5)
ffffffff8040384a:	fe043783          	ld	a5,-32(s0)
ffffffff8040384e:	fe843703          	ld	a4,-24(s0)
ffffffff80403852:	e398                	sd	a4,0(a5)
ffffffff80403854:	0001                	nop
ffffffff80403856:	7422                	ld	s0,40(sp)
ffffffff80403858:	6145                	addi	sp,sp,48
ffffffff8040385a:	8082                	ret

ffffffff8040385c <_list_del>:
ffffffff8040385c:	1101                	addi	sp,sp,-32
ffffffff8040385e:	ec22                	sd	s0,24(sp)
ffffffff80403860:	1000                	addi	s0,sp,32
ffffffff80403862:	fea43423          	sd	a0,-24(s0)
ffffffff80403866:	feb43023          	sd	a1,-32(s0)
ffffffff8040386a:	fe043783          	ld	a5,-32(s0)
ffffffff8040386e:	fe843703          	ld	a4,-24(s0)
ffffffff80403872:	e798                	sd	a4,8(a5)
ffffffff80403874:	fe843783          	ld	a5,-24(s0)
ffffffff80403878:	fe043703          	ld	a4,-32(s0)
ffffffff8040387c:	e398                	sd	a4,0(a5)
ffffffff8040387e:	0001                	nop
ffffffff80403880:	6462                	ld	s0,24(sp)
ffffffff80403882:	6105                	addi	sp,sp,32
ffffffff80403884:	8082                	ret

ffffffff80403886 <list_del>:
ffffffff80403886:	1101                	addi	sp,sp,-32
ffffffff80403888:	ec06                	sd	ra,24(sp)
ffffffff8040388a:	e822                	sd	s0,16(sp)
ffffffff8040388c:	1000                	addi	s0,sp,32
ffffffff8040388e:	fea43423          	sd	a0,-24(s0)
ffffffff80403892:	fe843783          	ld	a5,-24(s0)
ffffffff80403896:	679c                	ld	a5,8(a5)
ffffffff80403898:	c79d                	beqz	a5,ffffffff804038c6 <list_del+0x40>
ffffffff8040389a:	fe843783          	ld	a5,-24(s0)
ffffffff8040389e:	639c                	ld	a5,0(a5)
ffffffff804038a0:	c39d                	beqz	a5,ffffffff804038c6 <list_del+0x40>
ffffffff804038a2:	fe843783          	ld	a5,-24(s0)
ffffffff804038a6:	6798                	ld	a4,8(a5)
ffffffff804038a8:	fe843783          	ld	a5,-24(s0)
ffffffff804038ac:	639c                	ld	a5,0(a5)
ffffffff804038ae:	85be                	mv	a1,a5
ffffffff804038b0:	853a                	mv	a0,a4
ffffffff804038b2:	fabff0ef          	jal	ra,ffffffff8040385c <_list_del>
ffffffff804038b6:	fe843783          	ld	a5,-24(s0)
ffffffff804038ba:	0007b423          	sd	zero,8(a5)
ffffffff804038be:	fe843783          	ld	a5,-24(s0)
ffffffff804038c2:	0007b023          	sd	zero,0(a5)
ffffffff804038c6:	0001                	nop
ffffffff804038c8:	60e2                	ld	ra,24(sp)
ffffffff804038ca:	6442                	ld	s0,16(sp)
ffffffff804038cc:	6105                	addi	sp,sp,32
ffffffff804038ce:	8082                	ret

ffffffff804038d0 <list_add_tail>:
ffffffff804038d0:	1101                	addi	sp,sp,-32
ffffffff804038d2:	ec06                	sd	ra,24(sp)
ffffffff804038d4:	e822                	sd	s0,16(sp)
ffffffff804038d6:	1000                	addi	s0,sp,32
ffffffff804038d8:	fea43423          	sd	a0,-24(s0)
ffffffff804038dc:	feb43023          	sd	a1,-32(s0)
ffffffff804038e0:	fe043783          	ld	a5,-32(s0)
ffffffff804038e4:	679c                	ld	a5,8(a5)
ffffffff804038e6:	fe043603          	ld	a2,-32(s0)
ffffffff804038ea:	85be                	mv	a1,a5
ffffffff804038ec:	fe843503          	ld	a0,-24(s0)
ffffffff804038f0:	f2bff0ef          	jal	ra,ffffffff8040381a <_list_add>
ffffffff804038f4:	0001                	nop
ffffffff804038f6:	60e2                	ld	ra,24(sp)
ffffffff804038f8:	6442                	ld	s0,16(sp)
ffffffff804038fa:	6105                	addi	sp,sp,32
ffffffff804038fc:	8082                	ret

ffffffff804038fe <timer_create>:
ffffffff804038fe:	7139                	addi	sp,sp,-64
ffffffff80403900:	fc06                	sd	ra,56(sp)
ffffffff80403902:	f822                	sd	s0,48(sp)
ffffffff80403904:	0080                	addi	s0,sp,64
ffffffff80403906:	fca43c23          	sd	a0,-40(s0)
ffffffff8040390a:	fcb43823          	sd	a1,-48(s0)
ffffffff8040390e:	fcc43423          	sd	a2,-56(s0)
ffffffff80403912:	fb6fc0ef          	jal	ra,ffffffff804000c8 <disable_preempt>
ffffffff80403916:	03000513          	li	a0,48
ffffffff8040391a:	31a010ef          	jal	ra,ffffffff80404c34 <kmalloc>
ffffffff8040391e:	fea43423          	sd	a0,-24(s0)
ffffffff80403922:	33a000ef          	jal	ra,ffffffff80403c5c <get_ticks>
ffffffff80403926:	872a                	mv	a4,a0
ffffffff80403928:	fc843783          	ld	a5,-56(s0)
ffffffff8040392c:	973e                	add	a4,a4,a5
ffffffff8040392e:	fe843783          	ld	a5,-24(s0)
ffffffff80403932:	ef98                	sd	a4,24(a5)
ffffffff80403934:	fe843783          	ld	a5,-24(s0)
ffffffff80403938:	fd843703          	ld	a4,-40(s0)
ffffffff8040393c:	f398                	sd	a4,32(a5)
ffffffff8040393e:	fe843783          	ld	a5,-24(s0)
ffffffff80403942:	fd043703          	ld	a4,-48(s0)
ffffffff80403946:	f798                	sd	a4,40(a5)
ffffffff80403948:	fe843703          	ld	a4,-24(s0)
ffffffff8040394c:	fe843783          	ld	a5,-24(s0)
ffffffff80403950:	eb98                	sd	a4,16(a5)
ffffffff80403952:	fe843783          	ld	a5,-24(s0)
ffffffff80403956:	0000b597          	auipc	a1,0xb
ffffffff8040395a:	d2258593          	addi	a1,a1,-734 # ffffffff8040e678 <timers>
ffffffff8040395e:	853e                	mv	a0,a5
ffffffff80403960:	f71ff0ef          	jal	ra,ffffffff804038d0 <list_add_tail>
ffffffff80403964:	f3cfc0ef          	jal	ra,ffffffff804000a0 <enable_preempt>
ffffffff80403968:	0001                	nop
ffffffff8040396a:	70e2                	ld	ra,56(sp)
ffffffff8040396c:	7442                	ld	s0,48(sp)
ffffffff8040396e:	6121                	addi	sp,sp,64
ffffffff80403970:	8082                	ret

ffffffff80403972 <timer_check>:
ffffffff80403972:	7179                	addi	sp,sp,-48
ffffffff80403974:	f406                	sd	ra,40(sp)
ffffffff80403976:	f022                	sd	s0,32(sp)
ffffffff80403978:	1800                	addi	s0,sp,48
ffffffff8040397a:	f4efc0ef          	jal	ra,ffffffff804000c8 <disable_preempt>
ffffffff8040397e:	2de000ef          	jal	ra,ffffffff80403c5c <get_ticks>
ffffffff80403982:	fca43c23          	sd	a0,-40(s0)
ffffffff80403986:	0000b797          	auipc	a5,0xb
ffffffff8040398a:	cf278793          	addi	a5,a5,-782 # ffffffff8040e678 <timers>
ffffffff8040398e:	639c                	ld	a5,0(a5)
ffffffff80403990:	fef43423          	sd	a5,-24(s0)
ffffffff80403994:	fe843783          	ld	a5,-24(s0)
ffffffff80403998:	639c                	ld	a5,0(a5)
ffffffff8040399a:	fef43023          	sd	a5,-32(s0)
ffffffff8040399e:	a835                	j	ffffffff804039da <timer_check+0x68>
ffffffff804039a0:	fe843783          	ld	a5,-24(s0)
ffffffff804039a4:	6f9c                	ld	a5,24(a5)
ffffffff804039a6:	fd843703          	ld	a4,-40(s0)
ffffffff804039aa:	00e7ff63          	bgeu	a5,a4,ffffffff804039c8 <timer_check+0x56>
ffffffff804039ae:	fe843783          	ld	a5,-24(s0)
ffffffff804039b2:	853e                	mv	a0,a5
ffffffff804039b4:	ed3ff0ef          	jal	ra,ffffffff80403886 <list_del>
ffffffff804039b8:	fe843783          	ld	a5,-24(s0)
ffffffff804039bc:	7398                	ld	a4,32(a5)
ffffffff804039be:	fe843783          	ld	a5,-24(s0)
ffffffff804039c2:	779c                	ld	a5,40(a5)
ffffffff804039c4:	853e                	mv	a0,a5
ffffffff804039c6:	9702                	jalr	a4
ffffffff804039c8:	fe043783          	ld	a5,-32(s0)
ffffffff804039cc:	fef43423          	sd	a5,-24(s0)
ffffffff804039d0:	fe843783          	ld	a5,-24(s0)
ffffffff804039d4:	639c                	ld	a5,0(a5)
ffffffff804039d6:	fef43023          	sd	a5,-32(s0)
ffffffff804039da:	fe843703          	ld	a4,-24(s0)
ffffffff804039de:	0000b797          	auipc	a5,0xb
ffffffff804039e2:	c9a78793          	addi	a5,a5,-870 # ffffffff8040e678 <timers>
ffffffff804039e6:	faf71de3          	bne	a4,a5,ffffffff804039a0 <timer_check+0x2e>
ffffffff804039ea:	eb6fc0ef          	jal	ra,ffffffff804000a0 <enable_preempt>
ffffffff804039ee:	0001                	nop
ffffffff804039f0:	70a2                	ld	ra,40(sp)
ffffffff804039f2:	7402                	ld	s0,32(sp)
ffffffff804039f4:	6145                	addi	sp,sp,48
ffffffff804039f6:	8082                	ret

ffffffff804039f8 <do_times>:
ffffffff804039f8:	7179                	addi	sp,sp,-48
ffffffff804039fa:	f406                	sd	ra,40(sp)
ffffffff804039fc:	f022                	sd	s0,32(sp)
ffffffff804039fe:	1800                	addi	s0,sp,48
ffffffff80403a00:	fca43c23          	sd	a0,-40(s0)
ffffffff80403a04:	258000ef          	jal	ra,ffffffff80403c5c <get_ticks>
ffffffff80403a08:	fea43023          	sd	a0,-32(s0)
ffffffff80403a0c:	0001c797          	auipc	a5,0x1c
ffffffff80403a10:	07c78793          	addi	a5,a5,124 # ffffffff8041fa88 <current_running>
ffffffff80403a14:	639c                	ld	a5,0(a5)
ffffffff80403a16:	7fd8                	ld	a4,184(a5)
ffffffff80403a18:	fd843783          	ld	a5,-40(s0)
ffffffff80403a1c:	e398                	sd	a4,0(a5)
ffffffff80403a1e:	0001c797          	auipc	a5,0x1c
ffffffff80403a22:	06a78793          	addi	a5,a5,106 # ffffffff8041fa88 <current_running>
ffffffff80403a26:	639c                	ld	a5,0(a5)
ffffffff80403a28:	7bd8                	ld	a4,176(a5)
ffffffff80403a2a:	fd843783          	ld	a5,-40(s0)
ffffffff80403a2e:	e798                	sd	a4,8(a5)
ffffffff80403a30:	fd843783          	ld	a5,-40(s0)
ffffffff80403a34:	0007b823          	sd	zero,16(a5)
ffffffff80403a38:	fd843783          	ld	a5,-40(s0)
ffffffff80403a3c:	0007bc23          	sd	zero,24(a5)
ffffffff80403a40:	fe042623          	sw	zero,-20(s0)
ffffffff80403a44:	a8bd                	j	ffffffff80403ac2 <do_times+0xca>
ffffffff80403a46:	0001c717          	auipc	a4,0x1c
ffffffff80403a4a:	04a70713          	addi	a4,a4,74 # ffffffff8041fa90 <pcb>
ffffffff80403a4e:	fec46683          	lwu	a3,-20(s0)
ffffffff80403a52:	2c000793          	li	a5,704
ffffffff80403a56:	02f687b3          	mul	a5,a3,a5
ffffffff80403a5a:	97ba                	add	a5,a5,a4
ffffffff80403a5c:	6fd8                	ld	a4,152(a5)
ffffffff80403a5e:	0001c797          	auipc	a5,0x1c
ffffffff80403a62:	02a78793          	addi	a5,a5,42 # ffffffff8041fa88 <current_running>
ffffffff80403a66:	639c                	ld	a5,0(a5)
ffffffff80403a68:	04f71863          	bne	a4,a5,ffffffff80403ab8 <do_times+0xc0>
ffffffff80403a6c:	fd843783          	ld	a5,-40(s0)
ffffffff80403a70:	6b98                	ld	a4,16(a5)
ffffffff80403a72:	0001c697          	auipc	a3,0x1c
ffffffff80403a76:	01e68693          	addi	a3,a3,30 # ffffffff8041fa90 <pcb>
ffffffff80403a7a:	fec46603          	lwu	a2,-20(s0)
ffffffff80403a7e:	2c000793          	li	a5,704
ffffffff80403a82:	02f607b3          	mul	a5,a2,a5
ffffffff80403a86:	97b6                	add	a5,a5,a3
ffffffff80403a88:	7fdc                	ld	a5,184(a5)
ffffffff80403a8a:	973e                	add	a4,a4,a5
ffffffff80403a8c:	fd843783          	ld	a5,-40(s0)
ffffffff80403a90:	eb98                	sd	a4,16(a5)
ffffffff80403a92:	fd843783          	ld	a5,-40(s0)
ffffffff80403a96:	6f98                	ld	a4,24(a5)
ffffffff80403a98:	0001c697          	auipc	a3,0x1c
ffffffff80403a9c:	ff868693          	addi	a3,a3,-8 # ffffffff8041fa90 <pcb>
ffffffff80403aa0:	fec46603          	lwu	a2,-20(s0)
ffffffff80403aa4:	2c000793          	li	a5,704
ffffffff80403aa8:	02f607b3          	mul	a5,a2,a5
ffffffff80403aac:	97b6                	add	a5,a5,a3
ffffffff80403aae:	7bdc                	ld	a5,176(a5)
ffffffff80403ab0:	973e                	add	a4,a4,a5
ffffffff80403ab2:	fd843783          	ld	a5,-40(s0)
ffffffff80403ab6:	ef98                	sd	a4,24(a5)
ffffffff80403ab8:	fec42783          	lw	a5,-20(s0)
ffffffff80403abc:	2785                	addiw	a5,a5,1
ffffffff80403abe:	fef42623          	sw	a5,-20(s0)
ffffffff80403ac2:	fec42783          	lw	a5,-20(s0)
ffffffff80403ac6:	0007871b          	sext.w	a4,a5
ffffffff80403aca:	47bd                	li	a5,15
ffffffff80403acc:	f6e7fde3          	bgeu	a5,a4,ffffffff80403a46 <do_times+0x4e>
ffffffff80403ad0:	fe043783          	ld	a5,-32(s0)
ffffffff80403ad4:	853e                	mv	a0,a5
ffffffff80403ad6:	70a2                	ld	ra,40(sp)
ffffffff80403ad8:	7402                	ld	s0,32(sp)
ffffffff80403ada:	6145                	addi	sp,sp,48
ffffffff80403adc:	8082                	ret

ffffffff80403ade <do_gettimeofday>:
ffffffff80403ade:	7139                	addi	sp,sp,-64
ffffffff80403ae0:	fc06                	sd	ra,56(sp)
ffffffff80403ae2:	f822                	sd	s0,48(sp)
ffffffff80403ae4:	0080                	addi	s0,sp,64
ffffffff80403ae6:	fca43423          	sd	a0,-56(s0)
ffffffff80403aea:	172000ef          	jal	ra,ffffffff80403c5c <get_ticks>
ffffffff80403aee:	fca43c23          	sd	a0,-40(s0)
ffffffff80403af2:	00015797          	auipc	a5,0x15
ffffffff80403af6:	b9e78793          	addi	a5,a5,-1122 # ffffffff80418690 <time_base>
ffffffff80403afa:	439c                	lw	a5,0(a5)
ffffffff80403afc:	1782                	slli	a5,a5,0x20
ffffffff80403afe:	9381                	srli	a5,a5,0x20
ffffffff80403b00:	fd843703          	ld	a4,-40(s0)
ffffffff80403b04:	02f757b3          	divu	a5,a4,a5
ffffffff80403b08:	0007871b          	sext.w	a4,a5
ffffffff80403b0c:	fc843783          	ld	a5,-56(s0)
ffffffff80403b10:	c398                	sw	a4,0(a5)
ffffffff80403b12:	00015797          	auipc	a5,0x15
ffffffff80403b16:	b7e78793          	addi	a5,a5,-1154 # ffffffff80418690 <time_base>
ffffffff80403b1a:	439c                	lw	a5,0(a5)
ffffffff80403b1c:	1782                	slli	a5,a5,0x20
ffffffff80403b1e:	9381                	srli	a5,a5,0x20
ffffffff80403b20:	fd843703          	ld	a4,-40(s0)
ffffffff80403b24:	02f777b3          	remu	a5,a4,a5
ffffffff80403b28:	fef43423          	sd	a5,-24(s0)
ffffffff80403b2c:	fc843783          	ld	a5,-56(s0)
ffffffff80403b30:	0007a223          	sw	zero,4(a5)
ffffffff80403b34:	fe042223          	sw	zero,-28(s0)
ffffffff80403b38:	a89d                	j	ffffffff80403bae <do_gettimeofday+0xd0>
ffffffff80403b3a:	fc843783          	ld	a5,-56(s0)
ffffffff80403b3e:	43dc                	lw	a5,4(a5)
ffffffff80403b40:	873e                	mv	a4,a5
ffffffff80403b42:	87ba                	mv	a5,a4
ffffffff80403b44:	0027979b          	slliw	a5,a5,0x2
ffffffff80403b48:	9fb9                	addw	a5,a5,a4
ffffffff80403b4a:	0017979b          	slliw	a5,a5,0x1
ffffffff80403b4e:	0007869b          	sext.w	a3,a5
ffffffff80403b52:	fe843703          	ld	a4,-24(s0)
ffffffff80403b56:	87ba                	mv	a5,a4
ffffffff80403b58:	078a                	slli	a5,a5,0x2
ffffffff80403b5a:	97ba                	add	a5,a5,a4
ffffffff80403b5c:	0786                	slli	a5,a5,0x1
ffffffff80403b5e:	873e                	mv	a4,a5
ffffffff80403b60:	00015797          	auipc	a5,0x15
ffffffff80403b64:	b3078793          	addi	a5,a5,-1232 # ffffffff80418690 <time_base>
ffffffff80403b68:	439c                	lw	a5,0(a5)
ffffffff80403b6a:	1782                	slli	a5,a5,0x20
ffffffff80403b6c:	9381                	srli	a5,a5,0x20
ffffffff80403b6e:	02f757b3          	divu	a5,a4,a5
ffffffff80403b72:	2781                	sext.w	a5,a5
ffffffff80403b74:	9fb5                	addw	a5,a5,a3
ffffffff80403b76:	0007871b          	sext.w	a4,a5
ffffffff80403b7a:	fc843783          	ld	a5,-56(s0)
ffffffff80403b7e:	c3d8                	sw	a4,4(a5)
ffffffff80403b80:	fe843703          	ld	a4,-24(s0)
ffffffff80403b84:	87ba                	mv	a5,a4
ffffffff80403b86:	078a                	slli	a5,a5,0x2
ffffffff80403b88:	97ba                	add	a5,a5,a4
ffffffff80403b8a:	0786                	slli	a5,a5,0x1
ffffffff80403b8c:	873e                	mv	a4,a5
ffffffff80403b8e:	00015797          	auipc	a5,0x15
ffffffff80403b92:	b0278793          	addi	a5,a5,-1278 # ffffffff80418690 <time_base>
ffffffff80403b96:	439c                	lw	a5,0(a5)
ffffffff80403b98:	1782                	slli	a5,a5,0x20
ffffffff80403b9a:	9381                	srli	a5,a5,0x20
ffffffff80403b9c:	02f777b3          	remu	a5,a4,a5
ffffffff80403ba0:	fef43423          	sd	a5,-24(s0)
ffffffff80403ba4:	fe442783          	lw	a5,-28(s0)
ffffffff80403ba8:	2785                	addiw	a5,a5,1
ffffffff80403baa:	fef42223          	sw	a5,-28(s0)
ffffffff80403bae:	fe442783          	lw	a5,-28(s0)
ffffffff80403bb2:	0007871b          	sext.w	a4,a5
ffffffff80403bb6:	47a1                	li	a5,8
ffffffff80403bb8:	f8e7f1e3          	bgeu	a5,a4,ffffffff80403b3a <do_gettimeofday+0x5c>
ffffffff80403bbc:	4781                	li	a5,0
ffffffff80403bbe:	853e                	mv	a0,a5
ffffffff80403bc0:	70e2                	ld	ra,56(sp)
ffffffff80403bc2:	7442                	ld	s0,48(sp)
ffffffff80403bc4:	6121                	addi	sp,sp,64
ffffffff80403bc6:	8082                	ret

ffffffff80403bc8 <kernel_time_count>:
ffffffff80403bc8:	1101                	addi	sp,sp,-32
ffffffff80403bca:	ec06                	sd	ra,24(sp)
ffffffff80403bcc:	e822                	sd	s0,16(sp)
ffffffff80403bce:	1000                	addi	s0,sp,32
ffffffff80403bd0:	08c000ef          	jal	ra,ffffffff80403c5c <get_ticks>
ffffffff80403bd4:	fea43423          	sd	a0,-24(s0)
ffffffff80403bd8:	0001c797          	auipc	a5,0x1c
ffffffff80403bdc:	eb078793          	addi	a5,a5,-336 # ffffffff8041fa88 <current_running>
ffffffff80403be0:	639c                	ld	a5,0(a5)
ffffffff80403be2:	7bd4                	ld	a3,176(a5)
ffffffff80403be4:	00017717          	auipc	a4,0x17
ffffffff80403be8:	35c70713          	addi	a4,a4,860 # ffffffff8041af40 <last_time>
ffffffff80403bec:	6318                	ld	a4,0(a4)
ffffffff80403bee:	fe843603          	ld	a2,-24(s0)
ffffffff80403bf2:	40e60733          	sub	a4,a2,a4
ffffffff80403bf6:	9736                	add	a4,a4,a3
ffffffff80403bf8:	fbd8                	sd	a4,176(a5)
ffffffff80403bfa:	00017797          	auipc	a5,0x17
ffffffff80403bfe:	34678793          	addi	a5,a5,838 # ffffffff8041af40 <last_time>
ffffffff80403c02:	fe843703          	ld	a4,-24(s0)
ffffffff80403c06:	e398                	sd	a4,0(a5)
ffffffff80403c08:	0001                	nop
ffffffff80403c0a:	60e2                	ld	ra,24(sp)
ffffffff80403c0c:	6442                	ld	s0,16(sp)
ffffffff80403c0e:	6105                	addi	sp,sp,32
ffffffff80403c10:	8082                	ret

ffffffff80403c12 <user_time_count>:
ffffffff80403c12:	1101                	addi	sp,sp,-32
ffffffff80403c14:	ec06                	sd	ra,24(sp)
ffffffff80403c16:	e822                	sd	s0,16(sp)
ffffffff80403c18:	1000                	addi	s0,sp,32
ffffffff80403c1a:	042000ef          	jal	ra,ffffffff80403c5c <get_ticks>
ffffffff80403c1e:	fea43423          	sd	a0,-24(s0)
ffffffff80403c22:	0001c797          	auipc	a5,0x1c
ffffffff80403c26:	e6678793          	addi	a5,a5,-410 # ffffffff8041fa88 <current_running>
ffffffff80403c2a:	639c                	ld	a5,0(a5)
ffffffff80403c2c:	7fd4                	ld	a3,184(a5)
ffffffff80403c2e:	00017717          	auipc	a4,0x17
ffffffff80403c32:	31270713          	addi	a4,a4,786 # ffffffff8041af40 <last_time>
ffffffff80403c36:	6318                	ld	a4,0(a4)
ffffffff80403c38:	fe843603          	ld	a2,-24(s0)
ffffffff80403c3c:	40e60733          	sub	a4,a2,a4
ffffffff80403c40:	9736                	add	a4,a4,a3
ffffffff80403c42:	ffd8                	sd	a4,184(a5)
ffffffff80403c44:	00017797          	auipc	a5,0x17
ffffffff80403c48:	2fc78793          	addi	a5,a5,764 # ffffffff8041af40 <last_time>
ffffffff80403c4c:	fe843703          	ld	a4,-24(s0)
ffffffff80403c50:	e398                	sd	a4,0(a5)
ffffffff80403c52:	0001                	nop
ffffffff80403c54:	60e2                	ld	ra,24(sp)
ffffffff80403c56:	6442                	ld	s0,16(sp)
ffffffff80403c58:	6105                	addi	sp,sp,32
ffffffff80403c5a:	8082                	ret

ffffffff80403c5c <get_ticks>:
ffffffff80403c5c:	1141                	addi	sp,sp,-16
ffffffff80403c5e:	e422                	sd	s0,8(sp)
ffffffff80403c60:	0800                	addi	s0,sp,16
ffffffff80403c62:	c0102773          	rdtime	a4
ffffffff80403c66:	00015797          	auipc	a5,0x15
ffffffff80403c6a:	a2278793          	addi	a5,a5,-1502 # ffffffff80418688 <time_elapsed>
ffffffff80403c6e:	e398                	sd	a4,0(a5)
ffffffff80403c70:	00015797          	auipc	a5,0x15
ffffffff80403c74:	a1878793          	addi	a5,a5,-1512 # ffffffff80418688 <time_elapsed>
ffffffff80403c78:	639c                	ld	a5,0(a5)
ffffffff80403c7a:	853e                	mv	a0,a5
ffffffff80403c7c:	6422                	ld	s0,8(sp)
ffffffff80403c7e:	0141                	addi	sp,sp,16
ffffffff80403c80:	8082                	ret

ffffffff80403c82 <get_timer>:
ffffffff80403c82:	1141                	addi	sp,sp,-16
ffffffff80403c84:	e406                	sd	ra,8(sp)
ffffffff80403c86:	e022                	sd	s0,0(sp)
ffffffff80403c88:	0800                	addi	s0,sp,16
ffffffff80403c8a:	fd3ff0ef          	jal	ra,ffffffff80403c5c <get_ticks>
ffffffff80403c8e:	872a                	mv	a4,a0
ffffffff80403c90:	00015797          	auipc	a5,0x15
ffffffff80403c94:	a0078793          	addi	a5,a5,-1536 # ffffffff80418690 <time_base>
ffffffff80403c98:	439c                	lw	a5,0(a5)
ffffffff80403c9a:	1782                	slli	a5,a5,0x20
ffffffff80403c9c:	9381                	srli	a5,a5,0x20
ffffffff80403c9e:	02f757b3          	divu	a5,a4,a5
ffffffff80403ca2:	853e                	mv	a0,a5
ffffffff80403ca4:	60a2                	ld	ra,8(sp)
ffffffff80403ca6:	6402                	ld	s0,0(sp)
ffffffff80403ca8:	0141                	addi	sp,sp,16
ffffffff80403caa:	8082                	ret

ffffffff80403cac <get_time_base>:
ffffffff80403cac:	1141                	addi	sp,sp,-16
ffffffff80403cae:	e422                	sd	s0,8(sp)
ffffffff80403cb0:	0800                	addi	s0,sp,16
ffffffff80403cb2:	00015797          	auipc	a5,0x15
ffffffff80403cb6:	9de78793          	addi	a5,a5,-1570 # ffffffff80418690 <time_base>
ffffffff80403cba:	439c                	lw	a5,0(a5)
ffffffff80403cbc:	1782                	slli	a5,a5,0x20
ffffffff80403cbe:	9381                	srli	a5,a5,0x20
ffffffff80403cc0:	853e                	mv	a0,a5
ffffffff80403cc2:	6422                	ld	s0,8(sp)
ffffffff80403cc4:	0141                	addi	sp,sp,16
ffffffff80403cc6:	8082                	ret

ffffffff80403cc8 <latency>:
ffffffff80403cc8:	7179                	addi	sp,sp,-48
ffffffff80403cca:	f406                	sd	ra,40(sp)
ffffffff80403ccc:	f022                	sd	s0,32(sp)
ffffffff80403cce:	1800                	addi	s0,sp,48
ffffffff80403cd0:	fca43c23          	sd	a0,-40(s0)
ffffffff80403cd4:	fafff0ef          	jal	ra,ffffffff80403c82 <get_timer>
ffffffff80403cd8:	fea43423          	sd	a0,-24(s0)
ffffffff80403cdc:	0001                	nop
ffffffff80403cde:	fa5ff0ef          	jal	ra,ffffffff80403c82 <get_timer>
ffffffff80403ce2:	872a                	mv	a4,a0
ffffffff80403ce4:	fe843783          	ld	a5,-24(s0)
ffffffff80403ce8:	40f707b3          	sub	a5,a4,a5
ffffffff80403cec:	fd843703          	ld	a4,-40(s0)
ffffffff80403cf0:	fee7e7e3          	bltu	a5,a4,ffffffff80403cde <latency+0x16>
ffffffff80403cf4:	0001                	nop
ffffffff80403cf6:	70a2                	ld	ra,40(sp)
ffffffff80403cf8:	7402                	ld	s0,32(sp)
ffffffff80403cfa:	6145                	addi	sp,sp,48
ffffffff80403cfc:	8082                	ret

ffffffff80403cfe <_list_add>:
ffffffff80403cfe:	7179                	addi	sp,sp,-48
ffffffff80403d00:	f422                	sd	s0,40(sp)
ffffffff80403d02:	1800                	addi	s0,sp,48
ffffffff80403d04:	fea43423          	sd	a0,-24(s0)
ffffffff80403d08:	feb43023          	sd	a1,-32(s0)
ffffffff80403d0c:	fcc43c23          	sd	a2,-40(s0)
ffffffff80403d10:	fd843783          	ld	a5,-40(s0)
ffffffff80403d14:	fe843703          	ld	a4,-24(s0)
ffffffff80403d18:	e798                	sd	a4,8(a5)
ffffffff80403d1a:	fe843783          	ld	a5,-24(s0)
ffffffff80403d1e:	fd843703          	ld	a4,-40(s0)
ffffffff80403d22:	e398                	sd	a4,0(a5)
ffffffff80403d24:	fe843783          	ld	a5,-24(s0)
ffffffff80403d28:	fe043703          	ld	a4,-32(s0)
ffffffff80403d2c:	e798                	sd	a4,8(a5)
ffffffff80403d2e:	fe043783          	ld	a5,-32(s0)
ffffffff80403d32:	fe843703          	ld	a4,-24(s0)
ffffffff80403d36:	e398                	sd	a4,0(a5)
ffffffff80403d38:	0001                	nop
ffffffff80403d3a:	7422                	ld	s0,40(sp)
ffffffff80403d3c:	6145                	addi	sp,sp,48
ffffffff80403d3e:	8082                	ret

ffffffff80403d40 <_list_del>:
ffffffff80403d40:	1101                	addi	sp,sp,-32
ffffffff80403d42:	ec22                	sd	s0,24(sp)
ffffffff80403d44:	1000                	addi	s0,sp,32
ffffffff80403d46:	fea43423          	sd	a0,-24(s0)
ffffffff80403d4a:	feb43023          	sd	a1,-32(s0)
ffffffff80403d4e:	fe043783          	ld	a5,-32(s0)
ffffffff80403d52:	fe843703          	ld	a4,-24(s0)
ffffffff80403d56:	e798                	sd	a4,8(a5)
ffffffff80403d58:	fe843783          	ld	a5,-24(s0)
ffffffff80403d5c:	fe043703          	ld	a4,-32(s0)
ffffffff80403d60:	e398                	sd	a4,0(a5)
ffffffff80403d62:	0001                	nop
ffffffff80403d64:	6462                	ld	s0,24(sp)
ffffffff80403d66:	6105                	addi	sp,sp,32
ffffffff80403d68:	8082                	ret

ffffffff80403d6a <list_del>:
ffffffff80403d6a:	1101                	addi	sp,sp,-32
ffffffff80403d6c:	ec06                	sd	ra,24(sp)
ffffffff80403d6e:	e822                	sd	s0,16(sp)
ffffffff80403d70:	1000                	addi	s0,sp,32
ffffffff80403d72:	fea43423          	sd	a0,-24(s0)
ffffffff80403d76:	fe843783          	ld	a5,-24(s0)
ffffffff80403d7a:	679c                	ld	a5,8(a5)
ffffffff80403d7c:	c79d                	beqz	a5,ffffffff80403daa <list_del+0x40>
ffffffff80403d7e:	fe843783          	ld	a5,-24(s0)
ffffffff80403d82:	639c                	ld	a5,0(a5)
ffffffff80403d84:	c39d                	beqz	a5,ffffffff80403daa <list_del+0x40>
ffffffff80403d86:	fe843783          	ld	a5,-24(s0)
ffffffff80403d8a:	6798                	ld	a4,8(a5)
ffffffff80403d8c:	fe843783          	ld	a5,-24(s0)
ffffffff80403d90:	639c                	ld	a5,0(a5)
ffffffff80403d92:	85be                	mv	a1,a5
ffffffff80403d94:	853a                	mv	a0,a4
ffffffff80403d96:	fabff0ef          	jal	ra,ffffffff80403d40 <_list_del>
ffffffff80403d9a:	fe843783          	ld	a5,-24(s0)
ffffffff80403d9e:	0007b423          	sd	zero,8(a5)
ffffffff80403da2:	fe843783          	ld	a5,-24(s0)
ffffffff80403da6:	0007b023          	sd	zero,0(a5)
ffffffff80403daa:	0001                	nop
ffffffff80403dac:	60e2                	ld	ra,24(sp)
ffffffff80403dae:	6442                	ld	s0,16(sp)
ffffffff80403db0:	6105                	addi	sp,sp,32
ffffffff80403db2:	8082                	ret

ffffffff80403db4 <list_add_tail>:
ffffffff80403db4:	1101                	addi	sp,sp,-32
ffffffff80403db6:	ec06                	sd	ra,24(sp)
ffffffff80403db8:	e822                	sd	s0,16(sp)
ffffffff80403dba:	1000                	addi	s0,sp,32
ffffffff80403dbc:	fea43423          	sd	a0,-24(s0)
ffffffff80403dc0:	feb43023          	sd	a1,-32(s0)
ffffffff80403dc4:	fe043783          	ld	a5,-32(s0)
ffffffff80403dc8:	679c                	ld	a5,8(a5)
ffffffff80403dca:	fe043603          	ld	a2,-32(s0)
ffffffff80403dce:	85be                	mv	a1,a5
ffffffff80403dd0:	fe843503          	ld	a0,-24(s0)
ffffffff80403dd4:	f2bff0ef          	jal	ra,ffffffff80403cfe <_list_add>
ffffffff80403dd8:	0001                	nop
ffffffff80403dda:	60e2                	ld	ra,24(sp)
ffffffff80403ddc:	6442                	ld	s0,16(sp)
ffffffff80403dde:	6105                	addi	sp,sp,32
ffffffff80403de0:	8082                	ret

ffffffff80403de2 <list_empty>:
ffffffff80403de2:	1101                	addi	sp,sp,-32
ffffffff80403de4:	ec22                	sd	s0,24(sp)
ffffffff80403de6:	1000                	addi	s0,sp,32
ffffffff80403de8:	fea43423          	sd	a0,-24(s0)
ffffffff80403dec:	fe843783          	ld	a5,-24(s0)
ffffffff80403df0:	639c                	ld	a5,0(a5)
ffffffff80403df2:	fe843703          	ld	a4,-24(s0)
ffffffff80403df6:	40f707b3          	sub	a5,a4,a5
ffffffff80403dfa:	0017b793          	seqz	a5,a5
ffffffff80403dfe:	0ff7f793          	andi	a5,a5,255
ffffffff80403e02:	2781                	sext.w	a5,a5
ffffffff80403e04:	853e                	mv	a0,a5
ffffffff80403e06:	6462                	ld	s0,24(sp)
ffffffff80403e08:	6105                	addi	sp,sp,32
ffffffff80403e0a:	8082                	ret

ffffffff80403e0c <sbi_sd_write>:
ffffffff80403e0c:	1101                	addi	sp,sp,-32
ffffffff80403e0e:	ec22                	sd	s0,24(sp)
ffffffff80403e10:	1000                	addi	s0,sp,32
ffffffff80403e12:	87aa                	mv	a5,a0
ffffffff80403e14:	86ae                	mv	a3,a1
ffffffff80403e16:	8732                	mv	a4,a2
ffffffff80403e18:	fef42623          	sw	a5,-20(s0)
ffffffff80403e1c:	87b6                	mv	a5,a3
ffffffff80403e1e:	fef42423          	sw	a5,-24(s0)
ffffffff80403e22:	87ba                	mv	a5,a4
ffffffff80403e24:	fef42223          	sw	a5,-28(s0)
ffffffff80403e28:	fec46783          	lwu	a5,-20(s0)
ffffffff80403e2c:	853e                	mv	a0,a5
ffffffff80403e2e:	fe846783          	lwu	a5,-24(s0)
ffffffff80403e32:	85be                	mv	a1,a5
ffffffff80403e34:	fe446783          	lwu	a5,-28(s0)
ffffffff80403e38:	863e                	mv	a2,a5
ffffffff80403e3a:	48a9                	li	a7,10
ffffffff80403e3c:	00000073          	ecall
ffffffff80403e40:	87aa                	mv	a5,a0
ffffffff80403e42:	853e                	mv	a0,a5
ffffffff80403e44:	6462                	ld	s0,24(sp)
ffffffff80403e46:	6105                	addi	sp,sp,32
ffffffff80403e48:	8082                	ret

ffffffff80403e4a <_panic>:
ffffffff80403e4a:	7179                	addi	sp,sp,-48
ffffffff80403e4c:	f406                	sd	ra,40(sp)
ffffffff80403e4e:	f022                	sd	s0,32(sp)
ffffffff80403e50:	1800                	addi	s0,sp,48
ffffffff80403e52:	fea43423          	sd	a0,-24(s0)
ffffffff80403e56:	87ae                	mv	a5,a1
ffffffff80403e58:	fcc43c23          	sd	a2,-40(s0)
ffffffff80403e5c:	fef42223          	sw	a5,-28(s0)
ffffffff80403e60:	fe442783          	lw	a5,-28(s0)
ffffffff80403e64:	86be                	mv	a3,a5
ffffffff80403e66:	fe843603          	ld	a2,-24(s0)
ffffffff80403e6a:	fd843583          	ld	a1,-40(s0)
ffffffff80403e6e:	0000a517          	auipc	a0,0xa
ffffffff80403e72:	b0a50513          	addi	a0,a0,-1270 # ffffffff8040d978 <__FUNCTION__.1237+0x10>
ffffffff80403e76:	0e7020ef          	jal	ra,ffffffff8040675c <printk>
ffffffff80403e7a:	a001                	j	ffffffff80403e7a <_panic+0x30>

ffffffff80403e7c <set_satp>:
ffffffff80403e7c:	7179                	addi	sp,sp,-48
ffffffff80403e7e:	f422                	sd	s0,40(sp)
ffffffff80403e80:	1800                	addi	s0,sp,48
ffffffff80403e82:	87aa                	mv	a5,a0
ffffffff80403e84:	872e                	mv	a4,a1
ffffffff80403e86:	fcc43823          	sd	a2,-48(s0)
ffffffff80403e8a:	fcf42e23          	sw	a5,-36(s0)
ffffffff80403e8e:	87ba                	mv	a5,a4
ffffffff80403e90:	fcf42c23          	sw	a5,-40(s0)
ffffffff80403e94:	fdc46783          	lwu	a5,-36(s0)
ffffffff80403e98:	03c79713          	slli	a4,a5,0x3c
ffffffff80403e9c:	fd846783          	lwu	a5,-40(s0)
ffffffff80403ea0:	17b2                	slli	a5,a5,0x2c
ffffffff80403ea2:	8fd9                	or	a5,a5,a4
ffffffff80403ea4:	fd043703          	ld	a4,-48(s0)
ffffffff80403ea8:	8fd9                	or	a5,a5,a4
ffffffff80403eaa:	fef43423          	sd	a5,-24(s0)
ffffffff80403eae:	fe843783          	ld	a5,-24(s0)
ffffffff80403eb2:	18079073          	csrw	satp,a5
ffffffff80403eb6:	0001                	nop
ffffffff80403eb8:	7422                	ld	s0,40(sp)
ffffffff80403eba:	6145                	addi	sp,sp,48
ffffffff80403ebc:	8082                	ret

ffffffff80403ebe <kva2pa>:
ffffffff80403ebe:	1101                	addi	sp,sp,-32
ffffffff80403ec0:	ec22                	sd	s0,24(sp)
ffffffff80403ec2:	1000                	addi	s0,sp,32
ffffffff80403ec4:	fea43423          	sd	a0,-24(s0)
ffffffff80403ec8:	fe843703          	ld	a4,-24(s0)
ffffffff80403ecc:	4785                	li	a5,1
ffffffff80403ece:	1782                	slli	a5,a5,0x20
ffffffff80403ed0:	97ba                	add	a5,a5,a4
ffffffff80403ed2:	853e                	mv	a0,a5
ffffffff80403ed4:	6462                	ld	s0,24(sp)
ffffffff80403ed6:	6105                	addi	sp,sp,32
ffffffff80403ed8:	8082                	ret

ffffffff80403eda <pa2kva>:
ffffffff80403eda:	1101                	addi	sp,sp,-32
ffffffff80403edc:	ec22                	sd	s0,24(sp)
ffffffff80403ede:	1000                	addi	s0,sp,32
ffffffff80403ee0:	fea43423          	sd	a0,-24(s0)
ffffffff80403ee4:	fe843703          	ld	a4,-24(s0)
ffffffff80403ee8:	57fd                	li	a5,-1
ffffffff80403eea:	1782                	slli	a5,a5,0x20
ffffffff80403eec:	97ba                	add	a5,a5,a4
ffffffff80403eee:	853e                	mv	a0,a5
ffffffff80403ef0:	6462                	ld	s0,24(sp)
ffffffff80403ef2:	6105                	addi	sp,sp,32
ffffffff80403ef4:	8082                	ret

ffffffff80403ef6 <get_pfn>:
ffffffff80403ef6:	1101                	addi	sp,sp,-32
ffffffff80403ef8:	ec22                	sd	s0,24(sp)
ffffffff80403efa:	1000                	addi	s0,sp,32
ffffffff80403efc:	fea43423          	sd	a0,-24(s0)
ffffffff80403f00:	fe843783          	ld	a5,-24(s0)
ffffffff80403f04:	83a9                	srli	a5,a5,0xa
ffffffff80403f06:	853e                	mv	a0,a5
ffffffff80403f08:	6462                	ld	s0,24(sp)
ffffffff80403f0a:	6105                	addi	sp,sp,32
ffffffff80403f0c:	8082                	ret

ffffffff80403f0e <set_pfn>:
ffffffff80403f0e:	1101                	addi	sp,sp,-32
ffffffff80403f10:	ec22                	sd	s0,24(sp)
ffffffff80403f12:	1000                	addi	s0,sp,32
ffffffff80403f14:	fea43423          	sd	a0,-24(s0)
ffffffff80403f18:	feb43023          	sd	a1,-32(s0)
ffffffff80403f1c:	fe843783          	ld	a5,-24(s0)
ffffffff80403f20:	639c                	ld	a5,0(a5)
ffffffff80403f22:	3ff7f713          	andi	a4,a5,1023
ffffffff80403f26:	fe043783          	ld	a5,-32(s0)
ffffffff80403f2a:	07aa                	slli	a5,a5,0xa
ffffffff80403f2c:	8f5d                	or	a4,a4,a5
ffffffff80403f2e:	fe843783          	ld	a5,-24(s0)
ffffffff80403f32:	e398                	sd	a4,0(a5)
ffffffff80403f34:	0001                	nop
ffffffff80403f36:	6462                	ld	s0,24(sp)
ffffffff80403f38:	6105                	addi	sp,sp,32
ffffffff80403f3a:	8082                	ret

ffffffff80403f3c <get_attribute>:
ffffffff80403f3c:	1101                	addi	sp,sp,-32
ffffffff80403f3e:	ec22                	sd	s0,24(sp)
ffffffff80403f40:	1000                	addi	s0,sp,32
ffffffff80403f42:	fea43423          	sd	a0,-24(s0)
ffffffff80403f46:	feb43023          	sd	a1,-32(s0)
ffffffff80403f4a:	fe843703          	ld	a4,-24(s0)
ffffffff80403f4e:	fe043783          	ld	a5,-32(s0)
ffffffff80403f52:	8ff9                	and	a5,a5,a4
ffffffff80403f54:	853e                	mv	a0,a5
ffffffff80403f56:	6462                	ld	s0,24(sp)
ffffffff80403f58:	6105                	addi	sp,sp,32
ffffffff80403f5a:	8082                	ret

ffffffff80403f5c <set_attribute>:
ffffffff80403f5c:	1101                	addi	sp,sp,-32
ffffffff80403f5e:	ec22                	sd	s0,24(sp)
ffffffff80403f60:	1000                	addi	s0,sp,32
ffffffff80403f62:	fea43423          	sd	a0,-24(s0)
ffffffff80403f66:	feb43023          	sd	a1,-32(s0)
ffffffff80403f6a:	fe843783          	ld	a5,-24(s0)
ffffffff80403f6e:	6398                	ld	a4,0(a5)
ffffffff80403f70:	fe043783          	ld	a5,-32(s0)
ffffffff80403f74:	8f5d                	or	a4,a4,a5
ffffffff80403f76:	fe843783          	ld	a5,-24(s0)
ffffffff80403f7a:	e398                	sd	a4,0(a5)
ffffffff80403f7c:	0001                	nop
ffffffff80403f7e:	6462                	ld	s0,24(sp)
ffffffff80403f80:	6105                	addi	sp,sp,32
ffffffff80403f82:	8082                	ret

ffffffff80403f84 <get_kva_of>:
ffffffff80403f84:	711d                	addi	sp,sp,-96
ffffffff80403f86:	ec86                	sd	ra,88(sp)
ffffffff80403f88:	e8a2                	sd	s0,80(sp)
ffffffff80403f8a:	e4a6                	sd	s1,72(sp)
ffffffff80403f8c:	1080                	addi	s0,sp,96
ffffffff80403f8e:	faa43423          	sd	a0,-88(s0)
ffffffff80403f92:	fab43023          	sd	a1,-96(s0)
ffffffff80403f96:	fa843783          	ld	a5,-88(s0)
ffffffff80403f9a:	83f9                	srli	a5,a5,0x1e
ffffffff80403f9c:	1ff7f793          	andi	a5,a5,511
ffffffff80403fa0:	fcf43823          	sd	a5,-48(s0)
ffffffff80403fa4:	fa843783          	ld	a5,-88(s0)
ffffffff80403fa8:	83d5                	srli	a5,a5,0x15
ffffffff80403faa:	1ff7f793          	andi	a5,a5,511
ffffffff80403fae:	fcf43423          	sd	a5,-56(s0)
ffffffff80403fb2:	fa843783          	ld	a5,-88(s0)
ffffffff80403fb6:	83b1                	srli	a5,a5,0xc
ffffffff80403fb8:	1ff7f793          	andi	a5,a5,511
ffffffff80403fbc:	fcf43023          	sd	a5,-64(s0)
ffffffff80403fc0:	fa843703          	ld	a4,-88(s0)
ffffffff80403fc4:	6785                	lui	a5,0x1
ffffffff80403fc6:	17fd                	addi	a5,a5,-1
ffffffff80403fc8:	8ff9                	and	a5,a5,a4
ffffffff80403fca:	faf43c23          	sd	a5,-72(s0)
ffffffff80403fce:	fd043783          	ld	a5,-48(s0)
ffffffff80403fd2:	00379713          	slli	a4,a5,0x3
ffffffff80403fd6:	fa043783          	ld	a5,-96(s0)
ffffffff80403fda:	97ba                	add	a5,a5,a4
ffffffff80403fdc:	fcf43c23          	sd	a5,-40(s0)
ffffffff80403fe0:	fd843783          	ld	a5,-40(s0)
ffffffff80403fe4:	639c                	ld	a5,0(a5)
ffffffff80403fe6:	4585                	li	a1,1
ffffffff80403fe8:	853e                	mv	a0,a5
ffffffff80403fea:	f53ff0ef          	jal	ra,ffffffff80403f3c <get_attribute>
ffffffff80403fee:	87aa                	mv	a5,a0
ffffffff80403ff0:	ef91                	bnez	a5,ffffffff8040400c <get_kva_of+0x88>
ffffffff80403ff2:	0000a617          	auipc	a2,0xa
ffffffff80403ff6:	a0660613          	addi	a2,a2,-1530 # ffffffff8040d9f8 <__FUNCTION__.1237>
ffffffff80403ffa:	0a400593          	li	a1,164
ffffffff80403ffe:	0000a517          	auipc	a0,0xa
ffffffff80404002:	9a250513          	addi	a0,a0,-1630 # ffffffff8040d9a0 <__FUNCTION__.1237+0x38>
ffffffff80404006:	e45ff0ef          	jal	ra,ffffffff80403e4a <_panic>
ffffffff8040400a:	a84d                	j	ffffffff804040bc <get_kva_of+0x138>
ffffffff8040400c:	fd843783          	ld	a5,-40(s0)
ffffffff80404010:	639c                	ld	a5,0(a5)
ffffffff80404012:	4589                	li	a1,2
ffffffff80404014:	853e                	mv	a0,a5
ffffffff80404016:	f27ff0ef          	jal	ra,ffffffff80403f3c <get_attribute>
ffffffff8040401a:	87aa                	mv	a5,a0
ffffffff8040401c:	0017b793          	seqz	a5,a5
ffffffff80404020:	0ff7f493          	andi	s1,a5,255
ffffffff80404024:	fd843783          	ld	a5,-40(s0)
ffffffff80404028:	639c                	ld	a5,0(a5)
ffffffff8040402a:	4591                	li	a1,4
ffffffff8040402c:	853e                	mv	a0,a5
ffffffff8040402e:	f0fff0ef          	jal	ra,ffffffff80403f3c <get_attribute>
ffffffff80404032:	87aa                	mv	a5,a0
ffffffff80404034:	0017b793          	seqz	a5,a5
ffffffff80404038:	0ff7f793          	andi	a5,a5,255
ffffffff8040403c:	8fe5                	and	a5,a5,s1
ffffffff8040403e:	0ff7f793          	andi	a5,a5,255
ffffffff80404042:	0007849b          	sext.w	s1,a5
ffffffff80404046:	fd843783          	ld	a5,-40(s0)
ffffffff8040404a:	639c                	ld	a5,0(a5)
ffffffff8040404c:	45a1                	li	a1,8
ffffffff8040404e:	853e                	mv	a0,a5
ffffffff80404050:	eedff0ef          	jal	ra,ffffffff80403f3c <get_attribute>
ffffffff80404054:	87aa                	mv	a5,a0
ffffffff80404056:	0017b793          	seqz	a5,a5
ffffffff8040405a:	0ff7f793          	andi	a5,a5,255
ffffffff8040405e:	2781                	sext.w	a5,a5
ffffffff80404060:	8fe5                	and	a5,a5,s1
ffffffff80404062:	2781                	sext.w	a5,a5
ffffffff80404064:	c785                	beqz	a5,ffffffff8040408c <get_kva_of+0x108>
ffffffff80404066:	fd843783          	ld	a5,-40(s0)
ffffffff8040406a:	639c                	ld	a5,0(a5)
ffffffff8040406c:	853e                	mv	a0,a5
ffffffff8040406e:	e89ff0ef          	jal	ra,ffffffff80403ef6 <get_pfn>
ffffffff80404072:	87aa                	mv	a5,a0
ffffffff80404074:	07b2                	slli	a5,a5,0xc
ffffffff80404076:	853e                	mv	a0,a5
ffffffff80404078:	e63ff0ef          	jal	ra,ffffffff80403eda <pa2kva>
ffffffff8040407c:	872a                	mv	a4,a0
ffffffff8040407e:	fc843783          	ld	a5,-56(s0)
ffffffff80404082:	078e                	slli	a5,a5,0x3
ffffffff80404084:	97ba                	add	a5,a5,a4
ffffffff80404086:	fcf43c23          	sd	a5,-40(s0)
ffffffff8040408a:	a80d                	j	ffffffff804040bc <get_kva_of+0x138>
ffffffff8040408c:	fd843783          	ld	a5,-40(s0)
ffffffff80404090:	639c                	ld	a5,0(a5)
ffffffff80404092:	853e                	mv	a0,a5
ffffffff80404094:	e63ff0ef          	jal	ra,ffffffff80403ef6 <get_pfn>
ffffffff80404098:	87aa                	mv	a5,a0
ffffffff8040409a:	07b2                	slli	a5,a5,0xc
ffffffff8040409c:	853e                	mv	a0,a5
ffffffff8040409e:	e3dff0ef          	jal	ra,ffffffff80403eda <pa2kva>
ffffffff804040a2:	872a                	mv	a4,a0
ffffffff804040a4:	fc843783          	ld	a5,-56(s0)
ffffffff804040a8:	07d6                	slli	a5,a5,0x15
ffffffff804040aa:	973e                	add	a4,a4,a5
ffffffff804040ac:	fc043783          	ld	a5,-64(s0)
ffffffff804040b0:	07b2                	slli	a5,a5,0xc
ffffffff804040b2:	973e                	add	a4,a4,a5
ffffffff804040b4:	fb843783          	ld	a5,-72(s0)
ffffffff804040b8:	97ba                	add	a5,a5,a4
ffffffff804040ba:	aa59                	j	ffffffff80404250 <get_kva_of+0x2cc>
ffffffff804040bc:	fd843783          	ld	a5,-40(s0)
ffffffff804040c0:	639c                	ld	a5,0(a5)
ffffffff804040c2:	4585                	li	a1,1
ffffffff804040c4:	853e                	mv	a0,a5
ffffffff804040c6:	e77ff0ef          	jal	ra,ffffffff80403f3c <get_attribute>
ffffffff804040ca:	87aa                	mv	a5,a0
ffffffff804040cc:	ef91                	bnez	a5,ffffffff804040e8 <get_kva_of+0x164>
ffffffff804040ce:	0000a617          	auipc	a2,0xa
ffffffff804040d2:	92a60613          	addi	a2,a2,-1750 # ffffffff8040d9f8 <__FUNCTION__.1237>
ffffffff804040d6:	0ac00593          	li	a1,172
ffffffff804040da:	0000a517          	auipc	a0,0xa
ffffffff804040de:	8c650513          	addi	a0,a0,-1850 # ffffffff8040d9a0 <__FUNCTION__.1237+0x38>
ffffffff804040e2:	d69ff0ef          	jal	ra,ffffffff80403e4a <_panic>
ffffffff804040e6:	a06d                	j	ffffffff80404190 <get_kva_of+0x20c>
ffffffff804040e8:	fd843783          	ld	a5,-40(s0)
ffffffff804040ec:	639c                	ld	a5,0(a5)
ffffffff804040ee:	4589                	li	a1,2
ffffffff804040f0:	853e                	mv	a0,a5
ffffffff804040f2:	e4bff0ef          	jal	ra,ffffffff80403f3c <get_attribute>
ffffffff804040f6:	87aa                	mv	a5,a0
ffffffff804040f8:	0017b793          	seqz	a5,a5
ffffffff804040fc:	0ff7f493          	andi	s1,a5,255
ffffffff80404100:	fd843783          	ld	a5,-40(s0)
ffffffff80404104:	639c                	ld	a5,0(a5)
ffffffff80404106:	4591                	li	a1,4
ffffffff80404108:	853e                	mv	a0,a5
ffffffff8040410a:	e33ff0ef          	jal	ra,ffffffff80403f3c <get_attribute>
ffffffff8040410e:	87aa                	mv	a5,a0
ffffffff80404110:	0017b793          	seqz	a5,a5
ffffffff80404114:	0ff7f793          	andi	a5,a5,255
ffffffff80404118:	8fe5                	and	a5,a5,s1
ffffffff8040411a:	0ff7f793          	andi	a5,a5,255
ffffffff8040411e:	0007849b          	sext.w	s1,a5
ffffffff80404122:	fd843783          	ld	a5,-40(s0)
ffffffff80404126:	639c                	ld	a5,0(a5)
ffffffff80404128:	45a1                	li	a1,8
ffffffff8040412a:	853e                	mv	a0,a5
ffffffff8040412c:	e11ff0ef          	jal	ra,ffffffff80403f3c <get_attribute>
ffffffff80404130:	87aa                	mv	a5,a0
ffffffff80404132:	0017b793          	seqz	a5,a5
ffffffff80404136:	0ff7f793          	andi	a5,a5,255
ffffffff8040413a:	2781                	sext.w	a5,a5
ffffffff8040413c:	8fe5                	and	a5,a5,s1
ffffffff8040413e:	2781                	sext.w	a5,a5
ffffffff80404140:	c785                	beqz	a5,ffffffff80404168 <get_kva_of+0x1e4>
ffffffff80404142:	fd843783          	ld	a5,-40(s0)
ffffffff80404146:	639c                	ld	a5,0(a5)
ffffffff80404148:	853e                	mv	a0,a5
ffffffff8040414a:	dadff0ef          	jal	ra,ffffffff80403ef6 <get_pfn>
ffffffff8040414e:	87aa                	mv	a5,a0
ffffffff80404150:	07b2                	slli	a5,a5,0xc
ffffffff80404152:	853e                	mv	a0,a5
ffffffff80404154:	d87ff0ef          	jal	ra,ffffffff80403eda <pa2kva>
ffffffff80404158:	872a                	mv	a4,a0
ffffffff8040415a:	fc043783          	ld	a5,-64(s0)
ffffffff8040415e:	078e                	slli	a5,a5,0x3
ffffffff80404160:	97ba                	add	a5,a5,a4
ffffffff80404162:	fcf43c23          	sd	a5,-40(s0)
ffffffff80404166:	a02d                	j	ffffffff80404190 <get_kva_of+0x20c>
ffffffff80404168:	fd843783          	ld	a5,-40(s0)
ffffffff8040416c:	639c                	ld	a5,0(a5)
ffffffff8040416e:	853e                	mv	a0,a5
ffffffff80404170:	d87ff0ef          	jal	ra,ffffffff80403ef6 <get_pfn>
ffffffff80404174:	87aa                	mv	a5,a0
ffffffff80404176:	07b2                	slli	a5,a5,0xc
ffffffff80404178:	853e                	mv	a0,a5
ffffffff8040417a:	d61ff0ef          	jal	ra,ffffffff80403eda <pa2kva>
ffffffff8040417e:	872a                	mv	a4,a0
ffffffff80404180:	fc043783          	ld	a5,-64(s0)
ffffffff80404184:	07b2                	slli	a5,a5,0xc
ffffffff80404186:	973e                	add	a4,a4,a5
ffffffff80404188:	fb843783          	ld	a5,-72(s0)
ffffffff8040418c:	97ba                	add	a5,a5,a4
ffffffff8040418e:	a0c9                	j	ffffffff80404250 <get_kva_of+0x2cc>
ffffffff80404190:	fd843783          	ld	a5,-40(s0)
ffffffff80404194:	639c                	ld	a5,0(a5)
ffffffff80404196:	4585                	li	a1,1
ffffffff80404198:	853e                	mv	a0,a5
ffffffff8040419a:	da3ff0ef          	jal	ra,ffffffff80403f3c <get_attribute>
ffffffff8040419e:	87aa                	mv	a5,a0
ffffffff804041a0:	ef91                	bnez	a5,ffffffff804041bc <get_kva_of+0x238>
ffffffff804041a2:	0000a617          	auipc	a2,0xa
ffffffff804041a6:	85660613          	addi	a2,a2,-1962 # ffffffff8040d9f8 <__FUNCTION__.1237>
ffffffff804041aa:	0b400593          	li	a1,180
ffffffff804041ae:	00009517          	auipc	a0,0x9
ffffffff804041b2:	7f250513          	addi	a0,a0,2034 # ffffffff8040d9a0 <__FUNCTION__.1237+0x38>
ffffffff804041b6:	c95ff0ef          	jal	ra,ffffffff80403e4a <_panic>
ffffffff804041ba:	a859                	j	ffffffff80404250 <get_kva_of+0x2cc>
ffffffff804041bc:	fd843783          	ld	a5,-40(s0)
ffffffff804041c0:	639c                	ld	a5,0(a5)
ffffffff804041c2:	4589                	li	a1,2
ffffffff804041c4:	853e                	mv	a0,a5
ffffffff804041c6:	d77ff0ef          	jal	ra,ffffffff80403f3c <get_attribute>
ffffffff804041ca:	87aa                	mv	a5,a0
ffffffff804041cc:	0017b793          	seqz	a5,a5
ffffffff804041d0:	0ff7f493          	andi	s1,a5,255
ffffffff804041d4:	fd843783          	ld	a5,-40(s0)
ffffffff804041d8:	639c                	ld	a5,0(a5)
ffffffff804041da:	4591                	li	a1,4
ffffffff804041dc:	853e                	mv	a0,a5
ffffffff804041de:	d5fff0ef          	jal	ra,ffffffff80403f3c <get_attribute>
ffffffff804041e2:	87aa                	mv	a5,a0
ffffffff804041e4:	0017b793          	seqz	a5,a5
ffffffff804041e8:	0ff7f793          	andi	a5,a5,255
ffffffff804041ec:	8fe5                	and	a5,a5,s1
ffffffff804041ee:	0ff7f793          	andi	a5,a5,255
ffffffff804041f2:	0007849b          	sext.w	s1,a5
ffffffff804041f6:	fd843783          	ld	a5,-40(s0)
ffffffff804041fa:	639c                	ld	a5,0(a5)
ffffffff804041fc:	45a1                	li	a1,8
ffffffff804041fe:	853e                	mv	a0,a5
ffffffff80404200:	d3dff0ef          	jal	ra,ffffffff80403f3c <get_attribute>
ffffffff80404204:	87aa                	mv	a5,a0
ffffffff80404206:	0017b793          	seqz	a5,a5
ffffffff8040420a:	0ff7f793          	andi	a5,a5,255
ffffffff8040420e:	2781                	sext.w	a5,a5
ffffffff80404210:	8fe5                	and	a5,a5,s1
ffffffff80404212:	2781                	sext.w	a5,a5
ffffffff80404214:	cf91                	beqz	a5,ffffffff80404230 <get_kva_of+0x2ac>
ffffffff80404216:	00009617          	auipc	a2,0x9
ffffffff8040421a:	7e260613          	addi	a2,a2,2018 # ffffffff8040d9f8 <__FUNCTION__.1237>
ffffffff8040421e:	0b700593          	li	a1,183
ffffffff80404222:	00009517          	auipc	a0,0x9
ffffffff80404226:	77e50513          	addi	a0,a0,1918 # ffffffff8040d9a0 <__FUNCTION__.1237+0x38>
ffffffff8040422a:	c21ff0ef          	jal	ra,ffffffff80403e4a <_panic>
ffffffff8040422e:	a00d                	j	ffffffff80404250 <get_kva_of+0x2cc>
ffffffff80404230:	fd843783          	ld	a5,-40(s0)
ffffffff80404234:	639c                	ld	a5,0(a5)
ffffffff80404236:	853e                	mv	a0,a5
ffffffff80404238:	cbfff0ef          	jal	ra,ffffffff80403ef6 <get_pfn>
ffffffff8040423c:	87aa                	mv	a5,a0
ffffffff8040423e:	07b2                	slli	a5,a5,0xc
ffffffff80404240:	853e                	mv	a0,a5
ffffffff80404242:	c99ff0ef          	jal	ra,ffffffff80403eda <pa2kva>
ffffffff80404246:	872a                	mv	a4,a0
ffffffff80404248:	fb843783          	ld	a5,-72(s0)
ffffffff8040424c:	97ba                	add	a5,a5,a4
ffffffff8040424e:	a009                	j	ffffffff80404250 <get_kva_of+0x2cc>
ffffffff80404250:	853e                	mv	a0,a5
ffffffff80404252:	60e6                	ld	ra,88(sp)
ffffffff80404254:	6446                	ld	s0,80(sp)
ffffffff80404256:	64a6                	ld	s1,72(sp)
ffffffff80404258:	6125                	addi	sp,sp,96
ffffffff8040425a:	8082                	ret

ffffffff8040425c <clear_attribute>:
ffffffff8040425c:	1101                	addi	sp,sp,-32
ffffffff8040425e:	ec22                	sd	s0,24(sp)
ffffffff80404260:	1000                	addi	s0,sp,32
ffffffff80404262:	fea43423          	sd	a0,-24(s0)
ffffffff80404266:	feb43023          	sd	a1,-32(s0)
ffffffff8040426a:	fe843783          	ld	a5,-24(s0)
ffffffff8040426e:	6398                	ld	a4,0(a5)
ffffffff80404270:	fe043783          	ld	a5,-32(s0)
ffffffff80404274:	fff7c793          	not	a5,a5
ffffffff80404278:	8f7d                	and	a4,a4,a5
ffffffff8040427a:	fe843783          	ld	a5,-24(s0)
ffffffff8040427e:	e398                	sd	a4,0(a5)
ffffffff80404280:	0001                	nop
ffffffff80404282:	6462                	ld	s0,24(sp)
ffffffff80404284:	6105                	addi	sp,sp,32
ffffffff80404286:	8082                	ret

ffffffff80404288 <clear_pgdir>:
ffffffff80404288:	7179                	addi	sp,sp,-48
ffffffff8040428a:	f422                	sd	s0,40(sp)
ffffffff8040428c:	1800                	addi	s0,sp,48
ffffffff8040428e:	fca43c23          	sd	a0,-40(s0)
ffffffff80404292:	fd843783          	ld	a5,-40(s0)
ffffffff80404296:	fef43423          	sd	a5,-24(s0)
ffffffff8040429a:	fe042223          	sw	zero,-28(s0)
ffffffff8040429e:	a839                	j	ffffffff804042bc <clear_pgdir+0x34>
ffffffff804042a0:	fe843783          	ld	a5,-24(s0)
ffffffff804042a4:	0007b023          	sd	zero,0(a5) # 1000 <_start-0xffffffff803ff000>
ffffffff804042a8:	fe843783          	ld	a5,-24(s0)
ffffffff804042ac:	07a1                	addi	a5,a5,8
ffffffff804042ae:	fef43423          	sd	a5,-24(s0)
ffffffff804042b2:	fe442783          	lw	a5,-28(s0)
ffffffff804042b6:	2785                	addiw	a5,a5,1
ffffffff804042b8:	fef42223          	sw	a5,-28(s0)
ffffffff804042bc:	fe442783          	lw	a5,-28(s0)
ffffffff804042c0:	0007871b          	sext.w	a4,a5
ffffffff804042c4:	1ff00793          	li	a5,511
ffffffff804042c8:	fce7dce3          	bge	a5,a4,ffffffff804042a0 <clear_pgdir+0x18>
ffffffff804042cc:	0001                	nop
ffffffff804042ce:	7422                	ld	s0,40(sp)
ffffffff804042d0:	6145                	addi	sp,sp,48
ffffffff804042d2:	8082                	ret

ffffffff804042d4 <allocPage>:
ffffffff804042d4:	1101                	addi	sp,sp,-32
ffffffff804042d6:	ec06                	sd	ra,24(sp)
ffffffff804042d8:	e822                	sd	s0,16(sp)
ffffffff804042da:	1000                	addi	s0,sp,32
ffffffff804042dc:	0000a517          	auipc	a0,0xa
ffffffff804042e0:	3b450513          	addi	a0,a0,948 # ffffffff8040e690 <freePageList>
ffffffff804042e4:	affff0ef          	jal	ra,ffffffff80403de2 <list_empty>
ffffffff804042e8:	87aa                	mv	a5,a0
ffffffff804042ea:	e795                	bnez	a5,ffffffff80404316 <allocPage+0x42>
ffffffff804042ec:	0000a797          	auipc	a5,0xa
ffffffff804042f0:	3a478793          	addi	a5,a5,932 # ffffffff8040e690 <freePageList>
ffffffff804042f4:	639c                	ld	a5,0(a5)
ffffffff804042f6:	6b9c                	ld	a5,16(a5)
ffffffff804042f8:	fef43023          	sd	a5,-32(s0)
ffffffff804042fc:	0000a797          	auipc	a5,0xa
ffffffff80404300:	39478793          	addi	a5,a5,916 # ffffffff8040e690 <freePageList>
ffffffff80404304:	639c                	ld	a5,0(a5)
ffffffff80404306:	853e                	mv	a0,a5
ffffffff80404308:	a63ff0ef          	jal	ra,ffffffff80403d6a <list_del>
ffffffff8040430c:	fe043783          	ld	a5,-32(s0)
ffffffff80404310:	fef43423          	sd	a5,-24(s0)
ffffffff80404314:	a8b9                	j	ffffffff80404372 <allocPage+0x9e>
ffffffff80404316:	00014797          	auipc	a5,0x14
ffffffff8040431a:	33a78793          	addi	a5,a5,826 # ffffffff80418650 <memCurr>
ffffffff8040431e:	6398                	ld	a4,0(a5)
ffffffff80404320:	00014797          	auipc	a5,0x14
ffffffff80404324:	34078793          	addi	a5,a5,832 # ffffffff80418660 <memalloc>
ffffffff80404328:	639c                	ld	a5,0(a5)
ffffffff8040432a:	02f77863          	bgeu	a4,a5,ffffffff8040435a <allocPage+0x86>
ffffffff8040432e:	00014797          	auipc	a5,0x14
ffffffff80404332:	32278793          	addi	a5,a5,802 # ffffffff80418650 <memCurr>
ffffffff80404336:	6398                	ld	a4,0(a5)
ffffffff80404338:	6785                	lui	a5,0x1
ffffffff8040433a:	973e                	add	a4,a4,a5
ffffffff8040433c:	00014797          	auipc	a5,0x14
ffffffff80404340:	31478793          	addi	a5,a5,788 # ffffffff80418650 <memCurr>
ffffffff80404344:	e398                	sd	a4,0(a5)
ffffffff80404346:	00014797          	auipc	a5,0x14
ffffffff8040434a:	30a78793          	addi	a5,a5,778 # ffffffff80418650 <memCurr>
ffffffff8040434e:	6398                	ld	a4,0(a5)
ffffffff80404350:	77fd                	lui	a5,0xfffff
ffffffff80404352:	97ba                	add	a5,a5,a4
ffffffff80404354:	fef43423          	sd	a5,-24(s0)
ffffffff80404358:	a829                	j	ffffffff80404372 <allocPage+0x9e>
ffffffff8040435a:	00009617          	auipc	a2,0x9
ffffffff8040435e:	67e60613          	addi	a2,a2,1662 # ffffffff8040d9d8 <__FUNCTION__.1827>
ffffffff80404362:	02800593          	li	a1,40
ffffffff80404366:	00009517          	auipc	a0,0x9
ffffffff8040436a:	65a50513          	addi	a0,a0,1626 # ffffffff8040d9c0 <__FUNCTION__.1237+0x58>
ffffffff8040436e:	addff0ef          	jal	ra,ffffffff80403e4a <_panic>
ffffffff80404372:	fe843783          	ld	a5,-24(s0)
ffffffff80404376:	853e                	mv	a0,a5
ffffffff80404378:	60e2                	ld	ra,24(sp)
ffffffff8040437a:	6442                	ld	s0,16(sp)
ffffffff8040437c:	6105                	addi	sp,sp,32
ffffffff8040437e:	8082                	ret

ffffffff80404380 <swap_page>:
ffffffff80404380:	7139                	addi	sp,sp,-64
ffffffff80404382:	fc06                	sd	ra,56(sp)
ffffffff80404384:	f822                	sd	s0,48(sp)
ffffffff80404386:	0080                	addi	s0,sp,64
ffffffff80404388:	0001b797          	auipc	a5,0x1b
ffffffff8040438c:	70078793          	addi	a5,a5,1792 # ffffffff8041fa88 <current_running>
ffffffff80404390:	639c                	ld	a5,0(a5)
ffffffff80404392:	63dc                	ld	a5,128(a5)
ffffffff80404394:	853e                	mv	a0,a5
ffffffff80404396:	0f2000ef          	jal	ra,ffffffff80404488 <find_swap_page_kva>
ffffffff8040439a:	fea43023          	sd	a0,-32(s0)
ffffffff8040439e:	fe043503          	ld	a0,-32(s0)
ffffffff804043a2:	b1dff0ef          	jal	ra,ffffffff80403ebe <kva2pa>
ffffffff804043a6:	fca43c23          	sd	a0,-40(s0)
ffffffff804043aa:	0000a517          	auipc	a0,0xa
ffffffff804043ae:	32e50513          	addi	a0,a0,814 # ffffffff8040e6d8 <availableSwapSpace>
ffffffff804043b2:	a31ff0ef          	jal	ra,ffffffff80403de2 <list_empty>
ffffffff804043b6:	87aa                	mv	a5,a0
ffffffff804043b8:	e7a1                	bnez	a5,ffffffff80404400 <swap_page+0x80>
ffffffff804043ba:	0000a797          	auipc	a5,0xa
ffffffff804043be:	31e78793          	addi	a5,a5,798 # ffffffff8040e6d8 <availableSwapSpace>
ffffffff804043c2:	639c                	ld	a5,0(a5)
ffffffff804043c4:	6b9c                	ld	a5,16(a5)
ffffffff804043c6:	fcf43823          	sd	a5,-48(s0)
ffffffff804043ca:	fd043783          	ld	a5,-48(s0)
ffffffff804043ce:	439c                	lw	a5,0(a5)
ffffffff804043d0:	fef42623          	sw	a5,-20(s0)
ffffffff804043d4:	fd043783          	ld	a5,-48(s0)
ffffffff804043d8:	fe043703          	ld	a4,-32(s0)
ffffffff804043dc:	e798                	sd	a4,8(a5)
ffffffff804043de:	fd043783          	ld	a5,-48(s0)
ffffffff804043e2:	07c1                	addi	a5,a5,16
ffffffff804043e4:	853e                	mv	a0,a5
ffffffff804043e6:	985ff0ef          	jal	ra,ffffffff80403d6a <list_del>
ffffffff804043ea:	fd043783          	ld	a5,-48(s0)
ffffffff804043ee:	07c1                	addi	a5,a5,16
ffffffff804043f0:	0000a597          	auipc	a1,0xa
ffffffff804043f4:	2d058593          	addi	a1,a1,720 # ffffffff8040e6c0 <swapPageList>
ffffffff804043f8:	853e                	mv	a0,a5
ffffffff804043fa:	9bbff0ef          	jal	ra,ffffffff80403db4 <list_add_tail>
ffffffff804043fe:	a0a5                	j	ffffffff80404466 <swap_page+0xe6>
ffffffff80404400:	00014797          	auipc	a5,0x14
ffffffff80404404:	25878793          	addi	a5,a5,600 # ffffffff80418658 <start_block_id>
ffffffff80404408:	439c                	lw	a5,0(a5)
ffffffff8040440a:	fef42623          	sw	a5,-20(s0)
ffffffff8040440e:	00014797          	auipc	a5,0x14
ffffffff80404412:	24a78793          	addi	a5,a5,586 # ffffffff80418658 <start_block_id>
ffffffff80404416:	439c                	lw	a5,0(a5)
ffffffff80404418:	27a1                	addiw	a5,a5,8
ffffffff8040441a:	0007871b          	sext.w	a4,a5
ffffffff8040441e:	00014797          	auipc	a5,0x14
ffffffff80404422:	23a78793          	addi	a5,a5,570 # ffffffff80418658 <start_block_id>
ffffffff80404426:	c398                	sw	a4,0(a5)
ffffffff80404428:	02800513          	li	a0,40
ffffffff8040442c:	009000ef          	jal	ra,ffffffff80404c34 <kmalloc>
ffffffff80404430:	fca43423          	sd	a0,-56(s0)
ffffffff80404434:	fc843703          	ld	a4,-56(s0)
ffffffff80404438:	fc843783          	ld	a5,-56(s0)
ffffffff8040443c:	f398                	sd	a4,32(a5)
ffffffff8040443e:	fc843783          	ld	a5,-56(s0)
ffffffff80404442:	fec42703          	lw	a4,-20(s0)
ffffffff80404446:	c398                	sw	a4,0(a5)
ffffffff80404448:	fc843783          	ld	a5,-56(s0)
ffffffff8040444c:	fe043703          	ld	a4,-32(s0)
ffffffff80404450:	e798                	sd	a4,8(a5)
ffffffff80404452:	fc843783          	ld	a5,-56(s0)
ffffffff80404456:	07c1                	addi	a5,a5,16
ffffffff80404458:	0000a597          	auipc	a1,0xa
ffffffff8040445c:	26858593          	addi	a1,a1,616 # ffffffff8040e6c0 <swapPageList>
ffffffff80404460:	853e                	mv	a0,a5
ffffffff80404462:	953ff0ef          	jal	ra,ffffffff80403db4 <list_add_tail>
ffffffff80404466:	fd843783          	ld	a5,-40(s0)
ffffffff8040446a:	2781                	sext.w	a5,a5
ffffffff8040446c:	fec42703          	lw	a4,-20(s0)
ffffffff80404470:	863a                	mv	a2,a4
ffffffff80404472:	45a1                	li	a1,8
ffffffff80404474:	853e                	mv	a0,a5
ffffffff80404476:	997ff0ef          	jal	ra,ffffffff80403e0c <sbi_sd_write>
ffffffff8040447a:	fe043783          	ld	a5,-32(s0)
ffffffff8040447e:	853e                	mv	a0,a5
ffffffff80404480:	70e2                	ld	ra,56(sp)
ffffffff80404482:	7442                	ld	s0,48(sp)
ffffffff80404484:	6121                	addi	sp,sp,64
ffffffff80404486:	8082                	ret

ffffffff80404488 <find_swap_page_kva>:
ffffffff80404488:	7171                	addi	sp,sp,-176
ffffffff8040448a:	f506                	sd	ra,168(sp)
ffffffff8040448c:	f122                	sd	s0,160(sp)
ffffffff8040448e:	1900                	addi	s0,sp,176
ffffffff80404490:	f4a43c23          	sd	a0,-168(s0)
ffffffff80404494:	fe042623          	sw	zero,-20(s0)
ffffffff80404498:	aa71                	j	ffffffff80404634 <find_swap_page_kva+0x1ac>
ffffffff8040449a:	fec42783          	lw	a5,-20(s0)
ffffffff8040449e:	00379713          	slli	a4,a5,0x3
ffffffff804044a2:	f5843783          	ld	a5,-168(s0)
ffffffff804044a6:	97ba                	add	a5,a5,a4
ffffffff804044a8:	faf43c23          	sd	a5,-72(s0)
ffffffff804044ac:	fb843783          	ld	a5,-72(s0)
ffffffff804044b0:	639c                	ld	a5,0(a5)
ffffffff804044b2:	4585                	li	a1,1
ffffffff804044b4:	853e                	mv	a0,a5
ffffffff804044b6:	a87ff0ef          	jal	ra,ffffffff80403f3c <get_attribute>
ffffffff804044ba:	87aa                	mv	a5,a0
ffffffff804044bc:	16078763          	beqz	a5,ffffffff8040462a <find_swap_page_kva+0x1a2>
ffffffff804044c0:	fb843783          	ld	a5,-72(s0)
ffffffff804044c4:	639c                	ld	a5,0(a5)
ffffffff804044c6:	45c1                	li	a1,16
ffffffff804044c8:	853e                	mv	a0,a5
ffffffff804044ca:	a73ff0ef          	jal	ra,ffffffff80403f3c <get_attribute>
ffffffff804044ce:	87aa                	mv	a5,a0
ffffffff804044d0:	14078d63          	beqz	a5,ffffffff8040462a <find_swap_page_kva+0x1a2>
ffffffff804044d4:	fe042423          	sw	zero,-24(s0)
ffffffff804044d8:	a289                	j	ffffffff8040461a <find_swap_page_kva+0x192>
ffffffff804044da:	fb843783          	ld	a5,-72(s0)
ffffffff804044de:	639c                	ld	a5,0(a5)
ffffffff804044e0:	853e                	mv	a0,a5
ffffffff804044e2:	a15ff0ef          	jal	ra,ffffffff80403ef6 <get_pfn>
ffffffff804044e6:	87aa                	mv	a5,a0
ffffffff804044e8:	07b2                	slli	a5,a5,0xc
ffffffff804044ea:	853e                	mv	a0,a5
ffffffff804044ec:	9efff0ef          	jal	ra,ffffffff80403eda <pa2kva>
ffffffff804044f0:	872a                	mv	a4,a0
ffffffff804044f2:	fe842783          	lw	a5,-24(s0)
ffffffff804044f6:	078e                	slli	a5,a5,0x3
ffffffff804044f8:	97ba                	add	a5,a5,a4
ffffffff804044fa:	faf43823          	sd	a5,-80(s0)
ffffffff804044fe:	fb043783          	ld	a5,-80(s0)
ffffffff80404502:	639c                	ld	a5,0(a5)
ffffffff80404504:	4585                	li	a1,1
ffffffff80404506:	853e                	mv	a0,a5
ffffffff80404508:	a35ff0ef          	jal	ra,ffffffff80403f3c <get_attribute>
ffffffff8040450c:	87aa                	mv	a5,a0
ffffffff8040450e:	10078163          	beqz	a5,ffffffff80404610 <find_swap_page_kva+0x188>
ffffffff80404512:	fb043783          	ld	a5,-80(s0)
ffffffff80404516:	639c                	ld	a5,0(a5)
ffffffff80404518:	45c1                	li	a1,16
ffffffff8040451a:	853e                	mv	a0,a5
ffffffff8040451c:	a21ff0ef          	jal	ra,ffffffff80403f3c <get_attribute>
ffffffff80404520:	87aa                	mv	a5,a0
ffffffff80404522:	0e078763          	beqz	a5,ffffffff80404610 <find_swap_page_kva+0x188>
ffffffff80404526:	fe042223          	sw	zero,-28(s0)
ffffffff8040452a:	a8d9                	j	ffffffff80404600 <find_swap_page_kva+0x178>
ffffffff8040452c:	fb043783          	ld	a5,-80(s0)
ffffffff80404530:	639c                	ld	a5,0(a5)
ffffffff80404532:	853e                	mv	a0,a5
ffffffff80404534:	9c3ff0ef          	jal	ra,ffffffff80403ef6 <get_pfn>
ffffffff80404538:	87aa                	mv	a5,a0
ffffffff8040453a:	07b2                	slli	a5,a5,0xc
ffffffff8040453c:	853e                	mv	a0,a5
ffffffff8040453e:	99dff0ef          	jal	ra,ffffffff80403eda <pa2kva>
ffffffff80404542:	872a                	mv	a4,a0
ffffffff80404544:	fe442783          	lw	a5,-28(s0)
ffffffff80404548:	078e                	slli	a5,a5,0x3
ffffffff8040454a:	97ba                	add	a5,a5,a4
ffffffff8040454c:	faf43423          	sd	a5,-88(s0)
ffffffff80404550:	fa843783          	ld	a5,-88(s0)
ffffffff80404554:	639c                	ld	a5,0(a5)
ffffffff80404556:	20000593          	li	a1,512
ffffffff8040455a:	853e                	mv	a0,a5
ffffffff8040455c:	9e1ff0ef          	jal	ra,ffffffff80403f3c <get_attribute>
ffffffff80404560:	87aa                	mv	a5,a0
ffffffff80404562:	ebc9                	bnez	a5,ffffffff804045f4 <find_swap_page_kva+0x16c>
ffffffff80404564:	fa843783          	ld	a5,-88(s0)
ffffffff80404568:	639c                	ld	a5,0(a5)
ffffffff8040456a:	45a1                	li	a1,8
ffffffff8040456c:	853e                	mv	a0,a5
ffffffff8040456e:	9cfff0ef          	jal	ra,ffffffff80403f3c <get_attribute>
ffffffff80404572:	87aa                	mv	a5,a0
ffffffff80404574:	e3c1                	bnez	a5,ffffffff804045f4 <find_swap_page_kva+0x16c>
ffffffff80404576:	fa843783          	ld	a5,-88(s0)
ffffffff8040457a:	639c                	ld	a5,0(a5)
ffffffff8040457c:	4585                	li	a1,1
ffffffff8040457e:	853e                	mv	a0,a5
ffffffff80404580:	9bdff0ef          	jal	ra,ffffffff80403f3c <get_attribute>
ffffffff80404584:	87aa                	mv	a5,a0
ffffffff80404586:	cba5                	beqz	a5,ffffffff804045f6 <find_swap_page_kva+0x16e>
ffffffff80404588:	fa843783          	ld	a5,-88(s0)
ffffffff8040458c:	639c                	ld	a5,0(a5)
ffffffff8040458e:	45c1                	li	a1,16
ffffffff80404590:	853e                	mv	a0,a5
ffffffff80404592:	9abff0ef          	jal	ra,ffffffff80403f3c <get_attribute>
ffffffff80404596:	87aa                	mv	a5,a0
ffffffff80404598:	cfb9                	beqz	a5,ffffffff804045f6 <find_swap_page_kva+0x16e>
ffffffff8040459a:	fa843783          	ld	a5,-88(s0)
ffffffff8040459e:	639c                	ld	a5,0(a5)
ffffffff804045a0:	04000593          	li	a1,64
ffffffff804045a4:	853e                	mv	a0,a5
ffffffff804045a6:	997ff0ef          	jal	ra,ffffffff80403f3c <get_attribute>
ffffffff804045aa:	87aa                	mv	a5,a0
ffffffff804045ac:	e7a9                	bnez	a5,ffffffff804045f6 <find_swap_page_kva+0x16e>
ffffffff804045ae:	fa843783          	ld	a5,-88(s0)
ffffffff804045b2:	639c                	ld	a5,0(a5)
ffffffff804045b4:	08000593          	li	a1,128
ffffffff804045b8:	853e                	mv	a0,a5
ffffffff804045ba:	983ff0ef          	jal	ra,ffffffff80403f3c <get_attribute>
ffffffff804045be:	87aa                	mv	a5,a0
ffffffff804045c0:	eb9d                	bnez	a5,ffffffff804045f6 <find_swap_page_kva+0x16e>
ffffffff804045c2:	0c100593          	li	a1,193
ffffffff804045c6:	fa843503          	ld	a0,-88(s0)
ffffffff804045ca:	c93ff0ef          	jal	ra,ffffffff8040425c <clear_attribute>
ffffffff804045ce:	10000593          	li	a1,256
ffffffff804045d2:	fa843503          	ld	a0,-88(s0)
ffffffff804045d6:	987ff0ef          	jal	ra,ffffffff80403f5c <set_attribute>
ffffffff804045da:	fa843783          	ld	a5,-88(s0)
ffffffff804045de:	639c                	ld	a5,0(a5)
ffffffff804045e0:	853e                	mv	a0,a5
ffffffff804045e2:	915ff0ef          	jal	ra,ffffffff80403ef6 <get_pfn>
ffffffff804045e6:	87aa                	mv	a5,a0
ffffffff804045e8:	07b2                	slli	a5,a5,0xc
ffffffff804045ea:	853e                	mv	a0,a5
ffffffff804045ec:	8efff0ef          	jal	ra,ffffffff80403eda <pa2kva>
ffffffff804045f0:	87aa                	mv	a5,a0
ffffffff804045f2:	a395                	j	ffffffff80404b56 <find_swap_page_kva+0x6ce>
ffffffff804045f4:	0001                	nop
ffffffff804045f6:	fe442783          	lw	a5,-28(s0)
ffffffff804045fa:	2785                	addiw	a5,a5,1
ffffffff804045fc:	fef42223          	sw	a5,-28(s0)
ffffffff80404600:	fe442783          	lw	a5,-28(s0)
ffffffff80404604:	0007871b          	sext.w	a4,a5
ffffffff80404608:	1ff00793          	li	a5,511
ffffffff8040460c:	f2e7d0e3          	bge	a5,a4,ffffffff8040452c <find_swap_page_kva+0xa4>
ffffffff80404610:	fe842783          	lw	a5,-24(s0)
ffffffff80404614:	2785                	addiw	a5,a5,1
ffffffff80404616:	fef42423          	sw	a5,-24(s0)
ffffffff8040461a:	fe842783          	lw	a5,-24(s0)
ffffffff8040461e:	0007871b          	sext.w	a4,a5
ffffffff80404622:	1ff00793          	li	a5,511
ffffffff80404626:	eae7dae3          	bge	a5,a4,ffffffff804044da <find_swap_page_kva+0x52>
ffffffff8040462a:	fec42783          	lw	a5,-20(s0)
ffffffff8040462e:	2785                	addiw	a5,a5,1
ffffffff80404630:	fef42623          	sw	a5,-20(s0)
ffffffff80404634:	fec42783          	lw	a5,-20(s0)
ffffffff80404638:	0007871b          	sext.w	a4,a5
ffffffff8040463c:	0ff00793          	li	a5,255
ffffffff80404640:	e4e7dde3          	bge	a5,a4,ffffffff8040449a <find_swap_page_kva+0x12>
ffffffff80404644:	fe042023          	sw	zero,-32(s0)
ffffffff80404648:	aa71                	j	ffffffff804047e4 <find_swap_page_kva+0x35c>
ffffffff8040464a:	fe042783          	lw	a5,-32(s0)
ffffffff8040464e:	00379713          	slli	a4,a5,0x3
ffffffff80404652:	f5843783          	ld	a5,-168(s0)
ffffffff80404656:	97ba                	add	a5,a5,a4
ffffffff80404658:	faf43023          	sd	a5,-96(s0)
ffffffff8040465c:	fa043783          	ld	a5,-96(s0)
ffffffff80404660:	639c                	ld	a5,0(a5)
ffffffff80404662:	4585                	li	a1,1
ffffffff80404664:	853e                	mv	a0,a5
ffffffff80404666:	8d7ff0ef          	jal	ra,ffffffff80403f3c <get_attribute>
ffffffff8040466a:	87aa                	mv	a5,a0
ffffffff8040466c:	16078763          	beqz	a5,ffffffff804047da <find_swap_page_kva+0x352>
ffffffff80404670:	fa043783          	ld	a5,-96(s0)
ffffffff80404674:	639c                	ld	a5,0(a5)
ffffffff80404676:	45c1                	li	a1,16
ffffffff80404678:	853e                	mv	a0,a5
ffffffff8040467a:	8c3ff0ef          	jal	ra,ffffffff80403f3c <get_attribute>
ffffffff8040467e:	87aa                	mv	a5,a0
ffffffff80404680:	14078d63          	beqz	a5,ffffffff804047da <find_swap_page_kva+0x352>
ffffffff80404684:	fc042e23          	sw	zero,-36(s0)
ffffffff80404688:	a289                	j	ffffffff804047ca <find_swap_page_kva+0x342>
ffffffff8040468a:	fa043783          	ld	a5,-96(s0)
ffffffff8040468e:	639c                	ld	a5,0(a5)
ffffffff80404690:	853e                	mv	a0,a5
ffffffff80404692:	865ff0ef          	jal	ra,ffffffff80403ef6 <get_pfn>
ffffffff80404696:	87aa                	mv	a5,a0
ffffffff80404698:	07b2                	slli	a5,a5,0xc
ffffffff8040469a:	853e                	mv	a0,a5
ffffffff8040469c:	83fff0ef          	jal	ra,ffffffff80403eda <pa2kva>
ffffffff804046a0:	872a                	mv	a4,a0
ffffffff804046a2:	fdc42783          	lw	a5,-36(s0)
ffffffff804046a6:	078e                	slli	a5,a5,0x3
ffffffff804046a8:	97ba                	add	a5,a5,a4
ffffffff804046aa:	f8f43c23          	sd	a5,-104(s0)
ffffffff804046ae:	f9843783          	ld	a5,-104(s0)
ffffffff804046b2:	639c                	ld	a5,0(a5)
ffffffff804046b4:	4585                	li	a1,1
ffffffff804046b6:	853e                	mv	a0,a5
ffffffff804046b8:	885ff0ef          	jal	ra,ffffffff80403f3c <get_attribute>
ffffffff804046bc:	87aa                	mv	a5,a0
ffffffff804046be:	10078163          	beqz	a5,ffffffff804047c0 <find_swap_page_kva+0x338>
ffffffff804046c2:	f9843783          	ld	a5,-104(s0)
ffffffff804046c6:	639c                	ld	a5,0(a5)
ffffffff804046c8:	45c1                	li	a1,16
ffffffff804046ca:	853e                	mv	a0,a5
ffffffff804046cc:	871ff0ef          	jal	ra,ffffffff80403f3c <get_attribute>
ffffffff804046d0:	87aa                	mv	a5,a0
ffffffff804046d2:	0e078763          	beqz	a5,ffffffff804047c0 <find_swap_page_kva+0x338>
ffffffff804046d6:	fc042c23          	sw	zero,-40(s0)
ffffffff804046da:	a8d9                	j	ffffffff804047b0 <find_swap_page_kva+0x328>
ffffffff804046dc:	f9843783          	ld	a5,-104(s0)
ffffffff804046e0:	639c                	ld	a5,0(a5)
ffffffff804046e2:	853e                	mv	a0,a5
ffffffff804046e4:	813ff0ef          	jal	ra,ffffffff80403ef6 <get_pfn>
ffffffff804046e8:	87aa                	mv	a5,a0
ffffffff804046ea:	07b2                	slli	a5,a5,0xc
ffffffff804046ec:	853e                	mv	a0,a5
ffffffff804046ee:	fecff0ef          	jal	ra,ffffffff80403eda <pa2kva>
ffffffff804046f2:	872a                	mv	a4,a0
ffffffff804046f4:	fd842783          	lw	a5,-40(s0)
ffffffff804046f8:	078e                	slli	a5,a5,0x3
ffffffff804046fa:	97ba                	add	a5,a5,a4
ffffffff804046fc:	f8f43823          	sd	a5,-112(s0)
ffffffff80404700:	f9043783          	ld	a5,-112(s0)
ffffffff80404704:	639c                	ld	a5,0(a5)
ffffffff80404706:	20000593          	li	a1,512
ffffffff8040470a:	853e                	mv	a0,a5
ffffffff8040470c:	831ff0ef          	jal	ra,ffffffff80403f3c <get_attribute>
ffffffff80404710:	87aa                	mv	a5,a0
ffffffff80404712:	ebc9                	bnez	a5,ffffffff804047a4 <find_swap_page_kva+0x31c>
ffffffff80404714:	f9043783          	ld	a5,-112(s0)
ffffffff80404718:	639c                	ld	a5,0(a5)
ffffffff8040471a:	45a1                	li	a1,8
ffffffff8040471c:	853e                	mv	a0,a5
ffffffff8040471e:	81fff0ef          	jal	ra,ffffffff80403f3c <get_attribute>
ffffffff80404722:	87aa                	mv	a5,a0
ffffffff80404724:	e3c1                	bnez	a5,ffffffff804047a4 <find_swap_page_kva+0x31c>
ffffffff80404726:	f9043783          	ld	a5,-112(s0)
ffffffff8040472a:	639c                	ld	a5,0(a5)
ffffffff8040472c:	4585                	li	a1,1
ffffffff8040472e:	853e                	mv	a0,a5
ffffffff80404730:	80dff0ef          	jal	ra,ffffffff80403f3c <get_attribute>
ffffffff80404734:	87aa                	mv	a5,a0
ffffffff80404736:	cba5                	beqz	a5,ffffffff804047a6 <find_swap_page_kva+0x31e>
ffffffff80404738:	f9043783          	ld	a5,-112(s0)
ffffffff8040473c:	639c                	ld	a5,0(a5)
ffffffff8040473e:	45c1                	li	a1,16
ffffffff80404740:	853e                	mv	a0,a5
ffffffff80404742:	ffaff0ef          	jal	ra,ffffffff80403f3c <get_attribute>
ffffffff80404746:	87aa                	mv	a5,a0
ffffffff80404748:	cfb9                	beqz	a5,ffffffff804047a6 <find_swap_page_kva+0x31e>
ffffffff8040474a:	f9043783          	ld	a5,-112(s0)
ffffffff8040474e:	639c                	ld	a5,0(a5)
ffffffff80404750:	04000593          	li	a1,64
ffffffff80404754:	853e                	mv	a0,a5
ffffffff80404756:	fe6ff0ef          	jal	ra,ffffffff80403f3c <get_attribute>
ffffffff8040475a:	87aa                	mv	a5,a0
ffffffff8040475c:	e7a9                	bnez	a5,ffffffff804047a6 <find_swap_page_kva+0x31e>
ffffffff8040475e:	f9043783          	ld	a5,-112(s0)
ffffffff80404762:	639c                	ld	a5,0(a5)
ffffffff80404764:	08000593          	li	a1,128
ffffffff80404768:	853e                	mv	a0,a5
ffffffff8040476a:	fd2ff0ef          	jal	ra,ffffffff80403f3c <get_attribute>
ffffffff8040476e:	87aa                	mv	a5,a0
ffffffff80404770:	cb9d                	beqz	a5,ffffffff804047a6 <find_swap_page_kva+0x31e>
ffffffff80404772:	0c100593          	li	a1,193
ffffffff80404776:	f9043503          	ld	a0,-112(s0)
ffffffff8040477a:	ae3ff0ef          	jal	ra,ffffffff8040425c <clear_attribute>
ffffffff8040477e:	10000593          	li	a1,256
ffffffff80404782:	f9043503          	ld	a0,-112(s0)
ffffffff80404786:	fd6ff0ef          	jal	ra,ffffffff80403f5c <set_attribute>
ffffffff8040478a:	f9043783          	ld	a5,-112(s0)
ffffffff8040478e:	639c                	ld	a5,0(a5)
ffffffff80404790:	853e                	mv	a0,a5
ffffffff80404792:	f64ff0ef          	jal	ra,ffffffff80403ef6 <get_pfn>
ffffffff80404796:	87aa                	mv	a5,a0
ffffffff80404798:	07b2                	slli	a5,a5,0xc
ffffffff8040479a:	853e                	mv	a0,a5
ffffffff8040479c:	f3eff0ef          	jal	ra,ffffffff80403eda <pa2kva>
ffffffff804047a0:	87aa                	mv	a5,a0
ffffffff804047a2:	ae55                	j	ffffffff80404b56 <find_swap_page_kva+0x6ce>
ffffffff804047a4:	0001                	nop
ffffffff804047a6:	fd842783          	lw	a5,-40(s0)
ffffffff804047aa:	2785                	addiw	a5,a5,1
ffffffff804047ac:	fcf42c23          	sw	a5,-40(s0)
ffffffff804047b0:	fd842783          	lw	a5,-40(s0)
ffffffff804047b4:	0007871b          	sext.w	a4,a5
ffffffff804047b8:	1ff00793          	li	a5,511
ffffffff804047bc:	f2e7d0e3          	bge	a5,a4,ffffffff804046dc <find_swap_page_kva+0x254>
ffffffff804047c0:	fdc42783          	lw	a5,-36(s0)
ffffffff804047c4:	2785                	addiw	a5,a5,1
ffffffff804047c6:	fcf42e23          	sw	a5,-36(s0)
ffffffff804047ca:	fdc42783          	lw	a5,-36(s0)
ffffffff804047ce:	0007871b          	sext.w	a4,a5
ffffffff804047d2:	1ff00793          	li	a5,511
ffffffff804047d6:	eae7dae3          	bge	a5,a4,ffffffff8040468a <find_swap_page_kva+0x202>
ffffffff804047da:	fe042783          	lw	a5,-32(s0)
ffffffff804047de:	2785                	addiw	a5,a5,1
ffffffff804047e0:	fef42023          	sw	a5,-32(s0)
ffffffff804047e4:	fe042783          	lw	a5,-32(s0)
ffffffff804047e8:	0007871b          	sext.w	a4,a5
ffffffff804047ec:	0ff00793          	li	a5,255
ffffffff804047f0:	e4e7dde3          	bge	a5,a4,ffffffff8040464a <find_swap_page_kva+0x1c2>
ffffffff804047f4:	fc042a23          	sw	zero,-44(s0)
ffffffff804047f8:	aa71                	j	ffffffff80404994 <find_swap_page_kva+0x50c>
ffffffff804047fa:	fd442783          	lw	a5,-44(s0)
ffffffff804047fe:	00379713          	slli	a4,a5,0x3
ffffffff80404802:	f5843783          	ld	a5,-168(s0)
ffffffff80404806:	97ba                	add	a5,a5,a4
ffffffff80404808:	f8f43423          	sd	a5,-120(s0)
ffffffff8040480c:	f8843783          	ld	a5,-120(s0)
ffffffff80404810:	639c                	ld	a5,0(a5)
ffffffff80404812:	4585                	li	a1,1
ffffffff80404814:	853e                	mv	a0,a5
ffffffff80404816:	f26ff0ef          	jal	ra,ffffffff80403f3c <get_attribute>
ffffffff8040481a:	87aa                	mv	a5,a0
ffffffff8040481c:	16078763          	beqz	a5,ffffffff8040498a <find_swap_page_kva+0x502>
ffffffff80404820:	f8843783          	ld	a5,-120(s0)
ffffffff80404824:	639c                	ld	a5,0(a5)
ffffffff80404826:	45c1                	li	a1,16
ffffffff80404828:	853e                	mv	a0,a5
ffffffff8040482a:	f12ff0ef          	jal	ra,ffffffff80403f3c <get_attribute>
ffffffff8040482e:	87aa                	mv	a5,a0
ffffffff80404830:	14078d63          	beqz	a5,ffffffff8040498a <find_swap_page_kva+0x502>
ffffffff80404834:	fc042823          	sw	zero,-48(s0)
ffffffff80404838:	a289                	j	ffffffff8040497a <find_swap_page_kva+0x4f2>
ffffffff8040483a:	f8843783          	ld	a5,-120(s0)
ffffffff8040483e:	639c                	ld	a5,0(a5)
ffffffff80404840:	853e                	mv	a0,a5
ffffffff80404842:	eb4ff0ef          	jal	ra,ffffffff80403ef6 <get_pfn>
ffffffff80404846:	87aa                	mv	a5,a0
ffffffff80404848:	07b2                	slli	a5,a5,0xc
ffffffff8040484a:	853e                	mv	a0,a5
ffffffff8040484c:	e8eff0ef          	jal	ra,ffffffff80403eda <pa2kva>
ffffffff80404850:	872a                	mv	a4,a0
ffffffff80404852:	fd042783          	lw	a5,-48(s0)
ffffffff80404856:	078e                	slli	a5,a5,0x3
ffffffff80404858:	97ba                	add	a5,a5,a4
ffffffff8040485a:	f8f43023          	sd	a5,-128(s0)
ffffffff8040485e:	f8043783          	ld	a5,-128(s0)
ffffffff80404862:	639c                	ld	a5,0(a5)
ffffffff80404864:	4585                	li	a1,1
ffffffff80404866:	853e                	mv	a0,a5
ffffffff80404868:	ed4ff0ef          	jal	ra,ffffffff80403f3c <get_attribute>
ffffffff8040486c:	87aa                	mv	a5,a0
ffffffff8040486e:	10078163          	beqz	a5,ffffffff80404970 <find_swap_page_kva+0x4e8>
ffffffff80404872:	f8043783          	ld	a5,-128(s0)
ffffffff80404876:	639c                	ld	a5,0(a5)
ffffffff80404878:	45c1                	li	a1,16
ffffffff8040487a:	853e                	mv	a0,a5
ffffffff8040487c:	ec0ff0ef          	jal	ra,ffffffff80403f3c <get_attribute>
ffffffff80404880:	87aa                	mv	a5,a0
ffffffff80404882:	0e078763          	beqz	a5,ffffffff80404970 <find_swap_page_kva+0x4e8>
ffffffff80404886:	fc042623          	sw	zero,-52(s0)
ffffffff8040488a:	a8d9                	j	ffffffff80404960 <find_swap_page_kva+0x4d8>
ffffffff8040488c:	f8043783          	ld	a5,-128(s0)
ffffffff80404890:	639c                	ld	a5,0(a5)
ffffffff80404892:	853e                	mv	a0,a5
ffffffff80404894:	e62ff0ef          	jal	ra,ffffffff80403ef6 <get_pfn>
ffffffff80404898:	87aa                	mv	a5,a0
ffffffff8040489a:	07b2                	slli	a5,a5,0xc
ffffffff8040489c:	853e                	mv	a0,a5
ffffffff8040489e:	e3cff0ef          	jal	ra,ffffffff80403eda <pa2kva>
ffffffff804048a2:	872a                	mv	a4,a0
ffffffff804048a4:	fcc42783          	lw	a5,-52(s0)
ffffffff804048a8:	078e                	slli	a5,a5,0x3
ffffffff804048aa:	97ba                	add	a5,a5,a4
ffffffff804048ac:	f6f43c23          	sd	a5,-136(s0)
ffffffff804048b0:	f7843783          	ld	a5,-136(s0)
ffffffff804048b4:	639c                	ld	a5,0(a5)
ffffffff804048b6:	20000593          	li	a1,512
ffffffff804048ba:	853e                	mv	a0,a5
ffffffff804048bc:	e80ff0ef          	jal	ra,ffffffff80403f3c <get_attribute>
ffffffff804048c0:	87aa                	mv	a5,a0
ffffffff804048c2:	ebc9                	bnez	a5,ffffffff80404954 <find_swap_page_kva+0x4cc>
ffffffff804048c4:	f7843783          	ld	a5,-136(s0)
ffffffff804048c8:	639c                	ld	a5,0(a5)
ffffffff804048ca:	45a1                	li	a1,8
ffffffff804048cc:	853e                	mv	a0,a5
ffffffff804048ce:	e6eff0ef          	jal	ra,ffffffff80403f3c <get_attribute>
ffffffff804048d2:	87aa                	mv	a5,a0
ffffffff804048d4:	e3c1                	bnez	a5,ffffffff80404954 <find_swap_page_kva+0x4cc>
ffffffff804048d6:	f7843783          	ld	a5,-136(s0)
ffffffff804048da:	639c                	ld	a5,0(a5)
ffffffff804048dc:	4585                	li	a1,1
ffffffff804048de:	853e                	mv	a0,a5
ffffffff804048e0:	e5cff0ef          	jal	ra,ffffffff80403f3c <get_attribute>
ffffffff804048e4:	87aa                	mv	a5,a0
ffffffff804048e6:	cba5                	beqz	a5,ffffffff80404956 <find_swap_page_kva+0x4ce>
ffffffff804048e8:	f7843783          	ld	a5,-136(s0)
ffffffff804048ec:	639c                	ld	a5,0(a5)
ffffffff804048ee:	45c1                	li	a1,16
ffffffff804048f0:	853e                	mv	a0,a5
ffffffff804048f2:	e4aff0ef          	jal	ra,ffffffff80403f3c <get_attribute>
ffffffff804048f6:	87aa                	mv	a5,a0
ffffffff804048f8:	cfb9                	beqz	a5,ffffffff80404956 <find_swap_page_kva+0x4ce>
ffffffff804048fa:	f7843783          	ld	a5,-136(s0)
ffffffff804048fe:	639c                	ld	a5,0(a5)
ffffffff80404900:	04000593          	li	a1,64
ffffffff80404904:	853e                	mv	a0,a5
ffffffff80404906:	e36ff0ef          	jal	ra,ffffffff80403f3c <get_attribute>
ffffffff8040490a:	87aa                	mv	a5,a0
ffffffff8040490c:	c7a9                	beqz	a5,ffffffff80404956 <find_swap_page_kva+0x4ce>
ffffffff8040490e:	f7843783          	ld	a5,-136(s0)
ffffffff80404912:	639c                	ld	a5,0(a5)
ffffffff80404914:	08000593          	li	a1,128
ffffffff80404918:	853e                	mv	a0,a5
ffffffff8040491a:	e22ff0ef          	jal	ra,ffffffff80403f3c <get_attribute>
ffffffff8040491e:	87aa                	mv	a5,a0
ffffffff80404920:	eb9d                	bnez	a5,ffffffff80404956 <find_swap_page_kva+0x4ce>
ffffffff80404922:	0c100593          	li	a1,193
ffffffff80404926:	f7843503          	ld	a0,-136(s0)
ffffffff8040492a:	933ff0ef          	jal	ra,ffffffff8040425c <clear_attribute>
ffffffff8040492e:	10000593          	li	a1,256
ffffffff80404932:	f7843503          	ld	a0,-136(s0)
ffffffff80404936:	e26ff0ef          	jal	ra,ffffffff80403f5c <set_attribute>
ffffffff8040493a:	f7843783          	ld	a5,-136(s0)
ffffffff8040493e:	639c                	ld	a5,0(a5)
ffffffff80404940:	853e                	mv	a0,a5
ffffffff80404942:	db4ff0ef          	jal	ra,ffffffff80403ef6 <get_pfn>
ffffffff80404946:	87aa                	mv	a5,a0
ffffffff80404948:	07b2                	slli	a5,a5,0xc
ffffffff8040494a:	853e                	mv	a0,a5
ffffffff8040494c:	d8eff0ef          	jal	ra,ffffffff80403eda <pa2kva>
ffffffff80404950:	87aa                	mv	a5,a0
ffffffff80404952:	a411                	j	ffffffff80404b56 <find_swap_page_kva+0x6ce>
ffffffff80404954:	0001                	nop
ffffffff80404956:	fcc42783          	lw	a5,-52(s0)
ffffffff8040495a:	2785                	addiw	a5,a5,1
ffffffff8040495c:	fcf42623          	sw	a5,-52(s0)
ffffffff80404960:	fcc42783          	lw	a5,-52(s0)
ffffffff80404964:	0007871b          	sext.w	a4,a5
ffffffff80404968:	1ff00793          	li	a5,511
ffffffff8040496c:	f2e7d0e3          	bge	a5,a4,ffffffff8040488c <find_swap_page_kva+0x404>
ffffffff80404970:	fd042783          	lw	a5,-48(s0)
ffffffff80404974:	2785                	addiw	a5,a5,1
ffffffff80404976:	fcf42823          	sw	a5,-48(s0)
ffffffff8040497a:	fd042783          	lw	a5,-48(s0)
ffffffff8040497e:	0007871b          	sext.w	a4,a5
ffffffff80404982:	1ff00793          	li	a5,511
ffffffff80404986:	eae7dae3          	bge	a5,a4,ffffffff8040483a <find_swap_page_kva+0x3b2>
ffffffff8040498a:	fd442783          	lw	a5,-44(s0)
ffffffff8040498e:	2785                	addiw	a5,a5,1
ffffffff80404990:	fcf42a23          	sw	a5,-44(s0)
ffffffff80404994:	fd442783          	lw	a5,-44(s0)
ffffffff80404998:	0007871b          	sext.w	a4,a5
ffffffff8040499c:	0ff00793          	li	a5,255
ffffffff804049a0:	e4e7dde3          	bge	a5,a4,ffffffff804047fa <find_swap_page_kva+0x372>
ffffffff804049a4:	fc042423          	sw	zero,-56(s0)
ffffffff804049a8:	aa71                	j	ffffffff80404b44 <find_swap_page_kva+0x6bc>
ffffffff804049aa:	fc842783          	lw	a5,-56(s0)
ffffffff804049ae:	00379713          	slli	a4,a5,0x3
ffffffff804049b2:	f5843783          	ld	a5,-168(s0)
ffffffff804049b6:	97ba                	add	a5,a5,a4
ffffffff804049b8:	f6f43823          	sd	a5,-144(s0)
ffffffff804049bc:	f7043783          	ld	a5,-144(s0)
ffffffff804049c0:	639c                	ld	a5,0(a5)
ffffffff804049c2:	4585                	li	a1,1
ffffffff804049c4:	853e                	mv	a0,a5
ffffffff804049c6:	d76ff0ef          	jal	ra,ffffffff80403f3c <get_attribute>
ffffffff804049ca:	87aa                	mv	a5,a0
ffffffff804049cc:	16078763          	beqz	a5,ffffffff80404b3a <find_swap_page_kva+0x6b2>
ffffffff804049d0:	f7043783          	ld	a5,-144(s0)
ffffffff804049d4:	639c                	ld	a5,0(a5)
ffffffff804049d6:	45c1                	li	a1,16
ffffffff804049d8:	853e                	mv	a0,a5
ffffffff804049da:	d62ff0ef          	jal	ra,ffffffff80403f3c <get_attribute>
ffffffff804049de:	87aa                	mv	a5,a0
ffffffff804049e0:	14078d63          	beqz	a5,ffffffff80404b3a <find_swap_page_kva+0x6b2>
ffffffff804049e4:	fc042223          	sw	zero,-60(s0)
ffffffff804049e8:	a289                	j	ffffffff80404b2a <find_swap_page_kva+0x6a2>
ffffffff804049ea:	f7043783          	ld	a5,-144(s0)
ffffffff804049ee:	639c                	ld	a5,0(a5)
ffffffff804049f0:	853e                	mv	a0,a5
ffffffff804049f2:	d04ff0ef          	jal	ra,ffffffff80403ef6 <get_pfn>
ffffffff804049f6:	87aa                	mv	a5,a0
ffffffff804049f8:	07b2                	slli	a5,a5,0xc
ffffffff804049fa:	853e                	mv	a0,a5
ffffffff804049fc:	cdeff0ef          	jal	ra,ffffffff80403eda <pa2kva>
ffffffff80404a00:	872a                	mv	a4,a0
ffffffff80404a02:	fc442783          	lw	a5,-60(s0)
ffffffff80404a06:	078e                	slli	a5,a5,0x3
ffffffff80404a08:	97ba                	add	a5,a5,a4
ffffffff80404a0a:	f6f43423          	sd	a5,-152(s0)
ffffffff80404a0e:	f6843783          	ld	a5,-152(s0)
ffffffff80404a12:	639c                	ld	a5,0(a5)
ffffffff80404a14:	4585                	li	a1,1
ffffffff80404a16:	853e                	mv	a0,a5
ffffffff80404a18:	d24ff0ef          	jal	ra,ffffffff80403f3c <get_attribute>
ffffffff80404a1c:	87aa                	mv	a5,a0
ffffffff80404a1e:	10078163          	beqz	a5,ffffffff80404b20 <find_swap_page_kva+0x698>
ffffffff80404a22:	f6843783          	ld	a5,-152(s0)
ffffffff80404a26:	639c                	ld	a5,0(a5)
ffffffff80404a28:	45c1                	li	a1,16
ffffffff80404a2a:	853e                	mv	a0,a5
ffffffff80404a2c:	d10ff0ef          	jal	ra,ffffffff80403f3c <get_attribute>
ffffffff80404a30:	87aa                	mv	a5,a0
ffffffff80404a32:	0e078763          	beqz	a5,ffffffff80404b20 <find_swap_page_kva+0x698>
ffffffff80404a36:	fc042023          	sw	zero,-64(s0)
ffffffff80404a3a:	a8d9                	j	ffffffff80404b10 <find_swap_page_kva+0x688>
ffffffff80404a3c:	f6843783          	ld	a5,-152(s0)
ffffffff80404a40:	639c                	ld	a5,0(a5)
ffffffff80404a42:	853e                	mv	a0,a5
ffffffff80404a44:	cb2ff0ef          	jal	ra,ffffffff80403ef6 <get_pfn>
ffffffff80404a48:	87aa                	mv	a5,a0
ffffffff80404a4a:	07b2                	slli	a5,a5,0xc
ffffffff80404a4c:	853e                	mv	a0,a5
ffffffff80404a4e:	c8cff0ef          	jal	ra,ffffffff80403eda <pa2kva>
ffffffff80404a52:	872a                	mv	a4,a0
ffffffff80404a54:	fc042783          	lw	a5,-64(s0)
ffffffff80404a58:	078e                	slli	a5,a5,0x3
ffffffff80404a5a:	97ba                	add	a5,a5,a4
ffffffff80404a5c:	f6f43023          	sd	a5,-160(s0)
ffffffff80404a60:	f6043783          	ld	a5,-160(s0)
ffffffff80404a64:	639c                	ld	a5,0(a5)
ffffffff80404a66:	20000593          	li	a1,512
ffffffff80404a6a:	853e                	mv	a0,a5
ffffffff80404a6c:	cd0ff0ef          	jal	ra,ffffffff80403f3c <get_attribute>
ffffffff80404a70:	87aa                	mv	a5,a0
ffffffff80404a72:	ebc9                	bnez	a5,ffffffff80404b04 <find_swap_page_kva+0x67c>
ffffffff80404a74:	f6043783          	ld	a5,-160(s0)
ffffffff80404a78:	639c                	ld	a5,0(a5)
ffffffff80404a7a:	45a1                	li	a1,8
ffffffff80404a7c:	853e                	mv	a0,a5
ffffffff80404a7e:	cbeff0ef          	jal	ra,ffffffff80403f3c <get_attribute>
ffffffff80404a82:	87aa                	mv	a5,a0
ffffffff80404a84:	e3c1                	bnez	a5,ffffffff80404b04 <find_swap_page_kva+0x67c>
ffffffff80404a86:	f6043783          	ld	a5,-160(s0)
ffffffff80404a8a:	639c                	ld	a5,0(a5)
ffffffff80404a8c:	4585                	li	a1,1
ffffffff80404a8e:	853e                	mv	a0,a5
ffffffff80404a90:	cacff0ef          	jal	ra,ffffffff80403f3c <get_attribute>
ffffffff80404a94:	87aa                	mv	a5,a0
ffffffff80404a96:	cba5                	beqz	a5,ffffffff80404b06 <find_swap_page_kva+0x67e>
ffffffff80404a98:	f6043783          	ld	a5,-160(s0)
ffffffff80404a9c:	639c                	ld	a5,0(a5)
ffffffff80404a9e:	45c1                	li	a1,16
ffffffff80404aa0:	853e                	mv	a0,a5
ffffffff80404aa2:	c9aff0ef          	jal	ra,ffffffff80403f3c <get_attribute>
ffffffff80404aa6:	87aa                	mv	a5,a0
ffffffff80404aa8:	cfb9                	beqz	a5,ffffffff80404b06 <find_swap_page_kva+0x67e>
ffffffff80404aaa:	f6043783          	ld	a5,-160(s0)
ffffffff80404aae:	639c                	ld	a5,0(a5)
ffffffff80404ab0:	04000593          	li	a1,64
ffffffff80404ab4:	853e                	mv	a0,a5
ffffffff80404ab6:	c86ff0ef          	jal	ra,ffffffff80403f3c <get_attribute>
ffffffff80404aba:	87aa                	mv	a5,a0
ffffffff80404abc:	c7a9                	beqz	a5,ffffffff80404b06 <find_swap_page_kva+0x67e>
ffffffff80404abe:	f6043783          	ld	a5,-160(s0)
ffffffff80404ac2:	639c                	ld	a5,0(a5)
ffffffff80404ac4:	08000593          	li	a1,128
ffffffff80404ac8:	853e                	mv	a0,a5
ffffffff80404aca:	c72ff0ef          	jal	ra,ffffffff80403f3c <get_attribute>
ffffffff80404ace:	87aa                	mv	a5,a0
ffffffff80404ad0:	cb9d                	beqz	a5,ffffffff80404b06 <find_swap_page_kva+0x67e>
ffffffff80404ad2:	0c100593          	li	a1,193
ffffffff80404ad6:	f6043503          	ld	a0,-160(s0)
ffffffff80404ada:	f82ff0ef          	jal	ra,ffffffff8040425c <clear_attribute>
ffffffff80404ade:	10000593          	li	a1,256
ffffffff80404ae2:	f6043503          	ld	a0,-160(s0)
ffffffff80404ae6:	c76ff0ef          	jal	ra,ffffffff80403f5c <set_attribute>
ffffffff80404aea:	f6043783          	ld	a5,-160(s0)
ffffffff80404aee:	639c                	ld	a5,0(a5)
ffffffff80404af0:	853e                	mv	a0,a5
ffffffff80404af2:	c04ff0ef          	jal	ra,ffffffff80403ef6 <get_pfn>
ffffffff80404af6:	87aa                	mv	a5,a0
ffffffff80404af8:	07b2                	slli	a5,a5,0xc
ffffffff80404afa:	853e                	mv	a0,a5
ffffffff80404afc:	bdeff0ef          	jal	ra,ffffffff80403eda <pa2kva>
ffffffff80404b00:	87aa                	mv	a5,a0
ffffffff80404b02:	a891                	j	ffffffff80404b56 <find_swap_page_kva+0x6ce>
ffffffff80404b04:	0001                	nop
ffffffff80404b06:	fc042783          	lw	a5,-64(s0)
ffffffff80404b0a:	2785                	addiw	a5,a5,1
ffffffff80404b0c:	fcf42023          	sw	a5,-64(s0)
ffffffff80404b10:	fc042783          	lw	a5,-64(s0)
ffffffff80404b14:	0007871b          	sext.w	a4,a5
ffffffff80404b18:	1ff00793          	li	a5,511
ffffffff80404b1c:	f2e7d0e3          	bge	a5,a4,ffffffff80404a3c <find_swap_page_kva+0x5b4>
ffffffff80404b20:	fc442783          	lw	a5,-60(s0)
ffffffff80404b24:	2785                	addiw	a5,a5,1
ffffffff80404b26:	fcf42223          	sw	a5,-60(s0)
ffffffff80404b2a:	fc442783          	lw	a5,-60(s0)
ffffffff80404b2e:	0007871b          	sext.w	a4,a5
ffffffff80404b32:	1ff00793          	li	a5,511
ffffffff80404b36:	eae7dae3          	bge	a5,a4,ffffffff804049ea <find_swap_page_kva+0x562>
ffffffff80404b3a:	fc842783          	lw	a5,-56(s0)
ffffffff80404b3e:	2785                	addiw	a5,a5,1
ffffffff80404b40:	fcf42423          	sw	a5,-56(s0)
ffffffff80404b44:	fc842783          	lw	a5,-56(s0)
ffffffff80404b48:	0007871b          	sext.w	a4,a5
ffffffff80404b4c:	0ff00793          	li	a5,255
ffffffff80404b50:	e4e7dde3          	bge	a5,a4,ffffffff804049aa <find_swap_page_kva+0x522>
ffffffff80404b54:	4781                	li	a5,0
ffffffff80404b56:	853e                	mv	a0,a5
ffffffff80404b58:	70aa                	ld	ra,168(sp)
ffffffff80404b5a:	740a                	ld	s0,160(sp)
ffffffff80404b5c:	614d                	addi	sp,sp,176
ffffffff80404b5e:	8082                	ret

ffffffff80404b60 <freePage>:
ffffffff80404b60:	7139                	addi	sp,sp,-64
ffffffff80404b62:	fc06                	sd	ra,56(sp)
ffffffff80404b64:	f822                	sd	s0,48(sp)
ffffffff80404b66:	0080                	addi	s0,sp,64
ffffffff80404b68:	fca43423          	sd	a0,-56(s0)
ffffffff80404b6c:	4785                	li	a5,1
ffffffff80404b6e:	fef407a3          	sb	a5,-17(s0)
ffffffff80404b72:	0000a797          	auipc	a5,0xa
ffffffff80404b76:	b3678793          	addi	a5,a5,-1226 # ffffffff8040e6a8 <shmPageList>
ffffffff80404b7a:	639c                	ld	a5,0(a5)
ffffffff80404b7c:	fef43023          	sd	a5,-32(s0)
ffffffff80404b80:	a8a1                	j	ffffffff80404bd8 <freePage+0x78>
ffffffff80404b82:	fe043783          	ld	a5,-32(s0)
ffffffff80404b86:	6b9c                	ld	a5,16(a5)
ffffffff80404b88:	fcf43c23          	sd	a5,-40(s0)
ffffffff80404b8c:	fd843783          	ld	a5,-40(s0)
ffffffff80404b90:	679c                	ld	a5,8(a5)
ffffffff80404b92:	fc843703          	ld	a4,-56(s0)
ffffffff80404b96:	02f71c63          	bne	a4,a5,ffffffff80404bce <freePage+0x6e>
ffffffff80404b9a:	fd843783          	ld	a5,-40(s0)
ffffffff80404b9e:	439c                	lw	a5,0(a5)
ffffffff80404ba0:	873e                	mv	a4,a5
ffffffff80404ba2:	4785                	li	a5,1
ffffffff80404ba4:	00e7fe63          	bgeu	a5,a4,ffffffff80404bc0 <freePage+0x60>
ffffffff80404ba8:	fd843783          	ld	a5,-40(s0)
ffffffff80404bac:	439c                	lw	a5,0(a5)
ffffffff80404bae:	37fd                	addiw	a5,a5,-1
ffffffff80404bb0:	0007871b          	sext.w	a4,a5
ffffffff80404bb4:	fd843783          	ld	a5,-40(s0)
ffffffff80404bb8:	c398                	sw	a4,0(a5)
ffffffff80404bba:	fe0407a3          	sb	zero,-17(s0)
ffffffff80404bbe:	a02d                	j	ffffffff80404be8 <freePage+0x88>
ffffffff80404bc0:	fd843783          	ld	a5,-40(s0)
ffffffff80404bc4:	07e1                	addi	a5,a5,24
ffffffff80404bc6:	853e                	mv	a0,a5
ffffffff80404bc8:	9a2ff0ef          	jal	ra,ffffffff80403d6a <list_del>
ffffffff80404bcc:	a831                	j	ffffffff80404be8 <freePage+0x88>
ffffffff80404bce:	fe043783          	ld	a5,-32(s0)
ffffffff80404bd2:	639c                	ld	a5,0(a5)
ffffffff80404bd4:	fef43023          	sd	a5,-32(s0)
ffffffff80404bd8:	fe043703          	ld	a4,-32(s0)
ffffffff80404bdc:	0000a797          	auipc	a5,0xa
ffffffff80404be0:	acc78793          	addi	a5,a5,-1332 # ffffffff8040e6a8 <shmPageList>
ffffffff80404be4:	f8f71fe3          	bne	a4,a5,ffffffff80404b82 <freePage+0x22>
ffffffff80404be8:	fef44783          	lbu	a5,-17(s0)
ffffffff80404bec:	0ff7f793          	andi	a5,a5,255
ffffffff80404bf0:	cf8d                	beqz	a5,ffffffff80404c2a <freePage+0xca>
ffffffff80404bf2:	4561                	li	a0,24
ffffffff80404bf4:	040000ef          	jal	ra,ffffffff80404c34 <kmalloc>
ffffffff80404bf8:	fca43823          	sd	a0,-48(s0)
ffffffff80404bfc:	fd043783          	ld	a5,-48(s0)
ffffffff80404c00:	fd043703          	ld	a4,-48(s0)
ffffffff80404c04:	e398                	sd	a4,0(a5)
ffffffff80404c06:	fd043783          	ld	a5,-48(s0)
ffffffff80404c0a:	fd043703          	ld	a4,-48(s0)
ffffffff80404c0e:	e798                	sd	a4,8(a5)
ffffffff80404c10:	fd043783          	ld	a5,-48(s0)
ffffffff80404c14:	fc843703          	ld	a4,-56(s0)
ffffffff80404c18:	eb98                	sd	a4,16(a5)
ffffffff80404c1a:	0000a597          	auipc	a1,0xa
ffffffff80404c1e:	a7658593          	addi	a1,a1,-1418 # ffffffff8040e690 <freePageList>
ffffffff80404c22:	fd043503          	ld	a0,-48(s0)
ffffffff80404c26:	98eff0ef          	jal	ra,ffffffff80403db4 <list_add_tail>
ffffffff80404c2a:	0001                	nop
ffffffff80404c2c:	70e2                	ld	ra,56(sp)
ffffffff80404c2e:	7442                	ld	s0,48(sp)
ffffffff80404c30:	6121                	addi	sp,sp,64
ffffffff80404c32:	8082                	ret

ffffffff80404c34 <kmalloc>:
ffffffff80404c34:	1101                	addi	sp,sp,-32
ffffffff80404c36:	ec22                	sd	s0,24(sp)
ffffffff80404c38:	1000                	addi	s0,sp,32
ffffffff80404c3a:	fea43423          	sd	a0,-24(s0)
ffffffff80404c3e:	00014797          	auipc	a5,0x14
ffffffff80404c42:	a2278793          	addi	a5,a5,-1502 # ffffffff80418660 <memalloc>
ffffffff80404c46:	6398                	ld	a4,0(a5)
ffffffff80404c48:	fe843783          	ld	a5,-24(s0)
ffffffff80404c4c:	8f1d                	sub	a4,a4,a5
ffffffff80404c4e:	00014797          	auipc	a5,0x14
ffffffff80404c52:	a1278793          	addi	a5,a5,-1518 # ffffffff80418660 <memalloc>
ffffffff80404c56:	e398                	sd	a4,0(a5)
ffffffff80404c58:	fe843783          	ld	a5,-24(s0)
ffffffff80404c5c:	03f7f713          	andi	a4,a5,63
ffffffff80404c60:	00014797          	auipc	a5,0x14
ffffffff80404c64:	a0078793          	addi	a5,a5,-1536 # ffffffff80418660 <memalloc>
ffffffff80404c68:	639c                	ld	a5,0(a5)
ffffffff80404c6a:	97ba                	add	a5,a5,a4
ffffffff80404c6c:	fc078713          	addi	a4,a5,-64
ffffffff80404c70:	00014797          	auipc	a5,0x14
ffffffff80404c74:	9f078793          	addi	a5,a5,-1552 # ffffffff80418660 <memalloc>
ffffffff80404c78:	e398                	sd	a4,0(a5)
ffffffff80404c7a:	00014797          	auipc	a5,0x14
ffffffff80404c7e:	9e678793          	addi	a5,a5,-1562 # ffffffff80418660 <memalloc>
ffffffff80404c82:	639c                	ld	a5,0(a5)
ffffffff80404c84:	853e                	mv	a0,a5
ffffffff80404c86:	6462                	ld	s0,24(sp)
ffffffff80404c88:	6105                	addi	sp,sp,32
ffffffff80404c8a:	8082                	ret

ffffffff80404c8c <find_freepage_uva>:
ffffffff80404c8c:	711d                	addi	sp,sp,-96
ffffffff80404c8e:	ec86                	sd	ra,88(sp)
ffffffff80404c90:	e8a2                	sd	s0,80(sp)
ffffffff80404c92:	1080                	addi	s0,sp,96
ffffffff80404c94:	faa43423          	sd	a0,-88(s0)
ffffffff80404c98:	fe042623          	sw	zero,-20(s0)
ffffffff80404c9c:	aa5d                	j	ffffffff80404e52 <find_freepage_uva+0x1c6>
ffffffff80404c9e:	fec42783          	lw	a5,-20(s0)
ffffffff80404ca2:	00379713          	slli	a4,a5,0x3
ffffffff80404ca6:	fa843783          	ld	a5,-88(s0)
ffffffff80404caa:	97ba                	add	a5,a5,a4
ffffffff80404cac:	fcf43c23          	sd	a5,-40(s0)
ffffffff80404cb0:	fd843783          	ld	a5,-40(s0)
ffffffff80404cb4:	639c                	ld	a5,0(a5)
ffffffff80404cb6:	4585                	li	a1,1
ffffffff80404cb8:	853e                	mv	a0,a5
ffffffff80404cba:	a82ff0ef          	jal	ra,ffffffff80403f3c <get_attribute>
ffffffff80404cbe:	87aa                	mv	a5,a0
ffffffff80404cc0:	e3a1                	bnez	a5,ffffffff80404d00 <find_freepage_uva+0x74>
ffffffff80404cc2:	fd843783          	ld	a5,-40(s0)
ffffffff80404cc6:	639c                	ld	a5,0(a5)
ffffffff80404cc8:	10000593          	li	a1,256
ffffffff80404ccc:	853e                	mv	a0,a5
ffffffff80404cce:	a6eff0ef          	jal	ra,ffffffff80403f3c <get_attribute>
ffffffff80404cd2:	87aa                	mv	a5,a0
ffffffff80404cd4:	e795                	bnez	a5,ffffffff80404d00 <find_freepage_uva+0x74>
ffffffff80404cd6:	fec42783          	lw	a5,-20(s0)
ffffffff80404cda:	fcf43823          	sd	a5,-48(s0)
ffffffff80404cde:	fc043423          	sd	zero,-56(s0)
ffffffff80404ce2:	fc043023          	sd	zero,-64(s0)
ffffffff80404ce6:	fd043783          	ld	a5,-48(s0)
ffffffff80404cea:	01e79713          	slli	a4,a5,0x1e
ffffffff80404cee:	fc843783          	ld	a5,-56(s0)
ffffffff80404cf2:	07d6                	slli	a5,a5,0x15
ffffffff80404cf4:	8f5d                	or	a4,a4,a5
ffffffff80404cf6:	fc043783          	ld	a5,-64(s0)
ffffffff80404cfa:	07b2                	slli	a5,a5,0xc
ffffffff80404cfc:	8fd9                	or	a5,a5,a4
ffffffff80404cfe:	a295                	j	ffffffff80404e62 <find_freepage_uva+0x1d6>
ffffffff80404d00:	fe042423          	sw	zero,-24(s0)
ffffffff80404d04:	aa15                	j	ffffffff80404e38 <find_freepage_uva+0x1ac>
ffffffff80404d06:	fd843783          	ld	a5,-40(s0)
ffffffff80404d0a:	639c                	ld	a5,0(a5)
ffffffff80404d0c:	853e                	mv	a0,a5
ffffffff80404d0e:	9e8ff0ef          	jal	ra,ffffffff80403ef6 <get_pfn>
ffffffff80404d12:	87aa                	mv	a5,a0
ffffffff80404d14:	07b2                	slli	a5,a5,0xc
ffffffff80404d16:	853e                	mv	a0,a5
ffffffff80404d18:	9c2ff0ef          	jal	ra,ffffffff80403eda <pa2kva>
ffffffff80404d1c:	872a                	mv	a4,a0
ffffffff80404d1e:	fe842783          	lw	a5,-24(s0)
ffffffff80404d22:	078e                	slli	a5,a5,0x3
ffffffff80404d24:	97ba                	add	a5,a5,a4
ffffffff80404d26:	faf43c23          	sd	a5,-72(s0)
ffffffff80404d2a:	fb843783          	ld	a5,-72(s0)
ffffffff80404d2e:	639c                	ld	a5,0(a5)
ffffffff80404d30:	4585                	li	a1,1
ffffffff80404d32:	853e                	mv	a0,a5
ffffffff80404d34:	a08ff0ef          	jal	ra,ffffffff80403f3c <get_attribute>
ffffffff80404d38:	87aa                	mv	a5,a0
ffffffff80404d3a:	e3b1                	bnez	a5,ffffffff80404d7e <find_freepage_uva+0xf2>
ffffffff80404d3c:	fb843783          	ld	a5,-72(s0)
ffffffff80404d40:	639c                	ld	a5,0(a5)
ffffffff80404d42:	10000593          	li	a1,256
ffffffff80404d46:	853e                	mv	a0,a5
ffffffff80404d48:	9f4ff0ef          	jal	ra,ffffffff80403f3c <get_attribute>
ffffffff80404d4c:	87aa                	mv	a5,a0
ffffffff80404d4e:	eb85                	bnez	a5,ffffffff80404d7e <find_freepage_uva+0xf2>
ffffffff80404d50:	fec42783          	lw	a5,-20(s0)
ffffffff80404d54:	fcf43823          	sd	a5,-48(s0)
ffffffff80404d58:	fe842783          	lw	a5,-24(s0)
ffffffff80404d5c:	fcf43423          	sd	a5,-56(s0)
ffffffff80404d60:	fc043023          	sd	zero,-64(s0)
ffffffff80404d64:	fd043783          	ld	a5,-48(s0)
ffffffff80404d68:	01e79713          	slli	a4,a5,0x1e
ffffffff80404d6c:	fc843783          	ld	a5,-56(s0)
ffffffff80404d70:	07d6                	slli	a5,a5,0x15
ffffffff80404d72:	8f5d                	or	a4,a4,a5
ffffffff80404d74:	fc043783          	ld	a5,-64(s0)
ffffffff80404d78:	07b2                	slli	a5,a5,0xc
ffffffff80404d7a:	8fd9                	or	a5,a5,a4
ffffffff80404d7c:	a0dd                	j	ffffffff80404e62 <find_freepage_uva+0x1d6>
ffffffff80404d7e:	fec42703          	lw	a4,-20(s0)
ffffffff80404d82:	fe842783          	lw	a5,-24(s0)
ffffffff80404d86:	9fb9                	addw	a5,a5,a4
ffffffff80404d88:	2781                	sext.w	a5,a5
ffffffff80404d8a:	0017b793          	seqz	a5,a5
ffffffff80404d8e:	0ff7f793          	andi	a5,a5,255
ffffffff80404d92:	fef42223          	sw	a5,-28(s0)
ffffffff80404d96:	a061                	j	ffffffff80404e1e <find_freepage_uva+0x192>
ffffffff80404d98:	fb843783          	ld	a5,-72(s0)
ffffffff80404d9c:	639c                	ld	a5,0(a5)
ffffffff80404d9e:	853e                	mv	a0,a5
ffffffff80404da0:	956ff0ef          	jal	ra,ffffffff80403ef6 <get_pfn>
ffffffff80404da4:	87aa                	mv	a5,a0
ffffffff80404da6:	07b2                	slli	a5,a5,0xc
ffffffff80404da8:	853e                	mv	a0,a5
ffffffff80404daa:	930ff0ef          	jal	ra,ffffffff80403eda <pa2kva>
ffffffff80404dae:	872a                	mv	a4,a0
ffffffff80404db0:	fe442783          	lw	a5,-28(s0)
ffffffff80404db4:	078e                	slli	a5,a5,0x3
ffffffff80404db6:	97ba                	add	a5,a5,a4
ffffffff80404db8:	faf43823          	sd	a5,-80(s0)
ffffffff80404dbc:	fb043783          	ld	a5,-80(s0)
ffffffff80404dc0:	639c                	ld	a5,0(a5)
ffffffff80404dc2:	4585                	li	a1,1
ffffffff80404dc4:	853e                	mv	a0,a5
ffffffff80404dc6:	976ff0ef          	jal	ra,ffffffff80403f3c <get_attribute>
ffffffff80404dca:	87aa                	mv	a5,a0
ffffffff80404dcc:	e7a1                	bnez	a5,ffffffff80404e14 <find_freepage_uva+0x188>
ffffffff80404dce:	fb043783          	ld	a5,-80(s0)
ffffffff80404dd2:	639c                	ld	a5,0(a5)
ffffffff80404dd4:	10000593          	li	a1,256
ffffffff80404dd8:	853e                	mv	a0,a5
ffffffff80404dda:	962ff0ef          	jal	ra,ffffffff80403f3c <get_attribute>
ffffffff80404dde:	87aa                	mv	a5,a0
ffffffff80404de0:	eb95                	bnez	a5,ffffffff80404e14 <find_freepage_uva+0x188>
ffffffff80404de2:	fec42783          	lw	a5,-20(s0)
ffffffff80404de6:	fcf43823          	sd	a5,-48(s0)
ffffffff80404dea:	fe842783          	lw	a5,-24(s0)
ffffffff80404dee:	fcf43423          	sd	a5,-56(s0)
ffffffff80404df2:	fe442783          	lw	a5,-28(s0)
ffffffff80404df6:	fcf43023          	sd	a5,-64(s0)
ffffffff80404dfa:	fd043783          	ld	a5,-48(s0)
ffffffff80404dfe:	01e79713          	slli	a4,a5,0x1e
ffffffff80404e02:	fc843783          	ld	a5,-56(s0)
ffffffff80404e06:	07d6                	slli	a5,a5,0x15
ffffffff80404e08:	8f5d                	or	a4,a4,a5
ffffffff80404e0a:	fc043783          	ld	a5,-64(s0)
ffffffff80404e0e:	07b2                	slli	a5,a5,0xc
ffffffff80404e10:	8fd9                	or	a5,a5,a4
ffffffff80404e12:	a881                	j	ffffffff80404e62 <find_freepage_uva+0x1d6>
ffffffff80404e14:	fe442783          	lw	a5,-28(s0)
ffffffff80404e18:	2785                	addiw	a5,a5,1
ffffffff80404e1a:	fef42223          	sw	a5,-28(s0)
ffffffff80404e1e:	fe442783          	lw	a5,-28(s0)
ffffffff80404e22:	0007871b          	sext.w	a4,a5
ffffffff80404e26:	1ff00793          	li	a5,511
ffffffff80404e2a:	f6e7d7e3          	bge	a5,a4,ffffffff80404d98 <find_freepage_uva+0x10c>
ffffffff80404e2e:	fe842783          	lw	a5,-24(s0)
ffffffff80404e32:	2785                	addiw	a5,a5,1
ffffffff80404e34:	fef42423          	sw	a5,-24(s0)
ffffffff80404e38:	fe842783          	lw	a5,-24(s0)
ffffffff80404e3c:	0007871b          	sext.w	a4,a5
ffffffff80404e40:	1ff00793          	li	a5,511
ffffffff80404e44:	ece7d1e3          	bge	a5,a4,ffffffff80404d06 <find_freepage_uva+0x7a>
ffffffff80404e48:	fec42783          	lw	a5,-20(s0)
ffffffff80404e4c:	2785                	addiw	a5,a5,1
ffffffff80404e4e:	fef42623          	sw	a5,-20(s0)
ffffffff80404e52:	fec42783          	lw	a5,-20(s0)
ffffffff80404e56:	0007871b          	sext.w	a4,a5
ffffffff80404e5a:	0ff00793          	li	a5,255
ffffffff80404e5e:	e4e7d0e3          	bge	a5,a4,ffffffff80404c9e <find_freepage_uva+0x12>
ffffffff80404e62:	853e                	mv	a0,a5
ffffffff80404e64:	60e6                	ld	ra,88(sp)
ffffffff80404e66:	6446                	ld	s0,80(sp)
ffffffff80404e68:	6125                	addi	sp,sp,96
ffffffff80404e6a:	8082                	ret

ffffffff80404e6c <shm_page_get>:
ffffffff80404e6c:	7139                	addi	sp,sp,-64
ffffffff80404e6e:	fc06                	sd	ra,56(sp)
ffffffff80404e70:	f822                	sd	s0,48(sp)
ffffffff80404e72:	0080                	addi	s0,sp,64
ffffffff80404e74:	87aa                	mv	a5,a0
ffffffff80404e76:	fcf42623          	sw	a5,-52(s0)
ffffffff80404e7a:	0001b797          	auipc	a5,0x1b
ffffffff80404e7e:	c0e78793          	addi	a5,a5,-1010 # ffffffff8041fa88 <current_running>
ffffffff80404e82:	639c                	ld	a5,0(a5)
ffffffff80404e84:	63dc                	ld	a5,128(a5)
ffffffff80404e86:	853e                	mv	a0,a5
ffffffff80404e88:	e05ff0ef          	jal	ra,ffffffff80404c8c <find_freepage_uva>
ffffffff80404e8c:	fea43023          	sd	a0,-32(s0)
ffffffff80404e90:	0000a797          	auipc	a5,0xa
ffffffff80404e94:	81878793          	addi	a5,a5,-2024 # ffffffff8040e6a8 <shmPageList>
ffffffff80404e98:	639c                	ld	a5,0(a5)
ffffffff80404e9a:	fef43423          	sd	a5,-24(s0)
ffffffff80404e9e:	a8b1                	j	ffffffff80404efa <shm_page_get+0x8e>
ffffffff80404ea0:	fe843783          	ld	a5,-24(s0)
ffffffff80404ea4:	6b9c                	ld	a5,16(a5)
ffffffff80404ea6:	fcf43c23          	sd	a5,-40(s0)
ffffffff80404eaa:	fd843783          	ld	a5,-40(s0)
ffffffff80404eae:	4b98                	lw	a4,16(a5)
ffffffff80404eb0:	fcc42783          	lw	a5,-52(s0)
ffffffff80404eb4:	2781                	sext.w	a5,a5
ffffffff80404eb6:	02e79d63          	bne	a5,a4,ffffffff80404ef0 <shm_page_get+0x84>
ffffffff80404eba:	fd843783          	ld	a5,-40(s0)
ffffffff80404ebe:	6798                	ld	a4,8(a5)
ffffffff80404ec0:	0001b797          	auipc	a5,0x1b
ffffffff80404ec4:	bc878793          	addi	a5,a5,-1080 # ffffffff8041fa88 <current_running>
ffffffff80404ec8:	639c                	ld	a5,0(a5)
ffffffff80404eca:	63dc                	ld	a5,128(a5)
ffffffff80404ecc:	863e                	mv	a2,a5
ffffffff80404ece:	85ba                	mv	a1,a4
ffffffff80404ed0:	fe043503          	ld	a0,-32(s0)
ffffffff80404ed4:	24c000ef          	jal	ra,ffffffff80405120 <mapping_page>
ffffffff80404ed8:	fd843783          	ld	a5,-40(s0)
ffffffff80404edc:	439c                	lw	a5,0(a5)
ffffffff80404ede:	2785                	addiw	a5,a5,1
ffffffff80404ee0:	0007871b          	sext.w	a4,a5
ffffffff80404ee4:	fd843783          	ld	a5,-40(s0)
ffffffff80404ee8:	c398                	sw	a4,0(a5)
ffffffff80404eea:	fe043783          	ld	a5,-32(s0)
ffffffff80404eee:	a869                	j	ffffffff80404f88 <shm_page_get+0x11c>
ffffffff80404ef0:	fe843783          	ld	a5,-24(s0)
ffffffff80404ef4:	639c                	ld	a5,0(a5)
ffffffff80404ef6:	fef43423          	sd	a5,-24(s0)
ffffffff80404efa:	fe843703          	ld	a4,-24(s0)
ffffffff80404efe:	00009797          	auipc	a5,0x9
ffffffff80404f02:	7aa78793          	addi	a5,a5,1962 # ffffffff8040e6a8 <shmPageList>
ffffffff80404f06:	f8f71de3          	bne	a4,a5,ffffffff80404ea0 <shm_page_get+0x34>
ffffffff80404f0a:	03000513          	li	a0,48
ffffffff80404f0e:	d27ff0ef          	jal	ra,ffffffff80404c34 <kmalloc>
ffffffff80404f12:	fca43823          	sd	a0,-48(s0)
ffffffff80404f16:	fd043783          	ld	a5,-48(s0)
ffffffff80404f1a:	4705                	li	a4,1
ffffffff80404f1c:	c398                	sw	a4,0(a5)
ffffffff80404f1e:	0001b797          	auipc	a5,0x1b
ffffffff80404f22:	b6a78793          	addi	a5,a5,-1174 # ffffffff8041fa88 <current_running>
ffffffff80404f26:	639c                	ld	a5,0(a5)
ffffffff80404f28:	63dc                	ld	a5,128(a5)
ffffffff80404f2a:	4619                	li	a2,6
ffffffff80404f2c:	85be                	mv	a1,a5
ffffffff80404f2e:	fe043503          	ld	a0,-32(s0)
ffffffff80404f32:	60e000ef          	jal	ra,ffffffff80405540 <alloc_page_helper>
ffffffff80404f36:	872a                	mv	a4,a0
ffffffff80404f38:	fd043783          	ld	a5,-48(s0)
ffffffff80404f3c:	e798                	sd	a4,8(a5)
ffffffff80404f3e:	fd043783          	ld	a5,-48(s0)
ffffffff80404f42:	6798                	ld	a4,8(a5)
ffffffff80404f44:	0001b797          	auipc	a5,0x1b
ffffffff80404f48:	b4478793          	addi	a5,a5,-1212 # ffffffff8041fa88 <current_running>
ffffffff80404f4c:	639c                	ld	a5,0(a5)
ffffffff80404f4e:	63dc                	ld	a5,128(a5)
ffffffff80404f50:	863e                	mv	a2,a5
ffffffff80404f52:	85ba                	mv	a1,a4
ffffffff80404f54:	fe043503          	ld	a0,-32(s0)
ffffffff80404f58:	1c8000ef          	jal	ra,ffffffff80405120 <mapping_page>
ffffffff80404f5c:	fd043783          	ld	a5,-48(s0)
ffffffff80404f60:	fcc42703          	lw	a4,-52(s0)
ffffffff80404f64:	cb98                	sw	a4,16(a5)
ffffffff80404f66:	fd043703          	ld	a4,-48(s0)
ffffffff80404f6a:	fd043783          	ld	a5,-48(s0)
ffffffff80404f6e:	f798                	sd	a4,40(a5)
ffffffff80404f70:	fd043783          	ld	a5,-48(s0)
ffffffff80404f74:	07e1                	addi	a5,a5,24
ffffffff80404f76:	00009597          	auipc	a1,0x9
ffffffff80404f7a:	73258593          	addi	a1,a1,1842 # ffffffff8040e6a8 <shmPageList>
ffffffff80404f7e:	853e                	mv	a0,a5
ffffffff80404f80:	e35fe0ef          	jal	ra,ffffffff80403db4 <list_add_tail>
ffffffff80404f84:	fe043783          	ld	a5,-32(s0)
ffffffff80404f88:	853e                	mv	a0,a5
ffffffff80404f8a:	70e2                	ld	ra,56(sp)
ffffffff80404f8c:	7442                	ld	s0,48(sp)
ffffffff80404f8e:	6121                	addi	sp,sp,64
ffffffff80404f90:	8082                	ret

ffffffff80404f92 <shm_page_dt>:
ffffffff80404f92:	715d                	addi	sp,sp,-80
ffffffff80404f94:	e486                	sd	ra,72(sp)
ffffffff80404f96:	e0a2                	sd	s0,64(sp)
ffffffff80404f98:	0880                	addi	s0,sp,80
ffffffff80404f9a:	faa43c23          	sd	a0,-72(s0)
ffffffff80404f9e:	0001b797          	auipc	a5,0x1b
ffffffff80404fa2:	aea78793          	addi	a5,a5,-1302 # ffffffff8041fa88 <current_running>
ffffffff80404fa6:	639c                	ld	a5,0(a5)
ffffffff80404fa8:	63dc                	ld	a5,128(a5)
ffffffff80404faa:	85be                	mv	a1,a5
ffffffff80404fac:	fb843503          	ld	a0,-72(s0)
ffffffff80404fb0:	fd5fe0ef          	jal	ra,ffffffff80403f84 <get_kva_of>
ffffffff80404fb4:	87aa                	mv	a5,a0
ffffffff80404fb6:	853e                	mv	a0,a5
ffffffff80404fb8:	ba9ff0ef          	jal	ra,ffffffff80404b60 <freePage>
ffffffff80404fbc:	fb843783          	ld	a5,-72(s0)
ffffffff80404fc0:	fef43023          	sd	a5,-32(s0)
ffffffff80404fc4:	fe043783          	ld	a5,-32(s0)
ffffffff80404fc8:	83f9                	srli	a5,a5,0x1e
ffffffff80404fca:	1ff7f793          	andi	a5,a5,511
ffffffff80404fce:	fcf43c23          	sd	a5,-40(s0)
ffffffff80404fd2:	fe043783          	ld	a5,-32(s0)
ffffffff80404fd6:	83d5                	srli	a5,a5,0x15
ffffffff80404fd8:	1ff7f793          	andi	a5,a5,511
ffffffff80404fdc:	fcf43823          	sd	a5,-48(s0)
ffffffff80404fe0:	fe043783          	ld	a5,-32(s0)
ffffffff80404fe4:	83b1                	srli	a5,a5,0xc
ffffffff80404fe6:	1ff7f793          	andi	a5,a5,511
ffffffff80404fea:	fcf43423          	sd	a5,-56(s0)
ffffffff80404fee:	0001b797          	auipc	a5,0x1b
ffffffff80404ff2:	a9a78793          	addi	a5,a5,-1382 # ffffffff8041fa88 <current_running>
ffffffff80404ff6:	639c                	ld	a5,0(a5)
ffffffff80404ff8:	63d8                	ld	a4,128(a5)
ffffffff80404ffa:	fd843783          	ld	a5,-40(s0)
ffffffff80404ffe:	078e                	slli	a5,a5,0x3
ffffffff80405000:	97ba                	add	a5,a5,a4
ffffffff80405002:	fef43423          	sd	a5,-24(s0)
ffffffff80405006:	fe843783          	ld	a5,-24(s0)
ffffffff8040500a:	639c                	ld	a5,0(a5)
ffffffff8040500c:	4585                	li	a1,1
ffffffff8040500e:	853e                	mv	a0,a5
ffffffff80405010:	f2dfe0ef          	jal	ra,ffffffff80403f3c <get_attribute>
ffffffff80405014:	87aa                	mv	a5,a0
ffffffff80405016:	eb85                	bnez	a5,ffffffff80405046 <shm_page_dt+0xb4>
ffffffff80405018:	fe843783          	ld	a5,-24(s0)
ffffffff8040501c:	639c                	ld	a5,0(a5)
ffffffff8040501e:	10000593          	li	a1,256
ffffffff80405022:	853e                	mv	a0,a5
ffffffff80405024:	f19fe0ef          	jal	ra,ffffffff80403f3c <get_attribute>
ffffffff80405028:	87aa                	mv	a5,a0
ffffffff8040502a:	ef91                	bnez	a5,ffffffff80405046 <shm_page_dt+0xb4>
ffffffff8040502c:	00009617          	auipc	a2,0x9
ffffffff80405030:	9bc60613          	addi	a2,a2,-1604 # ffffffff8040d9e8 <__FUNCTION__.1957>
ffffffff80405034:	11000593          	li	a1,272
ffffffff80405038:	00009517          	auipc	a0,0x9
ffffffff8040503c:	98850513          	addi	a0,a0,-1656 # ffffffff8040d9c0 <__FUNCTION__.1237+0x58>
ffffffff80405040:	e0bfe0ef          	jal	ra,ffffffff80403e4a <_panic>
ffffffff80405044:	a01d                	j	ffffffff8040506a <shm_page_dt+0xd8>
ffffffff80405046:	fe843783          	ld	a5,-24(s0)
ffffffff8040504a:	639c                	ld	a5,0(a5)
ffffffff8040504c:	853e                	mv	a0,a5
ffffffff8040504e:	ea9fe0ef          	jal	ra,ffffffff80403ef6 <get_pfn>
ffffffff80405052:	87aa                	mv	a5,a0
ffffffff80405054:	07b2                	slli	a5,a5,0xc
ffffffff80405056:	853e                	mv	a0,a5
ffffffff80405058:	e83fe0ef          	jal	ra,ffffffff80403eda <pa2kva>
ffffffff8040505c:	872a                	mv	a4,a0
ffffffff8040505e:	fd043783          	ld	a5,-48(s0)
ffffffff80405062:	078e                	slli	a5,a5,0x3
ffffffff80405064:	97ba                	add	a5,a5,a4
ffffffff80405066:	fef43423          	sd	a5,-24(s0)
ffffffff8040506a:	fe843783          	ld	a5,-24(s0)
ffffffff8040506e:	639c                	ld	a5,0(a5)
ffffffff80405070:	4585                	li	a1,1
ffffffff80405072:	853e                	mv	a0,a5
ffffffff80405074:	ec9fe0ef          	jal	ra,ffffffff80403f3c <get_attribute>
ffffffff80405078:	87aa                	mv	a5,a0
ffffffff8040507a:	eb85                	bnez	a5,ffffffff804050aa <shm_page_dt+0x118>
ffffffff8040507c:	fe843783          	ld	a5,-24(s0)
ffffffff80405080:	639c                	ld	a5,0(a5)
ffffffff80405082:	10000593          	li	a1,256
ffffffff80405086:	853e                	mv	a0,a5
ffffffff80405088:	eb5fe0ef          	jal	ra,ffffffff80403f3c <get_attribute>
ffffffff8040508c:	87aa                	mv	a5,a0
ffffffff8040508e:	ef91                	bnez	a5,ffffffff804050aa <shm_page_dt+0x118>
ffffffff80405090:	00009617          	auipc	a2,0x9
ffffffff80405094:	95860613          	addi	a2,a2,-1704 # ffffffff8040d9e8 <__FUNCTION__.1957>
ffffffff80405098:	11200593          	li	a1,274
ffffffff8040509c:	00009517          	auipc	a0,0x9
ffffffff804050a0:	92450513          	addi	a0,a0,-1756 # ffffffff8040d9c0 <__FUNCTION__.1237+0x58>
ffffffff804050a4:	da7fe0ef          	jal	ra,ffffffff80403e4a <_panic>
ffffffff804050a8:	a01d                	j	ffffffff804050ce <shm_page_dt+0x13c>
ffffffff804050aa:	fe843783          	ld	a5,-24(s0)
ffffffff804050ae:	639c                	ld	a5,0(a5)
ffffffff804050b0:	853e                	mv	a0,a5
ffffffff804050b2:	e45fe0ef          	jal	ra,ffffffff80403ef6 <get_pfn>
ffffffff804050b6:	87aa                	mv	a5,a0
ffffffff804050b8:	07b2                	slli	a5,a5,0xc
ffffffff804050ba:	853e                	mv	a0,a5
ffffffff804050bc:	e1ffe0ef          	jal	ra,ffffffff80403eda <pa2kva>
ffffffff804050c0:	872a                	mv	a4,a0
ffffffff804050c2:	fc843783          	ld	a5,-56(s0)
ffffffff804050c6:	078e                	slli	a5,a5,0x3
ffffffff804050c8:	97ba                	add	a5,a5,a4
ffffffff804050ca:	fef43423          	sd	a5,-24(s0)
ffffffff804050ce:	fe843783          	ld	a5,-24(s0)
ffffffff804050d2:	639c                	ld	a5,0(a5)
ffffffff804050d4:	4585                	li	a1,1
ffffffff804050d6:	853e                	mv	a0,a5
ffffffff804050d8:	e65fe0ef          	jal	ra,ffffffff80403f3c <get_attribute>
ffffffff804050dc:	87aa                	mv	a5,a0
ffffffff804050de:	eb85                	bnez	a5,ffffffff8040510e <shm_page_dt+0x17c>
ffffffff804050e0:	fe843783          	ld	a5,-24(s0)
ffffffff804050e4:	639c                	ld	a5,0(a5)
ffffffff804050e6:	10000593          	li	a1,256
ffffffff804050ea:	853e                	mv	a0,a5
ffffffff804050ec:	e51fe0ef          	jal	ra,ffffffff80403f3c <get_attribute>
ffffffff804050f0:	87aa                	mv	a5,a0
ffffffff804050f2:	ef91                	bnez	a5,ffffffff8040510e <shm_page_dt+0x17c>
ffffffff804050f4:	00009617          	auipc	a2,0x9
ffffffff804050f8:	8f460613          	addi	a2,a2,-1804 # ffffffff8040d9e8 <__FUNCTION__.1957>
ffffffff804050fc:	11400593          	li	a1,276
ffffffff80405100:	00009517          	auipc	a0,0x9
ffffffff80405104:	8c050513          	addi	a0,a0,-1856 # ffffffff8040d9c0 <__FUNCTION__.1237+0x58>
ffffffff80405108:	d43fe0ef          	jal	ra,ffffffff80403e4a <_panic>
ffffffff8040510c:	a029                	j	ffffffff80405116 <shm_page_dt+0x184>
ffffffff8040510e:	fe843783          	ld	a5,-24(s0)
ffffffff80405112:	0007b023          	sd	zero,0(a5)
ffffffff80405116:	0001                	nop
ffffffff80405118:	60a6                	ld	ra,72(sp)
ffffffff8040511a:	6406                	ld	s0,64(sp)
ffffffff8040511c:	6161                	addi	sp,sp,80
ffffffff8040511e:	8082                	ret

ffffffff80405120 <mapping_page>:
ffffffff80405120:	7119                	addi	sp,sp,-128
ffffffff80405122:	fc86                	sd	ra,120(sp)
ffffffff80405124:	f8a2                	sd	s0,112(sp)
ffffffff80405126:	0100                	addi	s0,sp,128
ffffffff80405128:	f8a43c23          	sd	a0,-104(s0)
ffffffff8040512c:	f8b43823          	sd	a1,-112(s0)
ffffffff80405130:	f8c43423          	sd	a2,-120(s0)
ffffffff80405134:	f9843783          	ld	a5,-104(s0)
ffffffff80405138:	83f9                	srli	a5,a5,0x1e
ffffffff8040513a:	1ff7f793          	andi	a5,a5,511
ffffffff8040513e:	fef43023          	sd	a5,-32(s0)
ffffffff80405142:	f9843783          	ld	a5,-104(s0)
ffffffff80405146:	83d5                	srli	a5,a5,0x15
ffffffff80405148:	1ff7f793          	andi	a5,a5,511
ffffffff8040514c:	fcf43c23          	sd	a5,-40(s0)
ffffffff80405150:	f9843783          	ld	a5,-104(s0)
ffffffff80405154:	83b1                	srli	a5,a5,0xc
ffffffff80405156:	1ff7f793          	andi	a5,a5,511
ffffffff8040515a:	fcf43823          	sd	a5,-48(s0)
ffffffff8040515e:	fe043783          	ld	a5,-32(s0)
ffffffff80405162:	00379713          	slli	a4,a5,0x3
ffffffff80405166:	f8843783          	ld	a5,-120(s0)
ffffffff8040516a:	97ba                	add	a5,a5,a4
ffffffff8040516c:	fef43423          	sd	a5,-24(s0)
ffffffff80405170:	fe843783          	ld	a5,-24(s0)
ffffffff80405174:	639c                	ld	a5,0(a5)
ffffffff80405176:	4585                	li	a1,1
ffffffff80405178:	853e                	mv	a0,a5
ffffffff8040517a:	dc3fe0ef          	jal	ra,ffffffff80403f3c <get_attribute>
ffffffff8040517e:	87aa                	mv	a5,a0
ffffffff80405180:	e7ad                	bnez	a5,ffffffff804051ea <mapping_page+0xca>
ffffffff80405182:	fe843783          	ld	a5,-24(s0)
ffffffff80405186:	639c                	ld	a5,0(a5)
ffffffff80405188:	10000593          	li	a1,256
ffffffff8040518c:	853e                	mv	a0,a5
ffffffff8040518e:	daffe0ef          	jal	ra,ffffffff80403f3c <get_attribute>
ffffffff80405192:	87aa                	mv	a5,a0
ffffffff80405194:	ebb9                	bnez	a5,ffffffff804051ea <mapping_page+0xca>
ffffffff80405196:	93eff0ef          	jal	ra,ffffffff804042d4 <allocPage>
ffffffff8040519a:	fca43423          	sd	a0,-56(s0)
ffffffff8040519e:	fc843503          	ld	a0,-56(s0)
ffffffff804051a2:	8e6ff0ef          	jal	ra,ffffffff80404288 <clear_pgdir>
ffffffff804051a6:	fc843503          	ld	a0,-56(s0)
ffffffff804051aa:	d15fe0ef          	jal	ra,ffffffff80403ebe <kva2pa>
ffffffff804051ae:	87aa                	mv	a5,a0
ffffffff804051b0:	00c7d713          	srli	a4,a5,0xc
ffffffff804051b4:	080007b7          	lui	a5,0x8000
ffffffff804051b8:	17fd                	addi	a5,a5,-1
ffffffff804051ba:	8ff9                	and	a5,a5,a4
ffffffff804051bc:	fcf43023          	sd	a5,-64(s0)
ffffffff804051c0:	fc043583          	ld	a1,-64(s0)
ffffffff804051c4:	fe843503          	ld	a0,-24(s0)
ffffffff804051c8:	d47fe0ef          	jal	ra,ffffffff80403f0e <set_pfn>
ffffffff804051cc:	45c5                	li	a1,17
ffffffff804051ce:	fe843503          	ld	a0,-24(s0)
ffffffff804051d2:	d8bfe0ef          	jal	ra,ffffffff80403f5c <set_attribute>
ffffffff804051d6:	fd843783          	ld	a5,-40(s0)
ffffffff804051da:	00379713          	slli	a4,a5,0x3
ffffffff804051de:	fc843783          	ld	a5,-56(s0)
ffffffff804051e2:	97ba                	add	a5,a5,a4
ffffffff804051e4:	fef43423          	sd	a5,-24(s0)
ffffffff804051e8:	a01d                	j	ffffffff8040520e <mapping_page+0xee>
ffffffff804051ea:	fe843783          	ld	a5,-24(s0)
ffffffff804051ee:	639c                	ld	a5,0(a5)
ffffffff804051f0:	853e                	mv	a0,a5
ffffffff804051f2:	d05fe0ef          	jal	ra,ffffffff80403ef6 <get_pfn>
ffffffff804051f6:	87aa                	mv	a5,a0
ffffffff804051f8:	07b2                	slli	a5,a5,0xc
ffffffff804051fa:	853e                	mv	a0,a5
ffffffff804051fc:	cdffe0ef          	jal	ra,ffffffff80403eda <pa2kva>
ffffffff80405200:	872a                	mv	a4,a0
ffffffff80405202:	fd843783          	ld	a5,-40(s0)
ffffffff80405206:	078e                	slli	a5,a5,0x3
ffffffff80405208:	97ba                	add	a5,a5,a4
ffffffff8040520a:	fef43423          	sd	a5,-24(s0)
ffffffff8040520e:	fe843783          	ld	a5,-24(s0)
ffffffff80405212:	639c                	ld	a5,0(a5)
ffffffff80405214:	4585                	li	a1,1
ffffffff80405216:	853e                	mv	a0,a5
ffffffff80405218:	d25fe0ef          	jal	ra,ffffffff80403f3c <get_attribute>
ffffffff8040521c:	87aa                	mv	a5,a0
ffffffff8040521e:	e7ad                	bnez	a5,ffffffff80405288 <mapping_page+0x168>
ffffffff80405220:	fe843783          	ld	a5,-24(s0)
ffffffff80405224:	639c                	ld	a5,0(a5)
ffffffff80405226:	10000593          	li	a1,256
ffffffff8040522a:	853e                	mv	a0,a5
ffffffff8040522c:	d11fe0ef          	jal	ra,ffffffff80403f3c <get_attribute>
ffffffff80405230:	87aa                	mv	a5,a0
ffffffff80405232:	ebb9                	bnez	a5,ffffffff80405288 <mapping_page+0x168>
ffffffff80405234:	8a0ff0ef          	jal	ra,ffffffff804042d4 <allocPage>
ffffffff80405238:	faa43c23          	sd	a0,-72(s0)
ffffffff8040523c:	fb843503          	ld	a0,-72(s0)
ffffffff80405240:	848ff0ef          	jal	ra,ffffffff80404288 <clear_pgdir>
ffffffff80405244:	fb843503          	ld	a0,-72(s0)
ffffffff80405248:	c77fe0ef          	jal	ra,ffffffff80403ebe <kva2pa>
ffffffff8040524c:	87aa                	mv	a5,a0
ffffffff8040524e:	00c7d713          	srli	a4,a5,0xc
ffffffff80405252:	080007b7          	lui	a5,0x8000
ffffffff80405256:	17fd                	addi	a5,a5,-1
ffffffff80405258:	8ff9                	and	a5,a5,a4
ffffffff8040525a:	faf43823          	sd	a5,-80(s0)
ffffffff8040525e:	fb043583          	ld	a1,-80(s0)
ffffffff80405262:	fe843503          	ld	a0,-24(s0)
ffffffff80405266:	ca9fe0ef          	jal	ra,ffffffff80403f0e <set_pfn>
ffffffff8040526a:	45c5                	li	a1,17
ffffffff8040526c:	fe843503          	ld	a0,-24(s0)
ffffffff80405270:	cedfe0ef          	jal	ra,ffffffff80403f5c <set_attribute>
ffffffff80405274:	fd043783          	ld	a5,-48(s0)
ffffffff80405278:	00379713          	slli	a4,a5,0x3
ffffffff8040527c:	fb843783          	ld	a5,-72(s0)
ffffffff80405280:	97ba                	add	a5,a5,a4
ffffffff80405282:	fef43423          	sd	a5,-24(s0)
ffffffff80405286:	a01d                	j	ffffffff804052ac <mapping_page+0x18c>
ffffffff80405288:	fe843783          	ld	a5,-24(s0)
ffffffff8040528c:	639c                	ld	a5,0(a5)
ffffffff8040528e:	853e                	mv	a0,a5
ffffffff80405290:	c67fe0ef          	jal	ra,ffffffff80403ef6 <get_pfn>
ffffffff80405294:	87aa                	mv	a5,a0
ffffffff80405296:	07b2                	slli	a5,a5,0xc
ffffffff80405298:	853e                	mv	a0,a5
ffffffff8040529a:	c41fe0ef          	jal	ra,ffffffff80403eda <pa2kva>
ffffffff8040529e:	872a                	mv	a4,a0
ffffffff804052a0:	fd043783          	ld	a5,-48(s0)
ffffffff804052a4:	078e                	slli	a5,a5,0x3
ffffffff804052a6:	97ba                	add	a5,a5,a4
ffffffff804052a8:	fef43423          	sd	a5,-24(s0)
ffffffff804052ac:	f9043503          	ld	a0,-112(s0)
ffffffff804052b0:	c0ffe0ef          	jal	ra,ffffffff80403ebe <kva2pa>
ffffffff804052b4:	87aa                	mv	a5,a0
ffffffff804052b6:	00c7d713          	srli	a4,a5,0xc
ffffffff804052ba:	080007b7          	lui	a5,0x8000
ffffffff804052be:	17fd                	addi	a5,a5,-1
ffffffff804052c0:	8ff9                	and	a5,a5,a4
ffffffff804052c2:	faf43423          	sd	a5,-88(s0)
ffffffff804052c6:	fa843583          	ld	a1,-88(s0)
ffffffff804052ca:	fe843503          	ld	a0,-24(s0)
ffffffff804052ce:	c41fe0ef          	jal	ra,ffffffff80403f0e <set_pfn>
ffffffff804052d2:	21700593          	li	a1,535
ffffffff804052d6:	fe843503          	ld	a0,-24(s0)
ffffffff804052da:	c83fe0ef          	jal	ra,ffffffff80403f5c <set_attribute>
ffffffff804052de:	0001                	nop
ffffffff804052e0:	70e6                	ld	ra,120(sp)
ffffffff804052e2:	7446                	ld	s0,112(sp)
ffffffff804052e4:	6109                	addi	sp,sp,128
ffffffff804052e6:	8082                	ret

ffffffff804052e8 <free_all_pages>:
ffffffff804052e8:	715d                	addi	sp,sp,-80
ffffffff804052ea:	e486                	sd	ra,72(sp)
ffffffff804052ec:	e0a2                	sd	s0,64(sp)
ffffffff804052ee:	0880                	addi	s0,sp,80
ffffffff804052f0:	faa43c23          	sd	a0,-72(s0)
ffffffff804052f4:	fab43823          	sd	a1,-80(s0)
ffffffff804052f8:	000807b7          	lui	a5,0x80
ffffffff804052fc:	30078613          	addi	a2,a5,768 # 80300 <_start-0xffffffff8037fd00>
ffffffff80405300:	4581                	li	a1,0
ffffffff80405302:	4521                	li	a0,8
ffffffff80405304:	b79fe0ef          	jal	ra,ffffffff80403e7c <set_satp>
ffffffff80405308:	fe042623          	sw	zero,-20(s0)
ffffffff8040530c:	aa85                	j	ffffffff8040547c <free_all_pages+0x194>
ffffffff8040530e:	fec46783          	lwu	a5,-20(s0)
ffffffff80405312:	00379713          	slli	a4,a5,0x3
ffffffff80405316:	fb843783          	ld	a5,-72(s0)
ffffffff8040531a:	97ba                	add	a5,a5,a4
ffffffff8040531c:	fcf43c23          	sd	a5,-40(s0)
ffffffff80405320:	fd843783          	ld	a5,-40(s0)
ffffffff80405324:	639c                	ld	a5,0(a5)
ffffffff80405326:	4585                	li	a1,1
ffffffff80405328:	853e                	mv	a0,a5
ffffffff8040532a:	c13fe0ef          	jal	ra,ffffffff80403f3c <get_attribute>
ffffffff8040532e:	87aa                	mv	a5,a0
ffffffff80405330:	14078163          	beqz	a5,ffffffff80405472 <free_all_pages+0x18a>
ffffffff80405334:	fd843783          	ld	a5,-40(s0)
ffffffff80405338:	639c                	ld	a5,0(a5)
ffffffff8040533a:	45c1                	li	a1,16
ffffffff8040533c:	853e                	mv	a0,a5
ffffffff8040533e:	bfffe0ef          	jal	ra,ffffffff80403f3c <get_attribute>
ffffffff80405342:	87aa                	mv	a5,a0
ffffffff80405344:	12078763          	beqz	a5,ffffffff80405472 <free_all_pages+0x18a>
ffffffff80405348:	fe042423          	sw	zero,-24(s0)
ffffffff8040534c:	a8e5                	j	ffffffff80405444 <free_all_pages+0x15c>
ffffffff8040534e:	fd843783          	ld	a5,-40(s0)
ffffffff80405352:	639c                	ld	a5,0(a5)
ffffffff80405354:	853e                	mv	a0,a5
ffffffff80405356:	ba1fe0ef          	jal	ra,ffffffff80403ef6 <get_pfn>
ffffffff8040535a:	87aa                	mv	a5,a0
ffffffff8040535c:	07b2                	slli	a5,a5,0xc
ffffffff8040535e:	853e                	mv	a0,a5
ffffffff80405360:	b7bfe0ef          	jal	ra,ffffffff80403eda <pa2kva>
ffffffff80405364:	872a                	mv	a4,a0
ffffffff80405366:	fe846783          	lwu	a5,-24(s0)
ffffffff8040536a:	078e                	slli	a5,a5,0x3
ffffffff8040536c:	97ba                	add	a5,a5,a4
ffffffff8040536e:	fcf43823          	sd	a5,-48(s0)
ffffffff80405372:	fd043783          	ld	a5,-48(s0)
ffffffff80405376:	639c                	ld	a5,0(a5)
ffffffff80405378:	4585                	li	a1,1
ffffffff8040537a:	853e                	mv	a0,a5
ffffffff8040537c:	bc1fe0ef          	jal	ra,ffffffff80403f3c <get_attribute>
ffffffff80405380:	87aa                	mv	a5,a0
ffffffff80405382:	cfc5                	beqz	a5,ffffffff8040543a <free_all_pages+0x152>
ffffffff80405384:	fd043783          	ld	a5,-48(s0)
ffffffff80405388:	639c                	ld	a5,0(a5)
ffffffff8040538a:	45c1                	li	a1,16
ffffffff8040538c:	853e                	mv	a0,a5
ffffffff8040538e:	baffe0ef          	jal	ra,ffffffff80403f3c <get_attribute>
ffffffff80405392:	87aa                	mv	a5,a0
ffffffff80405394:	c3dd                	beqz	a5,ffffffff8040543a <free_all_pages+0x152>
ffffffff80405396:	fe042223          	sw	zero,-28(s0)
ffffffff8040539a:	a88d                	j	ffffffff8040540c <free_all_pages+0x124>
ffffffff8040539c:	fd043783          	ld	a5,-48(s0)
ffffffff804053a0:	639c                	ld	a5,0(a5)
ffffffff804053a2:	853e                	mv	a0,a5
ffffffff804053a4:	b53fe0ef          	jal	ra,ffffffff80403ef6 <get_pfn>
ffffffff804053a8:	87aa                	mv	a5,a0
ffffffff804053aa:	07b2                	slli	a5,a5,0xc
ffffffff804053ac:	853e                	mv	a0,a5
ffffffff804053ae:	b2dfe0ef          	jal	ra,ffffffff80403eda <pa2kva>
ffffffff804053b2:	872a                	mv	a4,a0
ffffffff804053b4:	fe446783          	lwu	a5,-28(s0)
ffffffff804053b8:	078e                	slli	a5,a5,0x3
ffffffff804053ba:	97ba                	add	a5,a5,a4
ffffffff804053bc:	fcf43423          	sd	a5,-56(s0)
ffffffff804053c0:	fc843783          	ld	a5,-56(s0)
ffffffff804053c4:	639c                	ld	a5,0(a5)
ffffffff804053c6:	4585                	li	a1,1
ffffffff804053c8:	853e                	mv	a0,a5
ffffffff804053ca:	b73fe0ef          	jal	ra,ffffffff80403f3c <get_attribute>
ffffffff804053ce:	87aa                	mv	a5,a0
ffffffff804053d0:	cb8d                	beqz	a5,ffffffff80405402 <free_all_pages+0x11a>
ffffffff804053d2:	fc843783          	ld	a5,-56(s0)
ffffffff804053d6:	639c                	ld	a5,0(a5)
ffffffff804053d8:	45c1                	li	a1,16
ffffffff804053da:	853e                	mv	a0,a5
ffffffff804053dc:	b61fe0ef          	jal	ra,ffffffff80403f3c <get_attribute>
ffffffff804053e0:	87aa                	mv	a5,a0
ffffffff804053e2:	c385                	beqz	a5,ffffffff80405402 <free_all_pages+0x11a>
ffffffff804053e4:	fc843783          	ld	a5,-56(s0)
ffffffff804053e8:	639c                	ld	a5,0(a5)
ffffffff804053ea:	853e                	mv	a0,a5
ffffffff804053ec:	b0bfe0ef          	jal	ra,ffffffff80403ef6 <get_pfn>
ffffffff804053f0:	87aa                	mv	a5,a0
ffffffff804053f2:	07b2                	slli	a5,a5,0xc
ffffffff804053f4:	853e                	mv	a0,a5
ffffffff804053f6:	ae5fe0ef          	jal	ra,ffffffff80403eda <pa2kva>
ffffffff804053fa:	87aa                	mv	a5,a0
ffffffff804053fc:	853e                	mv	a0,a5
ffffffff804053fe:	f62ff0ef          	jal	ra,ffffffff80404b60 <freePage>
ffffffff80405402:	fe442783          	lw	a5,-28(s0)
ffffffff80405406:	2785                	addiw	a5,a5,1
ffffffff80405408:	fef42223          	sw	a5,-28(s0)
ffffffff8040540c:	fe442783          	lw	a5,-28(s0)
ffffffff80405410:	0007871b          	sext.w	a4,a5
ffffffff80405414:	1ff00793          	li	a5,511
ffffffff80405418:	f8e7f2e3          	bgeu	a5,a4,ffffffff8040539c <free_all_pages+0xb4>
ffffffff8040541c:	fd043783          	ld	a5,-48(s0)
ffffffff80405420:	639c                	ld	a5,0(a5)
ffffffff80405422:	853e                	mv	a0,a5
ffffffff80405424:	ad3fe0ef          	jal	ra,ffffffff80403ef6 <get_pfn>
ffffffff80405428:	87aa                	mv	a5,a0
ffffffff8040542a:	07b2                	slli	a5,a5,0xc
ffffffff8040542c:	853e                	mv	a0,a5
ffffffff8040542e:	aadfe0ef          	jal	ra,ffffffff80403eda <pa2kva>
ffffffff80405432:	87aa                	mv	a5,a0
ffffffff80405434:	853e                	mv	a0,a5
ffffffff80405436:	f2aff0ef          	jal	ra,ffffffff80404b60 <freePage>
ffffffff8040543a:	fe842783          	lw	a5,-24(s0)
ffffffff8040543e:	2785                	addiw	a5,a5,1
ffffffff80405440:	fef42423          	sw	a5,-24(s0)
ffffffff80405444:	fe842783          	lw	a5,-24(s0)
ffffffff80405448:	0007871b          	sext.w	a4,a5
ffffffff8040544c:	1ff00793          	li	a5,511
ffffffff80405450:	eee7ffe3          	bgeu	a5,a4,ffffffff8040534e <free_all_pages+0x66>
ffffffff80405454:	fd843783          	ld	a5,-40(s0)
ffffffff80405458:	639c                	ld	a5,0(a5)
ffffffff8040545a:	853e                	mv	a0,a5
ffffffff8040545c:	a9bfe0ef          	jal	ra,ffffffff80403ef6 <get_pfn>
ffffffff80405460:	87aa                	mv	a5,a0
ffffffff80405462:	07b2                	slli	a5,a5,0xc
ffffffff80405464:	853e                	mv	a0,a5
ffffffff80405466:	a75fe0ef          	jal	ra,ffffffff80403eda <pa2kva>
ffffffff8040546a:	87aa                	mv	a5,a0
ffffffff8040546c:	853e                	mv	a0,a5
ffffffff8040546e:	ef2ff0ef          	jal	ra,ffffffff80404b60 <freePage>
ffffffff80405472:	fec42783          	lw	a5,-20(s0)
ffffffff80405476:	2785                	addiw	a5,a5,1
ffffffff80405478:	fef42623          	sw	a5,-20(s0)
ffffffff8040547c:	fec42783          	lw	a5,-20(s0)
ffffffff80405480:	0007871b          	sext.w	a4,a5
ffffffff80405484:	1ff00793          	li	a5,511
ffffffff80405488:	e8e7f3e3          	bgeu	a5,a4,ffffffff8040530e <free_all_pages+0x26>
ffffffff8040548c:	fb843503          	ld	a0,-72(s0)
ffffffff80405490:	ed0ff0ef          	jal	ra,ffffffff80404b60 <freePage>
ffffffff80405494:	fb043503          	ld	a0,-80(s0)
ffffffff80405498:	ec8ff0ef          	jal	ra,ffffffff80404b60 <freePage>
ffffffff8040549c:	0001                	nop
ffffffff8040549e:	60a6                	ld	ra,72(sp)
ffffffff804054a0:	6406                	ld	s0,64(sp)
ffffffff804054a2:	6161                	addi	sp,sp,80
ffffffff804054a4:	8082                	ret

ffffffff804054a6 <share_pgtable>:
ffffffff804054a6:	715d                	addi	sp,sp,-80
ffffffff804054a8:	e486                	sd	ra,72(sp)
ffffffff804054aa:	e0a2                	sd	s0,64(sp)
ffffffff804054ac:	0880                	addi	s0,sp,80
ffffffff804054ae:	faa43c23          	sd	a0,-72(s0)
ffffffff804054b2:	fab43823          	sd	a1,-80(s0)
ffffffff804054b6:	fb843783          	ld	a5,-72(s0)
ffffffff804054ba:	fef43023          	sd	a5,-32(s0)
ffffffff804054be:	fb043783          	ld	a5,-80(s0)
ffffffff804054c2:	fcf43c23          	sd	a5,-40(s0)
ffffffff804054c6:	fe042623          	sw	zero,-20(s0)
ffffffff804054ca:	a8b1                	j	ffffffff80405526 <share_pgtable+0x80>
ffffffff804054cc:	fec42783          	lw	a5,-20(s0)
ffffffff804054d0:	078e                	slli	a5,a5,0x3
ffffffff804054d2:	fd843703          	ld	a4,-40(s0)
ffffffff804054d6:	97ba                	add	a5,a5,a4
ffffffff804054d8:	fcf43823          	sd	a5,-48(s0)
ffffffff804054dc:	fec42783          	lw	a5,-20(s0)
ffffffff804054e0:	078e                	slli	a5,a5,0x3
ffffffff804054e2:	fe043703          	ld	a4,-32(s0)
ffffffff804054e6:	97ba                	add	a5,a5,a4
ffffffff804054e8:	fcf43423          	sd	a5,-56(s0)
ffffffff804054ec:	fd043783          	ld	a5,-48(s0)
ffffffff804054f0:	639c                	ld	a5,0(a5)
ffffffff804054f2:	4585                	li	a1,1
ffffffff804054f4:	853e                	mv	a0,a5
ffffffff804054f6:	a47fe0ef          	jal	ra,ffffffff80403f3c <get_attribute>
ffffffff804054fa:	87aa                	mv	a5,a0
ffffffff804054fc:	c385                	beqz	a5,ffffffff8040551c <share_pgtable+0x76>
ffffffff804054fe:	fc843783          	ld	a5,-56(s0)
ffffffff80405502:	639c                	ld	a5,0(a5)
ffffffff80405504:	4585                	li	a1,1
ffffffff80405506:	853e                	mv	a0,a5
ffffffff80405508:	a35fe0ef          	jal	ra,ffffffff80403f3c <get_attribute>
ffffffff8040550c:	87aa                	mv	a5,a0
ffffffff8040550e:	e799                	bnez	a5,ffffffff8040551c <share_pgtable+0x76>
ffffffff80405510:	fd043783          	ld	a5,-48(s0)
ffffffff80405514:	6398                	ld	a4,0(a5)
ffffffff80405516:	fc843783          	ld	a5,-56(s0)
ffffffff8040551a:	e398                	sd	a4,0(a5)
ffffffff8040551c:	fec42783          	lw	a5,-20(s0)
ffffffff80405520:	2785                	addiw	a5,a5,1
ffffffff80405522:	fef42623          	sw	a5,-20(s0)
ffffffff80405526:	fec42783          	lw	a5,-20(s0)
ffffffff8040552a:	0007871b          	sext.w	a4,a5
ffffffff8040552e:	1ff00793          	li	a5,511
ffffffff80405532:	f8e7dde3          	bge	a5,a4,ffffffff804054cc <share_pgtable+0x26>
ffffffff80405536:	0001                	nop
ffffffff80405538:	60a6                	ld	ra,72(sp)
ffffffff8040553a:	6406                	ld	s0,64(sp)
ffffffff8040553c:	6161                	addi	sp,sp,80
ffffffff8040553e:	8082                	ret

ffffffff80405540 <alloc_page_helper>:
ffffffff80405540:	7175                	addi	sp,sp,-144
ffffffff80405542:	e506                	sd	ra,136(sp)
ffffffff80405544:	e122                	sd	s0,128(sp)
ffffffff80405546:	0900                	addi	s0,sp,144
ffffffff80405548:	f8a43423          	sd	a0,-120(s0)
ffffffff8040554c:	f8b43023          	sd	a1,-128(s0)
ffffffff80405550:	f6c43c23          	sd	a2,-136(s0)
ffffffff80405554:	f8843783          	ld	a5,-120(s0)
ffffffff80405558:	83f9                	srli	a5,a5,0x1e
ffffffff8040555a:	1ff7f793          	andi	a5,a5,511
ffffffff8040555e:	fcf43c23          	sd	a5,-40(s0)
ffffffff80405562:	f8843783          	ld	a5,-120(s0)
ffffffff80405566:	83d5                	srli	a5,a5,0x15
ffffffff80405568:	1ff7f793          	andi	a5,a5,511
ffffffff8040556c:	fcf43823          	sd	a5,-48(s0)
ffffffff80405570:	f8843783          	ld	a5,-120(s0)
ffffffff80405574:	83b1                	srli	a5,a5,0xc
ffffffff80405576:	1ff7f793          	andi	a5,a5,511
ffffffff8040557a:	fcf43423          	sd	a5,-56(s0)
ffffffff8040557e:	fd843783          	ld	a5,-40(s0)
ffffffff80405582:	00379713          	slli	a4,a5,0x3
ffffffff80405586:	f8043783          	ld	a5,-128(s0)
ffffffff8040558a:	97ba                	add	a5,a5,a4
ffffffff8040558c:	fef43423          	sd	a5,-24(s0)
ffffffff80405590:	fe843783          	ld	a5,-24(s0)
ffffffff80405594:	639c                	ld	a5,0(a5)
ffffffff80405596:	4585                	li	a1,1
ffffffff80405598:	853e                	mv	a0,a5
ffffffff8040559a:	9a3fe0ef          	jal	ra,ffffffff80403f3c <get_attribute>
ffffffff8040559e:	87aa                	mv	a5,a0
ffffffff804055a0:	e7a5                	bnez	a5,ffffffff80405608 <alloc_page_helper+0xc8>
ffffffff804055a2:	fe843783          	ld	a5,-24(s0)
ffffffff804055a6:	639c                	ld	a5,0(a5)
ffffffff804055a8:	4585                	li	a1,1
ffffffff804055aa:	853e                	mv	a0,a5
ffffffff804055ac:	991fe0ef          	jal	ra,ffffffff80403f3c <get_attribute>
ffffffff804055b0:	87aa                	mv	a5,a0
ffffffff804055b2:	ebb9                	bnez	a5,ffffffff80405608 <alloc_page_helper+0xc8>
ffffffff804055b4:	d21fe0ef          	jal	ra,ffffffff804042d4 <allocPage>
ffffffff804055b8:	fca43023          	sd	a0,-64(s0)
ffffffff804055bc:	fc043503          	ld	a0,-64(s0)
ffffffff804055c0:	cc9fe0ef          	jal	ra,ffffffff80404288 <clear_pgdir>
ffffffff804055c4:	fc043503          	ld	a0,-64(s0)
ffffffff804055c8:	8f7fe0ef          	jal	ra,ffffffff80403ebe <kva2pa>
ffffffff804055cc:	87aa                	mv	a5,a0
ffffffff804055ce:	00c7d713          	srli	a4,a5,0xc
ffffffff804055d2:	080007b7          	lui	a5,0x8000
ffffffff804055d6:	17fd                	addi	a5,a5,-1
ffffffff804055d8:	8ff9                	and	a5,a5,a4
ffffffff804055da:	faf43c23          	sd	a5,-72(s0)
ffffffff804055de:	fb843583          	ld	a1,-72(s0)
ffffffff804055e2:	fe843503          	ld	a0,-24(s0)
ffffffff804055e6:	929fe0ef          	jal	ra,ffffffff80403f0e <set_pfn>
ffffffff804055ea:	45c5                	li	a1,17
ffffffff804055ec:	fe843503          	ld	a0,-24(s0)
ffffffff804055f0:	96dfe0ef          	jal	ra,ffffffff80403f5c <set_attribute>
ffffffff804055f4:	fd043783          	ld	a5,-48(s0)
ffffffff804055f8:	00379713          	slli	a4,a5,0x3
ffffffff804055fc:	fc043783          	ld	a5,-64(s0)
ffffffff80405600:	97ba                	add	a5,a5,a4
ffffffff80405602:	fef43423          	sd	a5,-24(s0)
ffffffff80405606:	a01d                	j	ffffffff8040562c <alloc_page_helper+0xec>
ffffffff80405608:	fe843783          	ld	a5,-24(s0)
ffffffff8040560c:	639c                	ld	a5,0(a5)
ffffffff8040560e:	853e                	mv	a0,a5
ffffffff80405610:	8e7fe0ef          	jal	ra,ffffffff80403ef6 <get_pfn>
ffffffff80405614:	87aa                	mv	a5,a0
ffffffff80405616:	07b2                	slli	a5,a5,0xc
ffffffff80405618:	853e                	mv	a0,a5
ffffffff8040561a:	8c1fe0ef          	jal	ra,ffffffff80403eda <pa2kva>
ffffffff8040561e:	872a                	mv	a4,a0
ffffffff80405620:	fd043783          	ld	a5,-48(s0)
ffffffff80405624:	078e                	slli	a5,a5,0x3
ffffffff80405626:	97ba                	add	a5,a5,a4
ffffffff80405628:	fef43423          	sd	a5,-24(s0)
ffffffff8040562c:	fe843783          	ld	a5,-24(s0)
ffffffff80405630:	639c                	ld	a5,0(a5)
ffffffff80405632:	4585                	li	a1,1
ffffffff80405634:	853e                	mv	a0,a5
ffffffff80405636:	907fe0ef          	jal	ra,ffffffff80403f3c <get_attribute>
ffffffff8040563a:	87aa                	mv	a5,a0
ffffffff8040563c:	e7a5                	bnez	a5,ffffffff804056a4 <alloc_page_helper+0x164>
ffffffff8040563e:	fe843783          	ld	a5,-24(s0)
ffffffff80405642:	639c                	ld	a5,0(a5)
ffffffff80405644:	4585                	li	a1,1
ffffffff80405646:	853e                	mv	a0,a5
ffffffff80405648:	8f5fe0ef          	jal	ra,ffffffff80403f3c <get_attribute>
ffffffff8040564c:	87aa                	mv	a5,a0
ffffffff8040564e:	ebb9                	bnez	a5,ffffffff804056a4 <alloc_page_helper+0x164>
ffffffff80405650:	c85fe0ef          	jal	ra,ffffffff804042d4 <allocPage>
ffffffff80405654:	faa43823          	sd	a0,-80(s0)
ffffffff80405658:	fb043503          	ld	a0,-80(s0)
ffffffff8040565c:	c2dfe0ef          	jal	ra,ffffffff80404288 <clear_pgdir>
ffffffff80405660:	fb043503          	ld	a0,-80(s0)
ffffffff80405664:	85bfe0ef          	jal	ra,ffffffff80403ebe <kva2pa>
ffffffff80405668:	87aa                	mv	a5,a0
ffffffff8040566a:	00c7d713          	srli	a4,a5,0xc
ffffffff8040566e:	080007b7          	lui	a5,0x8000
ffffffff80405672:	17fd                	addi	a5,a5,-1
ffffffff80405674:	8ff9                	and	a5,a5,a4
ffffffff80405676:	faf43423          	sd	a5,-88(s0)
ffffffff8040567a:	fa843583          	ld	a1,-88(s0)
ffffffff8040567e:	fe843503          	ld	a0,-24(s0)
ffffffff80405682:	88dfe0ef          	jal	ra,ffffffff80403f0e <set_pfn>
ffffffff80405686:	45c5                	li	a1,17
ffffffff80405688:	fe843503          	ld	a0,-24(s0)
ffffffff8040568c:	8d1fe0ef          	jal	ra,ffffffff80403f5c <set_attribute>
ffffffff80405690:	fc843783          	ld	a5,-56(s0)
ffffffff80405694:	00379713          	slli	a4,a5,0x3
ffffffff80405698:	fb043783          	ld	a5,-80(s0)
ffffffff8040569c:	97ba                	add	a5,a5,a4
ffffffff8040569e:	fef43423          	sd	a5,-24(s0)
ffffffff804056a2:	a01d                	j	ffffffff804056c8 <alloc_page_helper+0x188>
ffffffff804056a4:	fe843783          	ld	a5,-24(s0)
ffffffff804056a8:	639c                	ld	a5,0(a5)
ffffffff804056aa:	853e                	mv	a0,a5
ffffffff804056ac:	84bfe0ef          	jal	ra,ffffffff80403ef6 <get_pfn>
ffffffff804056b0:	87aa                	mv	a5,a0
ffffffff804056b2:	07b2                	slli	a5,a5,0xc
ffffffff804056b4:	853e                	mv	a0,a5
ffffffff804056b6:	825fe0ef          	jal	ra,ffffffff80403eda <pa2kva>
ffffffff804056ba:	872a                	mv	a4,a0
ffffffff804056bc:	fc843783          	ld	a5,-56(s0)
ffffffff804056c0:	078e                	slli	a5,a5,0x3
ffffffff804056c2:	97ba                	add	a5,a5,a4
ffffffff804056c4:	fef43423          	sd	a5,-24(s0)
ffffffff804056c8:	fe843783          	ld	a5,-24(s0)
ffffffff804056cc:	639c                	ld	a5,0(a5)
ffffffff804056ce:	4585                	li	a1,1
ffffffff804056d0:	853e                	mv	a0,a5
ffffffff804056d2:	86bfe0ef          	jal	ra,ffffffff80403f3c <get_attribute>
ffffffff804056d6:	87aa                	mv	a5,a0
ffffffff804056d8:	e3bd                	bnez	a5,ffffffff8040573e <alloc_page_helper+0x1fe>
ffffffff804056da:	fe843783          	ld	a5,-24(s0)
ffffffff804056de:	639c                	ld	a5,0(a5)
ffffffff804056e0:	4585                	li	a1,1
ffffffff804056e2:	853e                	mv	a0,a5
ffffffff804056e4:	859fe0ef          	jal	ra,ffffffff80403f3c <get_attribute>
ffffffff804056e8:	87aa                	mv	a5,a0
ffffffff804056ea:	ebb1                	bnez	a5,ffffffff8040573e <alloc_page_helper+0x1fe>
ffffffff804056ec:	be9fe0ef          	jal	ra,ffffffff804042d4 <allocPage>
ffffffff804056f0:	faa43023          	sd	a0,-96(s0)
ffffffff804056f4:	fa043503          	ld	a0,-96(s0)
ffffffff804056f8:	b91fe0ef          	jal	ra,ffffffff80404288 <clear_pgdir>
ffffffff804056fc:	fa043503          	ld	a0,-96(s0)
ffffffff80405700:	fbefe0ef          	jal	ra,ffffffff80403ebe <kva2pa>
ffffffff80405704:	87aa                	mv	a5,a0
ffffffff80405706:	00c7d713          	srli	a4,a5,0xc
ffffffff8040570a:	080007b7          	lui	a5,0x8000
ffffffff8040570e:	17fd                	addi	a5,a5,-1
ffffffff80405710:	8ff9                	and	a5,a5,a4
ffffffff80405712:	f8f43c23          	sd	a5,-104(s0)
ffffffff80405716:	f9843583          	ld	a1,-104(s0)
ffffffff8040571a:	fe843503          	ld	a0,-24(s0)
ffffffff8040571e:	ff0fe0ef          	jal	ra,ffffffff80403f0e <set_pfn>
ffffffff80405722:	f7843783          	ld	a5,-136(s0)
ffffffff80405726:	0117e793          	ori	a5,a5,17
ffffffff8040572a:	85be                	mv	a1,a5
ffffffff8040572c:	fe843503          	ld	a0,-24(s0)
ffffffff80405730:	82dfe0ef          	jal	ra,ffffffff80403f5c <set_attribute>
ffffffff80405734:	fa043783          	ld	a5,-96(s0)
ffffffff80405738:	fef43023          	sd	a5,-32(s0)
ffffffff8040573c:	a831                	j	ffffffff80405758 <alloc_page_helper+0x218>
ffffffff8040573e:	fe843783          	ld	a5,-24(s0)
ffffffff80405742:	639c                	ld	a5,0(a5)
ffffffff80405744:	853e                	mv	a0,a5
ffffffff80405746:	fb0fe0ef          	jal	ra,ffffffff80403ef6 <get_pfn>
ffffffff8040574a:	87aa                	mv	a5,a0
ffffffff8040574c:	07b2                	slli	a5,a5,0xc
ffffffff8040574e:	853e                	mv	a0,a5
ffffffff80405750:	f8afe0ef          	jal	ra,ffffffff80403eda <pa2kva>
ffffffff80405754:	fea43023          	sd	a0,-32(s0)
ffffffff80405758:	fe043783          	ld	a5,-32(s0)
ffffffff8040575c:	853e                	mv	a0,a5
ffffffff8040575e:	60aa                	ld	ra,136(sp)
ffffffff80405760:	640a                	ld	s0,128(sp)
ffffffff80405762:	6149                	addi	sp,sp,144
ffffffff80405764:	8082                	ret

ffffffff80405766 <directmap>:
ffffffff80405766:	1101                	addi	sp,sp,-32
ffffffff80405768:	ec22                	sd	s0,24(sp)
ffffffff8040576a:	1000                	addi	s0,sp,32
ffffffff8040576c:	fea43423          	sd	a0,-24(s0)
ffffffff80405770:	feb43023          	sd	a1,-32(s0)
ffffffff80405774:	fe843783          	ld	a5,-24(s0)
ffffffff80405778:	853e                	mv	a0,a5
ffffffff8040577a:	6462                	ld	s0,24(sp)
ffffffff8040577c:	6105                	addi	sp,sp,32
ffffffff8040577e:	8082                	ret

ffffffff80405780 <kalloc>:
ffffffff80405780:	1141                	addi	sp,sp,-16
ffffffff80405782:	e406                	sd	ra,8(sp)
ffffffff80405784:	e022                	sd	s0,0(sp)
ffffffff80405786:	0800                	addi	s0,sp,16
ffffffff80405788:	b4dfe0ef          	jal	ra,ffffffff804042d4 <allocPage>
ffffffff8040578c:	87aa                	mv	a5,a0
ffffffff8040578e:	853e                	mv	a0,a5
ffffffff80405790:	60a2                	ld	ra,8(sp)
ffffffff80405792:	6402                	ld	s0,0(sp)
ffffffff80405794:	0141                	addi	sp,sp,16
ffffffff80405796:	8082                	ret

ffffffff80405798 <kfree>:
ffffffff80405798:	1101                	addi	sp,sp,-32
ffffffff8040579a:	ec06                	sd	ra,24(sp)
ffffffff8040579c:	e822                	sd	s0,16(sp)
ffffffff8040579e:	1000                	addi	s0,sp,32
ffffffff804057a0:	fea43423          	sd	a0,-24(s0)
ffffffff804057a4:	fe843783          	ld	a5,-24(s0)
ffffffff804057a8:	853e                	mv	a0,a5
ffffffff804057aa:	bb6ff0ef          	jal	ra,ffffffff80404b60 <freePage>
ffffffff804057ae:	0001                	nop
ffffffff804057b0:	60e2                	ld	ra,24(sp)
ffffffff804057b2:	6442                	ld	s0,16(sp)
ffffffff804057b4:	6105                	addi	sp,sp,32
ffffffff804057b6:	8082                	ret

ffffffff804057b8 <allocproc>:
ffffffff804057b8:	1141                	addi	sp,sp,-16
ffffffff804057ba:	e422                	sd	s0,8(sp)
ffffffff804057bc:	0800                	addi	s0,sp,16
ffffffff804057be:	802007b7          	lui	a5,0x80200
ffffffff804057c2:	853e                	mv	a0,a5
ffffffff804057c4:	6422                	ld	s0,8(sp)
ffffffff804057c6:	0141                	addi	sp,sp,16
ffffffff804057c8:	8082                	ret

ffffffff804057ca <allocfree>:
ffffffff804057ca:	1141                	addi	sp,sp,-16
ffffffff804057cc:	e422                	sd	s0,8(sp)
ffffffff804057ce:	0800                	addi	s0,sp,16
ffffffff804057d0:	0001                	nop
ffffffff804057d2:	6422                	ld	s0,8(sp)
ffffffff804057d4:	0141                	addi	sp,sp,16
ffffffff804057d6:	8082                	ret

ffffffff804057d8 <local_flush_tlb_all>:
ffffffff804057d8:	1141                	addi	sp,sp,-16
ffffffff804057da:	e422                	sd	s0,8(sp)
ffffffff804057dc:	0800                	addi	s0,sp,16
ffffffff804057de:	0ff0000f          	fence
ffffffff804057e2:	0000100f          	fence.i
ffffffff804057e6:	12000073          	sfence.vma
ffffffff804057ea:	0ff0000f          	fence
ffffffff804057ee:	0000100f          	fence.i
ffffffff804057f2:	0001                	nop
ffffffff804057f4:	6422                	ld	s0,8(sp)
ffffffff804057f6:	0141                	addi	sp,sp,16
ffffffff804057f8:	8082                	ret

ffffffff804057fa <kva2pa>:
ffffffff804057fa:	1101                	addi	sp,sp,-32
ffffffff804057fc:	ec22                	sd	s0,24(sp)
ffffffff804057fe:	1000                	addi	s0,sp,32
ffffffff80405800:	fea43423          	sd	a0,-24(s0)
ffffffff80405804:	fe843703          	ld	a4,-24(s0)
ffffffff80405808:	4785                	li	a5,1
ffffffff8040580a:	1782                	slli	a5,a5,0x20
ffffffff8040580c:	97ba                	add	a5,a5,a4
ffffffff8040580e:	853e                	mv	a0,a5
ffffffff80405810:	6462                	ld	s0,24(sp)
ffffffff80405812:	6105                	addi	sp,sp,32
ffffffff80405814:	8082                	ret

ffffffff80405816 <pa2kva>:
ffffffff80405816:	1101                	addi	sp,sp,-32
ffffffff80405818:	ec22                	sd	s0,24(sp)
ffffffff8040581a:	1000                	addi	s0,sp,32
ffffffff8040581c:	fea43423          	sd	a0,-24(s0)
ffffffff80405820:	fe843703          	ld	a4,-24(s0)
ffffffff80405824:	57fd                	li	a5,-1
ffffffff80405826:	1782                	slli	a5,a5,0x20
ffffffff80405828:	97ba                	add	a5,a5,a4
ffffffff8040582a:	853e                	mv	a0,a5
ffffffff8040582c:	6462                	ld	s0,24(sp)
ffffffff8040582e:	6105                	addi	sp,sp,32
ffffffff80405830:	8082                	ret

ffffffff80405832 <get_pfn>:
ffffffff80405832:	1101                	addi	sp,sp,-32
ffffffff80405834:	ec22                	sd	s0,24(sp)
ffffffff80405836:	1000                	addi	s0,sp,32
ffffffff80405838:	fea43423          	sd	a0,-24(s0)
ffffffff8040583c:	fe843783          	ld	a5,-24(s0)
ffffffff80405840:	83a9                	srli	a5,a5,0xa
ffffffff80405842:	853e                	mv	a0,a5
ffffffff80405844:	6462                	ld	s0,24(sp)
ffffffff80405846:	6105                	addi	sp,sp,32
ffffffff80405848:	8082                	ret

ffffffff8040584a <set_pfn>:
ffffffff8040584a:	1101                	addi	sp,sp,-32
ffffffff8040584c:	ec22                	sd	s0,24(sp)
ffffffff8040584e:	1000                	addi	s0,sp,32
ffffffff80405850:	fea43423          	sd	a0,-24(s0)
ffffffff80405854:	feb43023          	sd	a1,-32(s0)
ffffffff80405858:	fe843783          	ld	a5,-24(s0)
ffffffff8040585c:	639c                	ld	a5,0(a5)
ffffffff8040585e:	3ff7f713          	andi	a4,a5,1023
ffffffff80405862:	fe043783          	ld	a5,-32(s0)
ffffffff80405866:	07aa                	slli	a5,a5,0xa
ffffffff80405868:	8f5d                	or	a4,a4,a5
ffffffff8040586a:	fe843783          	ld	a5,-24(s0)
ffffffff8040586e:	e398                	sd	a4,0(a5)
ffffffff80405870:	0001                	nop
ffffffff80405872:	6462                	ld	s0,24(sp)
ffffffff80405874:	6105                	addi	sp,sp,32
ffffffff80405876:	8082                	ret

ffffffff80405878 <get_attribute>:
ffffffff80405878:	1101                	addi	sp,sp,-32
ffffffff8040587a:	ec22                	sd	s0,24(sp)
ffffffff8040587c:	1000                	addi	s0,sp,32
ffffffff8040587e:	fea43423          	sd	a0,-24(s0)
ffffffff80405882:	feb43023          	sd	a1,-32(s0)
ffffffff80405886:	fe843703          	ld	a4,-24(s0)
ffffffff8040588a:	fe043783          	ld	a5,-32(s0)
ffffffff8040588e:	8ff9                	and	a5,a5,a4
ffffffff80405890:	853e                	mv	a0,a5
ffffffff80405892:	6462                	ld	s0,24(sp)
ffffffff80405894:	6105                	addi	sp,sp,32
ffffffff80405896:	8082                	ret

ffffffff80405898 <set_attribute>:
ffffffff80405898:	1101                	addi	sp,sp,-32
ffffffff8040589a:	ec22                	sd	s0,24(sp)
ffffffff8040589c:	1000                	addi	s0,sp,32
ffffffff8040589e:	fea43423          	sd	a0,-24(s0)
ffffffff804058a2:	feb43023          	sd	a1,-32(s0)
ffffffff804058a6:	fe843783          	ld	a5,-24(s0)
ffffffff804058aa:	6398                	ld	a4,0(a5)
ffffffff804058ac:	fe043783          	ld	a5,-32(s0)
ffffffff804058b0:	8f5d                	or	a4,a4,a5
ffffffff804058b2:	fe843783          	ld	a5,-24(s0)
ffffffff804058b6:	e398                	sd	a4,0(a5)
ffffffff804058b8:	0001                	nop
ffffffff804058ba:	6462                	ld	s0,24(sp)
ffffffff804058bc:	6105                	addi	sp,sp,32
ffffffff804058be:	8082                	ret

ffffffff804058c0 <clear_pgdir>:
ffffffff804058c0:	7179                	addi	sp,sp,-48
ffffffff804058c2:	f422                	sd	s0,40(sp)
ffffffff804058c4:	1800                	addi	s0,sp,48
ffffffff804058c6:	fca43c23          	sd	a0,-40(s0)
ffffffff804058ca:	fd843783          	ld	a5,-40(s0)
ffffffff804058ce:	fef43423          	sd	a5,-24(s0)
ffffffff804058d2:	fe042223          	sw	zero,-28(s0)
ffffffff804058d6:	a839                	j	ffffffff804058f4 <clear_pgdir+0x34>
ffffffff804058d8:	fe843783          	ld	a5,-24(s0)
ffffffff804058dc:	0007b023          	sd	zero,0(a5) # ffffffff80200000 <_start-0x200000>
ffffffff804058e0:	fe843783          	ld	a5,-24(s0)
ffffffff804058e4:	07a1                	addi	a5,a5,8
ffffffff804058e6:	fef43423          	sd	a5,-24(s0)
ffffffff804058ea:	fe442783          	lw	a5,-28(s0)
ffffffff804058ee:	2785                	addiw	a5,a5,1
ffffffff804058f0:	fef42223          	sw	a5,-28(s0)
ffffffff804058f4:	fe442783          	lw	a5,-28(s0)
ffffffff804058f8:	0007871b          	sext.w	a4,a5
ffffffff804058fc:	1ff00793          	li	a5,511
ffffffff80405900:	fce7dce3          	bge	a5,a4,ffffffff804058d8 <clear_pgdir+0x18>
ffffffff80405904:	0001                	nop
ffffffff80405906:	7422                	ld	s0,40(sp)
ffffffff80405908:	6145                	addi	sp,sp,48
ffffffff8040590a:	8082                	ret

ffffffff8040590c <alloc_page>:
ffffffff8040590c:	1141                	addi	sp,sp,-16
ffffffff8040590e:	e422                	sd	s0,8(sp)
ffffffff80405910:	0800                	addi	s0,sp,16
ffffffff80405912:	00013797          	auipc	a5,0x13
ffffffff80405916:	d5e78793          	addi	a5,a5,-674 # ffffffff80418670 <pgtable_base>
ffffffff8040591a:	6398                	ld	a4,0(a5)
ffffffff8040591c:	6785                	lui	a5,0x1
ffffffff8040591e:	973e                	add	a4,a4,a5
ffffffff80405920:	00013797          	auipc	a5,0x13
ffffffff80405924:	d5078793          	addi	a5,a5,-688 # ffffffff80418670 <pgtable_base>
ffffffff80405928:	e398                	sd	a4,0(a5)
ffffffff8040592a:	00013797          	auipc	a5,0x13
ffffffff8040592e:	d4678793          	addi	a5,a5,-698 # ffffffff80418670 <pgtable_base>
ffffffff80405932:	639c                	ld	a5,0(a5)
ffffffff80405934:	853e                	mv	a0,a5
ffffffff80405936:	6422                	ld	s0,8(sp)
ffffffff80405938:	0141                	addi	sp,sp,16
ffffffff8040593a:	8082                	ret

ffffffff8040593c <map_page>:
ffffffff8040593c:	711d                	addi	sp,sp,-96
ffffffff8040593e:	ec86                	sd	ra,88(sp)
ffffffff80405940:	e8a2                	sd	s0,80(sp)
ffffffff80405942:	1080                	addi	s0,sp,96
ffffffff80405944:	faa43c23          	sd	a0,-72(s0)
ffffffff80405948:	fab43823          	sd	a1,-80(s0)
ffffffff8040594c:	fac43423          	sd	a2,-88(s0)
ffffffff80405950:	fb843783          	ld	a5,-72(s0)
ffffffff80405954:	83f9                	srli	a5,a5,0x1e
ffffffff80405956:	1ff7f793          	andi	a5,a5,511
ffffffff8040595a:	fef43023          	sd	a5,-32(s0)
ffffffff8040595e:	fb043783          	ld	a5,-80(s0)
ffffffff80405962:	83d5                	srli	a5,a5,0x15
ffffffff80405964:	fcf43c23          	sd	a5,-40(s0)
ffffffff80405968:	fb843783          	ld	a5,-72(s0)
ffffffff8040596c:	83d5                	srli	a5,a5,0x15
ffffffff8040596e:	1ff7f793          	andi	a5,a5,511
ffffffff80405972:	fcf43823          	sd	a5,-48(s0)
ffffffff80405976:	fe043783          	ld	a5,-32(s0)
ffffffff8040597a:	078e                	slli	a5,a5,0x3
ffffffff8040597c:	fa843703          	ld	a4,-88(s0)
ffffffff80405980:	97ba                	add	a5,a5,a4
ffffffff80405982:	fef43423          	sd	a5,-24(s0)
ffffffff80405986:	fe843783          	ld	a5,-24(s0)
ffffffff8040598a:	639c                	ld	a5,0(a5)
ffffffff8040598c:	4585                	li	a1,1
ffffffff8040598e:	853e                	mv	a0,a5
ffffffff80405990:	ee9ff0ef          	jal	ra,ffffffff80405878 <get_attribute>
ffffffff80405994:	87aa                	mv	a5,a0
ffffffff80405996:	e7b9                	bnez	a5,ffffffff804059e4 <map_page+0xa8>
ffffffff80405998:	f75ff0ef          	jal	ra,ffffffff8040590c <alloc_page>
ffffffff8040599c:	fca43423          	sd	a0,-56(s0)
ffffffff804059a0:	fc843503          	ld	a0,-56(s0)
ffffffff804059a4:	f1dff0ef          	jal	ra,ffffffff804058c0 <clear_pgdir>
ffffffff804059a8:	fc843503          	ld	a0,-56(s0)
ffffffff804059ac:	e4fff0ef          	jal	ra,ffffffff804057fa <kva2pa>
ffffffff804059b0:	87aa                	mv	a5,a0
ffffffff804059b2:	83b1                	srli	a5,a5,0xc
ffffffff804059b4:	fcf43023          	sd	a5,-64(s0)
ffffffff804059b8:	fc043583          	ld	a1,-64(s0)
ffffffff804059bc:	fe843503          	ld	a0,-24(s0)
ffffffff804059c0:	e8bff0ef          	jal	ra,ffffffff8040584a <set_pfn>
ffffffff804059c4:	0c100593          	li	a1,193
ffffffff804059c8:	fe843503          	ld	a0,-24(s0)
ffffffff804059cc:	ecdff0ef          	jal	ra,ffffffff80405898 <set_attribute>
ffffffff804059d0:	fd043783          	ld	a5,-48(s0)
ffffffff804059d4:	00379713          	slli	a4,a5,0x3
ffffffff804059d8:	fc843783          	ld	a5,-56(s0)
ffffffff804059dc:	97ba                	add	a5,a5,a4
ffffffff804059de:	fef43423          	sd	a5,-24(s0)
ffffffff804059e2:	a01d                	j	ffffffff80405a08 <map_page+0xcc>
ffffffff804059e4:	fe843783          	ld	a5,-24(s0)
ffffffff804059e8:	639c                	ld	a5,0(a5)
ffffffff804059ea:	853e                	mv	a0,a5
ffffffff804059ec:	e47ff0ef          	jal	ra,ffffffff80405832 <get_pfn>
ffffffff804059f0:	87aa                	mv	a5,a0
ffffffff804059f2:	07b2                	slli	a5,a5,0xc
ffffffff804059f4:	853e                	mv	a0,a5
ffffffff804059f6:	e21ff0ef          	jal	ra,ffffffff80405816 <pa2kva>
ffffffff804059fa:	872a                	mv	a4,a0
ffffffff804059fc:	fd043783          	ld	a5,-48(s0)
ffffffff80405a00:	078e                	slli	a5,a5,0x3
ffffffff80405a02:	97ba                	add	a5,a5,a4
ffffffff80405a04:	fef43423          	sd	a5,-24(s0)
ffffffff80405a08:	fd843783          	ld	a5,-40(s0)
ffffffff80405a0c:	07a6                	slli	a5,a5,0x9
ffffffff80405a0e:	85be                	mv	a1,a5
ffffffff80405a10:	fe843503          	ld	a0,-24(s0)
ffffffff80405a14:	e37ff0ef          	jal	ra,ffffffff8040584a <set_pfn>
ffffffff80405a18:	0cf00593          	li	a1,207
ffffffff80405a1c:	fe843503          	ld	a0,-24(s0)
ffffffff80405a20:	e79ff0ef          	jal	ra,ffffffff80405898 <set_attribute>
ffffffff80405a24:	0001                	nop
ffffffff80405a26:	60e6                	ld	ra,88(sp)
ffffffff80405a28:	6446                	ld	s0,80(sp)
ffffffff80405a2a:	6125                	addi	sp,sp,96
ffffffff80405a2c:	8082                	ret

ffffffff80405a2e <ioremap>:
ffffffff80405a2e:	7139                	addi	sp,sp,-64
ffffffff80405a30:	fc06                	sd	ra,56(sp)
ffffffff80405a32:	f822                	sd	s0,48(sp)
ffffffff80405a34:	f426                	sd	s1,40(sp)
ffffffff80405a36:	f04a                	sd	s2,32(sp)
ffffffff80405a38:	0080                	addi	s0,sp,64
ffffffff80405a3a:	fca43423          	sd	a0,-56(s0)
ffffffff80405a3e:	fcb43023          	sd	a1,-64(s0)
ffffffff80405a42:	fc043703          	ld	a4,-64(s0)
ffffffff80405a46:	002007b7          	lui	a5,0x200
ffffffff80405a4a:	17fd                	addi	a5,a5,-1
ffffffff80405a4c:	97ba                	add	a5,a5,a4
ffffffff80405a4e:	83d5                	srli	a5,a5,0x15
ffffffff80405a50:	fcf43823          	sd	a5,-48(s0)
ffffffff80405a54:	fc043c23          	sd	zero,-40(s0)
ffffffff80405a58:	a0a9                	j	ffffffff80405aa2 <ioremap+0x74>
ffffffff80405a5a:	fd843783          	ld	a5,-40(s0)
ffffffff80405a5e:	01579713          	slli	a4,a5,0x15
ffffffff80405a62:	fc843783          	ld	a5,-56(s0)
ffffffff80405a66:	00f704b3          	add	s1,a4,a5
ffffffff80405a6a:	fd843783          	ld	a5,-40(s0)
ffffffff80405a6e:	01579713          	slli	a4,a5,0x15
ffffffff80405a72:	fc843783          	ld	a5,-56(s0)
ffffffff80405a76:	973e                	add	a4,a4,a5
ffffffff80405a78:	57fd                	li	a5,-1
ffffffff80405a7a:	9381                	srli	a5,a5,0x20
ffffffff80405a7c:	00f77933          	and	s2,a4,a5
ffffffff80405a80:	008037b7          	lui	a5,0x803
ffffffff80405a84:	00879513          	slli	a0,a5,0x8
ffffffff80405a88:	d8fff0ef          	jal	ra,ffffffff80405816 <pa2kva>
ffffffff80405a8c:	87aa                	mv	a5,a0
ffffffff80405a8e:	863e                	mv	a2,a5
ffffffff80405a90:	85ca                	mv	a1,s2
ffffffff80405a92:	8526                	mv	a0,s1
ffffffff80405a94:	ea9ff0ef          	jal	ra,ffffffff8040593c <map_page>
ffffffff80405a98:	fd843783          	ld	a5,-40(s0)
ffffffff80405a9c:	0785                	addi	a5,a5,1
ffffffff80405a9e:	fcf43c23          	sd	a5,-40(s0)
ffffffff80405aa2:	fd843703          	ld	a4,-40(s0)
ffffffff80405aa6:	fd043783          	ld	a5,-48(s0)
ffffffff80405aaa:	faf768e3          	bltu	a4,a5,ffffffff80405a5a <ioremap+0x2c>
ffffffff80405aae:	d2bff0ef          	jal	ra,ffffffff804057d8 <local_flush_tlb_all>
ffffffff80405ab2:	0001                	nop
ffffffff80405ab4:	0001                	nop
ffffffff80405ab6:	853e                	mv	a0,a5
ffffffff80405ab8:	70e2                	ld	ra,56(sp)
ffffffff80405aba:	7442                	ld	s0,48(sp)
ffffffff80405abc:	74a2                	ld	s1,40(sp)
ffffffff80405abe:	7902                	ld	s2,32(sp)
ffffffff80405ac0:	6121                	addi	sp,sp,64
ffffffff80405ac2:	8082                	ret

ffffffff80405ac4 <iounmap>:
ffffffff80405ac4:	1101                	addi	sp,sp,-32
ffffffff80405ac6:	ec22                	sd	s0,24(sp)
ffffffff80405ac8:	1000                	addi	s0,sp,32
ffffffff80405aca:	fea43423          	sd	a0,-24(s0)
ffffffff80405ace:	0001                	nop
ffffffff80405ad0:	6462                	ld	s0,24(sp)
ffffffff80405ad2:	6105                	addi	sp,sp,32
ffffffff80405ad4:	8082                	ret

ffffffff80405ad6 <handle_syscall>:
ffffffff80405ad6:	7179                	addi	sp,sp,-48
ffffffff80405ad8:	f406                	sd	ra,40(sp)
ffffffff80405ada:	f022                	sd	s0,32(sp)
ffffffff80405adc:	1800                	addi	s0,sp,48
ffffffff80405ade:	fea43423          	sd	a0,-24(s0)
ffffffff80405ae2:	feb43023          	sd	a1,-32(s0)
ffffffff80405ae6:	fcc43c23          	sd	a2,-40(s0)
ffffffff80405aea:	fe843783          	ld	a5,-24(s0)
ffffffff80405aee:	1087b783          	ld	a5,264(a5) # 803108 <_start-0xffffffff7fbfcef8>
ffffffff80405af2:	00478713          	addi	a4,a5,4
ffffffff80405af6:	fe843783          	ld	a5,-24(s0)
ffffffff80405afa:	10e7b423          	sd	a4,264(a5)
ffffffff80405afe:	fe843783          	ld	a5,-24(s0)
ffffffff80405b02:	67dc                	ld	a5,136(a5)
ffffffff80405b04:	0001d717          	auipc	a4,0x1d
ffffffff80405b08:	b8c70713          	addi	a4,a4,-1140 # ffffffff80422690 <syscall>
ffffffff80405b0c:	078e                	slli	a5,a5,0x3
ffffffff80405b0e:	97ba                	add	a5,a5,a4
ffffffff80405b10:	0007b803          	ld	a6,0(a5)
ffffffff80405b14:	fe843783          	ld	a5,-24(s0)
ffffffff80405b18:	6bb8                	ld	a4,80(a5)
ffffffff80405b1a:	fe843783          	ld	a5,-24(s0)
ffffffff80405b1e:	6fb4                	ld	a3,88(a5)
ffffffff80405b20:	fe843783          	ld	a5,-24(s0)
ffffffff80405b24:	73bc                	ld	a5,96(a5)
ffffffff80405b26:	863e                	mv	a2,a5
ffffffff80405b28:	85b6                	mv	a1,a3
ffffffff80405b2a:	853a                	mv	a0,a4
ffffffff80405b2c:	9802                	jalr	a6
ffffffff80405b2e:	87aa                	mv	a5,a0
ffffffff80405b30:	873e                	mv	a4,a5
ffffffff80405b32:	fe843783          	ld	a5,-24(s0)
ffffffff80405b36:	ebb8                	sd	a4,80(a5)
ffffffff80405b38:	0001                	nop
ffffffff80405b3a:	70a2                	ld	ra,40(sp)
ffffffff80405b3c:	7402                	ld	s0,32(sp)
ffffffff80405b3e:	6145                	addi	sp,sp,48
ffffffff80405b40:	8082                	ret

ffffffff80405b42 <strlen>:
ffffffff80405b42:	7179                	addi	sp,sp,-48
ffffffff80405b44:	f422                	sd	s0,40(sp)
ffffffff80405b46:	1800                	addi	s0,sp,48
ffffffff80405b48:	fca43c23          	sd	a0,-40(s0)
ffffffff80405b4c:	fe042623          	sw	zero,-20(s0)
ffffffff80405b50:	a031                	j	ffffffff80405b5c <strlen+0x1a>
ffffffff80405b52:	fec42783          	lw	a5,-20(s0)
ffffffff80405b56:	2785                	addiw	a5,a5,1
ffffffff80405b58:	fef42623          	sw	a5,-20(s0)
ffffffff80405b5c:	fec42783          	lw	a5,-20(s0)
ffffffff80405b60:	fd843703          	ld	a4,-40(s0)
ffffffff80405b64:	97ba                	add	a5,a5,a4
ffffffff80405b66:	0007c783          	lbu	a5,0(a5)
ffffffff80405b6a:	f7e5                	bnez	a5,ffffffff80405b52 <strlen+0x10>
ffffffff80405b6c:	fec42783          	lw	a5,-20(s0)
ffffffff80405b70:	853e                	mv	a0,a5
ffffffff80405b72:	7422                	ld	s0,40(sp)
ffffffff80405b74:	6145                	addi	sp,sp,48
ffffffff80405b76:	8082                	ret

ffffffff80405b78 <memcpy>:
ffffffff80405b78:	7179                	addi	sp,sp,-48
ffffffff80405b7a:	f422                	sd	s0,40(sp)
ffffffff80405b7c:	1800                	addi	s0,sp,48
ffffffff80405b7e:	fea43423          	sd	a0,-24(s0)
ffffffff80405b82:	feb43023          	sd	a1,-32(s0)
ffffffff80405b86:	87b2                	mv	a5,a2
ffffffff80405b88:	fcf42e23          	sw	a5,-36(s0)
ffffffff80405b8c:	a035                	j	ffffffff80405bb8 <memcpy+0x40>
ffffffff80405b8e:	fe043703          	ld	a4,-32(s0)
ffffffff80405b92:	00170793          	addi	a5,a4,1
ffffffff80405b96:	fef43023          	sd	a5,-32(s0)
ffffffff80405b9a:	fe843783          	ld	a5,-24(s0)
ffffffff80405b9e:	00178693          	addi	a3,a5,1
ffffffff80405ba2:	fed43423          	sd	a3,-24(s0)
ffffffff80405ba6:	00074703          	lbu	a4,0(a4)
ffffffff80405baa:	00e78023          	sb	a4,0(a5)
ffffffff80405bae:	fdc42783          	lw	a5,-36(s0)
ffffffff80405bb2:	37fd                	addiw	a5,a5,-1
ffffffff80405bb4:	fcf42e23          	sw	a5,-36(s0)
ffffffff80405bb8:	fdc42783          	lw	a5,-36(s0)
ffffffff80405bbc:	2781                	sext.w	a5,a5
ffffffff80405bbe:	fbe1                	bnez	a5,ffffffff80405b8e <memcpy+0x16>
ffffffff80405bc0:	0001                	nop
ffffffff80405bc2:	7422                	ld	s0,40(sp)
ffffffff80405bc4:	6145                	addi	sp,sp,48
ffffffff80405bc6:	8082                	ret

ffffffff80405bc8 <memcmp>:
ffffffff80405bc8:	7139                	addi	sp,sp,-64
ffffffff80405bca:	fc22                	sd	s0,56(sp)
ffffffff80405bcc:	0080                	addi	s0,sp,64
ffffffff80405bce:	fca43c23          	sd	a0,-40(s0)
ffffffff80405bd2:	fcb43823          	sd	a1,-48(s0)
ffffffff80405bd6:	fcc43423          	sd	a2,-56(s0)
ffffffff80405bda:	fe042623          	sw	zero,-20(s0)
ffffffff80405bde:	a8a1                	j	ffffffff80405c36 <memcmp+0x6e>
ffffffff80405be0:	fec42783          	lw	a5,-20(s0)
ffffffff80405be4:	fd843703          	ld	a4,-40(s0)
ffffffff80405be8:	97ba                	add	a5,a5,a4
ffffffff80405bea:	0007c683          	lbu	a3,0(a5)
ffffffff80405bee:	fec42783          	lw	a5,-20(s0)
ffffffff80405bf2:	fd043703          	ld	a4,-48(s0)
ffffffff80405bf6:	97ba                	add	a5,a5,a4
ffffffff80405bf8:	0007c783          	lbu	a5,0(a5)
ffffffff80405bfc:	8736                	mv	a4,a3
ffffffff80405bfe:	02f70763          	beq	a4,a5,ffffffff80405c2c <memcmp+0x64>
ffffffff80405c02:	fec42783          	lw	a5,-20(s0)
ffffffff80405c06:	fd843703          	ld	a4,-40(s0)
ffffffff80405c0a:	97ba                	add	a5,a5,a4
ffffffff80405c0c:	0007c783          	lbu	a5,0(a5)
ffffffff80405c10:	0007871b          	sext.w	a4,a5
ffffffff80405c14:	fec42783          	lw	a5,-20(s0)
ffffffff80405c18:	fd043683          	ld	a3,-48(s0)
ffffffff80405c1c:	97b6                	add	a5,a5,a3
ffffffff80405c1e:	0007c783          	lbu	a5,0(a5)
ffffffff80405c22:	2781                	sext.w	a5,a5
ffffffff80405c24:	40f707bb          	subw	a5,a4,a5
ffffffff80405c28:	2781                	sext.w	a5,a5
ffffffff80405c2a:	a829                	j	ffffffff80405c44 <memcmp+0x7c>
ffffffff80405c2c:	fec42783          	lw	a5,-20(s0)
ffffffff80405c30:	2785                	addiw	a5,a5,1
ffffffff80405c32:	fef42623          	sw	a5,-20(s0)
ffffffff80405c36:	fec42783          	lw	a5,-20(s0)
ffffffff80405c3a:	fc843703          	ld	a4,-56(s0)
ffffffff80405c3e:	fae7e1e3          	bltu	a5,a4,ffffffff80405be0 <memcmp+0x18>
ffffffff80405c42:	4781                	li	a5,0
ffffffff80405c44:	853e                	mv	a0,a5
ffffffff80405c46:	7462                	ld	s0,56(sp)
ffffffff80405c48:	6121                	addi	sp,sp,64
ffffffff80405c4a:	8082                	ret

ffffffff80405c4c <memmove>:
ffffffff80405c4c:	715d                	addi	sp,sp,-80
ffffffff80405c4e:	e4a2                	sd	s0,72(sp)
ffffffff80405c50:	0880                	addi	s0,sp,80
ffffffff80405c52:	fca43423          	sd	a0,-56(s0)
ffffffff80405c56:	fcb43023          	sd	a1,-64(s0)
ffffffff80405c5a:	fac42e23          	sw	a2,-68(s0)
ffffffff80405c5e:	860a                	mv	a2,sp
ffffffff80405c60:	8532                	mv	a0,a2
ffffffff80405c62:	fbc42603          	lw	a2,-68(s0)
ffffffff80405c66:	02061593          	slli	a1,a2,0x20
ffffffff80405c6a:	9181                	srli	a1,a1,0x20
ffffffff80405c6c:	15fd                	addi	a1,a1,-1
ffffffff80405c6e:	feb43423          	sd	a1,-24(s0)
ffffffff80405c72:	02061593          	slli	a1,a2,0x20
ffffffff80405c76:	9181                	srli	a1,a1,0x20
ffffffff80405c78:	8e2e                	mv	t3,a1
ffffffff80405c7a:	4e81                	li	t4,0
ffffffff80405c7c:	03de5593          	srli	a1,t3,0x3d
ffffffff80405c80:	003e9713          	slli	a4,t4,0x3
ffffffff80405c84:	8f4d                	or	a4,a4,a1
ffffffff80405c86:	003e1693          	slli	a3,t3,0x3
ffffffff80405c8a:	02061713          	slli	a4,a2,0x20
ffffffff80405c8e:	9301                	srli	a4,a4,0x20
ffffffff80405c90:	833a                	mv	t1,a4
ffffffff80405c92:	4381                	li	t2,0
ffffffff80405c94:	03d35713          	srli	a4,t1,0x3d
ffffffff80405c98:	00339813          	slli	a6,t2,0x3
ffffffff80405c9c:	01076833          	or	a6,a4,a6
ffffffff80405ca0:	00331793          	slli	a5,t1,0x3
ffffffff80405ca4:	02061793          	slli	a5,a2,0x20
ffffffff80405ca8:	9381                	srli	a5,a5,0x20
ffffffff80405caa:	07bd                	addi	a5,a5,15
ffffffff80405cac:	8391                	srli	a5,a5,0x4
ffffffff80405cae:	0792                	slli	a5,a5,0x4
ffffffff80405cb0:	40f10133          	sub	sp,sp,a5
ffffffff80405cb4:	878a                	mv	a5,sp
ffffffff80405cb6:	00078793          	mv	a5,a5
ffffffff80405cba:	fef43023          	sd	a5,-32(s0)
ffffffff80405cbe:	fc042e23          	sw	zero,-36(s0)
ffffffff80405cc2:	a02d                	j	ffffffff80405cec <memmove+0xa0>
ffffffff80405cc4:	fc043783          	ld	a5,-64(s0)
ffffffff80405cc8:	00178713          	addi	a4,a5,1
ffffffff80405ccc:	fce43023          	sd	a4,-64(s0)
ffffffff80405cd0:	0007c703          	lbu	a4,0(a5)
ffffffff80405cd4:	fe043683          	ld	a3,-32(s0)
ffffffff80405cd8:	fdc42783          	lw	a5,-36(s0)
ffffffff80405cdc:	97b6                	add	a5,a5,a3
ffffffff80405cde:	00e78023          	sb	a4,0(a5)
ffffffff80405ce2:	fbc42783          	lw	a5,-68(s0)
ffffffff80405ce6:	37fd                	addiw	a5,a5,-1
ffffffff80405ce8:	faf42e23          	sw	a5,-68(s0)
ffffffff80405cec:	fbc42783          	lw	a5,-68(s0)
ffffffff80405cf0:	2781                	sext.w	a5,a5
ffffffff80405cf2:	fbe9                	bnez	a5,ffffffff80405cc4 <memmove+0x78>
ffffffff80405cf4:	a02d                	j	ffffffff80405d1e <memmove+0xd2>
ffffffff80405cf6:	fc843783          	ld	a5,-56(s0)
ffffffff80405cfa:	00178713          	addi	a4,a5,1
ffffffff80405cfe:	fce43423          	sd	a4,-56(s0)
ffffffff80405d02:	fe043683          	ld	a3,-32(s0)
ffffffff80405d06:	fdc42703          	lw	a4,-36(s0)
ffffffff80405d0a:	9736                	add	a4,a4,a3
ffffffff80405d0c:	00074703          	lbu	a4,0(a4)
ffffffff80405d10:	00e78023          	sb	a4,0(a5)
ffffffff80405d14:	fbc42783          	lw	a5,-68(s0)
ffffffff80405d18:	37fd                	addiw	a5,a5,-1
ffffffff80405d1a:	faf42e23          	sw	a5,-68(s0)
ffffffff80405d1e:	fbc42783          	lw	a5,-68(s0)
ffffffff80405d22:	2781                	sext.w	a5,a5
ffffffff80405d24:	fbe9                	bnez	a5,ffffffff80405cf6 <memmove+0xaa>
ffffffff80405d26:	812a                	mv	sp,a0
ffffffff80405d28:	0001                	nop
ffffffff80405d2a:	fb040113          	addi	sp,s0,-80
ffffffff80405d2e:	6426                	ld	s0,72(sp)
ffffffff80405d30:	6161                	addi	sp,sp,80
ffffffff80405d32:	8082                	ret

ffffffff80405d34 <memset>:
ffffffff80405d34:	7179                	addi	sp,sp,-48
ffffffff80405d36:	f422                	sd	s0,40(sp)
ffffffff80405d38:	1800                	addi	s0,sp,48
ffffffff80405d3a:	fca43c23          	sd	a0,-40(s0)
ffffffff80405d3e:	87ae                	mv	a5,a1
ffffffff80405d40:	8732                	mv	a4,a2
ffffffff80405d42:	fcf40ba3          	sb	a5,-41(s0)
ffffffff80405d46:	87ba                	mv	a5,a4
ffffffff80405d48:	fcf42823          	sw	a5,-48(s0)
ffffffff80405d4c:	fd843783          	ld	a5,-40(s0)
ffffffff80405d50:	fef43423          	sd	a5,-24(s0)
ffffffff80405d54:	a005                	j	ffffffff80405d74 <memset+0x40>
ffffffff80405d56:	fe843783          	ld	a5,-24(s0)
ffffffff80405d5a:	00178713          	addi	a4,a5,1
ffffffff80405d5e:	fee43423          	sd	a4,-24(s0)
ffffffff80405d62:	fd744703          	lbu	a4,-41(s0)
ffffffff80405d66:	00e78023          	sb	a4,0(a5)
ffffffff80405d6a:	fd042783          	lw	a5,-48(s0)
ffffffff80405d6e:	37fd                	addiw	a5,a5,-1
ffffffff80405d70:	fcf42823          	sw	a5,-48(s0)
ffffffff80405d74:	fd042783          	lw	a5,-48(s0)
ffffffff80405d78:	2781                	sext.w	a5,a5
ffffffff80405d7a:	fff1                	bnez	a5,ffffffff80405d56 <memset+0x22>
ffffffff80405d7c:	0001                	nop
ffffffff80405d7e:	7422                	ld	s0,40(sp)
ffffffff80405d80:	6145                	addi	sp,sp,48
ffffffff80405d82:	8082                	ret

ffffffff80405d84 <bzero>:
ffffffff80405d84:	1101                	addi	sp,sp,-32
ffffffff80405d86:	ec06                	sd	ra,24(sp)
ffffffff80405d88:	e822                	sd	s0,16(sp)
ffffffff80405d8a:	1000                	addi	s0,sp,32
ffffffff80405d8c:	fea43423          	sd	a0,-24(s0)
ffffffff80405d90:	87ae                	mv	a5,a1
ffffffff80405d92:	fef42223          	sw	a5,-28(s0)
ffffffff80405d96:	fe442783          	lw	a5,-28(s0)
ffffffff80405d9a:	863e                	mv	a2,a5
ffffffff80405d9c:	4581                	li	a1,0
ffffffff80405d9e:	fe843503          	ld	a0,-24(s0)
ffffffff80405da2:	f93ff0ef          	jal	ra,ffffffff80405d34 <memset>
ffffffff80405da6:	0001                	nop
ffffffff80405da8:	60e2                	ld	ra,24(sp)
ffffffff80405daa:	6442                	ld	s0,16(sp)
ffffffff80405dac:	6105                	addi	sp,sp,32
ffffffff80405dae:	8082                	ret

ffffffff80405db0 <strcmp>:
ffffffff80405db0:	1101                	addi	sp,sp,-32
ffffffff80405db2:	ec22                	sd	s0,24(sp)
ffffffff80405db4:	1000                	addi	s0,sp,32
ffffffff80405db6:	fea43423          	sd	a0,-24(s0)
ffffffff80405dba:	feb43023          	sd	a1,-32(s0)
ffffffff80405dbe:	a0a1                	j	ffffffff80405e06 <strcmp+0x56>
ffffffff80405dc0:	fe843783          	ld	a5,-24(s0)
ffffffff80405dc4:	0007c703          	lbu	a4,0(a5)
ffffffff80405dc8:	fe043783          	ld	a5,-32(s0)
ffffffff80405dcc:	0007c783          	lbu	a5,0(a5)
ffffffff80405dd0:	02f70163          	beq	a4,a5,ffffffff80405df2 <strcmp+0x42>
ffffffff80405dd4:	fe843783          	ld	a5,-24(s0)
ffffffff80405dd8:	0007c783          	lbu	a5,0(a5)
ffffffff80405ddc:	0007871b          	sext.w	a4,a5
ffffffff80405de0:	fe043783          	ld	a5,-32(s0)
ffffffff80405de4:	0007c783          	lbu	a5,0(a5)
ffffffff80405de8:	2781                	sext.w	a5,a5
ffffffff80405dea:	40f707bb          	subw	a5,a4,a5
ffffffff80405dee:	2781                	sext.w	a5,a5
ffffffff80405df0:	a099                	j	ffffffff80405e36 <strcmp+0x86>
ffffffff80405df2:	fe843783          	ld	a5,-24(s0)
ffffffff80405df6:	0785                	addi	a5,a5,1
ffffffff80405df8:	fef43423          	sd	a5,-24(s0)
ffffffff80405dfc:	fe043783          	ld	a5,-32(s0)
ffffffff80405e00:	0785                	addi	a5,a5,1
ffffffff80405e02:	fef43023          	sd	a5,-32(s0)
ffffffff80405e06:	fe843783          	ld	a5,-24(s0)
ffffffff80405e0a:	0007c783          	lbu	a5,0(a5)
ffffffff80405e0e:	c791                	beqz	a5,ffffffff80405e1a <strcmp+0x6a>
ffffffff80405e10:	fe043783          	ld	a5,-32(s0)
ffffffff80405e14:	0007c783          	lbu	a5,0(a5)
ffffffff80405e18:	f7c5                	bnez	a5,ffffffff80405dc0 <strcmp+0x10>
ffffffff80405e1a:	fe843783          	ld	a5,-24(s0)
ffffffff80405e1e:	0007c783          	lbu	a5,0(a5)
ffffffff80405e22:	0007871b          	sext.w	a4,a5
ffffffff80405e26:	fe043783          	ld	a5,-32(s0)
ffffffff80405e2a:	0007c783          	lbu	a5,0(a5)
ffffffff80405e2e:	2781                	sext.w	a5,a5
ffffffff80405e30:	40f707bb          	subw	a5,a4,a5
ffffffff80405e34:	2781                	sext.w	a5,a5
ffffffff80405e36:	853e                	mv	a0,a5
ffffffff80405e38:	6462                	ld	s0,24(sp)
ffffffff80405e3a:	6105                	addi	sp,sp,32
ffffffff80405e3c:	8082                	ret

ffffffff80405e3e <strcpy>:
ffffffff80405e3e:	7179                	addi	sp,sp,-48
ffffffff80405e40:	f422                	sd	s0,40(sp)
ffffffff80405e42:	1800                	addi	s0,sp,48
ffffffff80405e44:	fca43c23          	sd	a0,-40(s0)
ffffffff80405e48:	fcb43823          	sd	a1,-48(s0)
ffffffff80405e4c:	fd843783          	ld	a5,-40(s0)
ffffffff80405e50:	fef43423          	sd	a5,-24(s0)
ffffffff80405e54:	a00d                	j	ffffffff80405e76 <strcpy+0x38>
ffffffff80405e56:	fd043703          	ld	a4,-48(s0)
ffffffff80405e5a:	00170793          	addi	a5,a4,1
ffffffff80405e5e:	fcf43823          	sd	a5,-48(s0)
ffffffff80405e62:	fd843783          	ld	a5,-40(s0)
ffffffff80405e66:	00178693          	addi	a3,a5,1
ffffffff80405e6a:	fcd43c23          	sd	a3,-40(s0)
ffffffff80405e6e:	00074703          	lbu	a4,0(a4)
ffffffff80405e72:	00e78023          	sb	a4,0(a5)
ffffffff80405e76:	fd043783          	ld	a5,-48(s0)
ffffffff80405e7a:	0007c783          	lbu	a5,0(a5)
ffffffff80405e7e:	ffe1                	bnez	a5,ffffffff80405e56 <strcpy+0x18>
ffffffff80405e80:	fd843783          	ld	a5,-40(s0)
ffffffff80405e84:	00078023          	sb	zero,0(a5)
ffffffff80405e88:	fe843783          	ld	a5,-24(s0)
ffffffff80405e8c:	853e                	mv	a0,a5
ffffffff80405e8e:	7422                	ld	s0,40(sp)
ffffffff80405e90:	6145                	addi	sp,sp,48
ffffffff80405e92:	8082                	ret

ffffffff80405e94 <strcat>:
ffffffff80405e94:	7179                	addi	sp,sp,-48
ffffffff80405e96:	f422                	sd	s0,40(sp)
ffffffff80405e98:	1800                	addi	s0,sp,48
ffffffff80405e9a:	fca43c23          	sd	a0,-40(s0)
ffffffff80405e9e:	fcb43823          	sd	a1,-48(s0)
ffffffff80405ea2:	fd843783          	ld	a5,-40(s0)
ffffffff80405ea6:	fef43423          	sd	a5,-24(s0)
ffffffff80405eaa:	a031                	j	ffffffff80405eb6 <strcat+0x22>
ffffffff80405eac:	fd843783          	ld	a5,-40(s0)
ffffffff80405eb0:	0785                	addi	a5,a5,1
ffffffff80405eb2:	fcf43c23          	sd	a5,-40(s0)
ffffffff80405eb6:	fd843783          	ld	a5,-40(s0)
ffffffff80405eba:	0007c783          	lbu	a5,0(a5)
ffffffff80405ebe:	f7fd                	bnez	a5,ffffffff80405eac <strcat+0x18>
ffffffff80405ec0:	a00d                	j	ffffffff80405ee2 <strcat+0x4e>
ffffffff80405ec2:	fd043703          	ld	a4,-48(s0)
ffffffff80405ec6:	00170793          	addi	a5,a4,1
ffffffff80405eca:	fcf43823          	sd	a5,-48(s0)
ffffffff80405ece:	fd843783          	ld	a5,-40(s0)
ffffffff80405ed2:	00178693          	addi	a3,a5,1
ffffffff80405ed6:	fcd43c23          	sd	a3,-40(s0)
ffffffff80405eda:	00074703          	lbu	a4,0(a4)
ffffffff80405ede:	00e78023          	sb	a4,0(a5)
ffffffff80405ee2:	fd043783          	ld	a5,-48(s0)
ffffffff80405ee6:	0007c783          	lbu	a5,0(a5)
ffffffff80405eea:	ffe1                	bnez	a5,ffffffff80405ec2 <strcat+0x2e>
ffffffff80405eec:	fd843783          	ld	a5,-40(s0)
ffffffff80405ef0:	00078023          	sb	zero,0(a5)
ffffffff80405ef4:	fe843783          	ld	a5,-24(s0)
ffffffff80405ef8:	853e                	mv	a0,a5
ffffffff80405efa:	7422                	ld	s0,40(sp)
ffffffff80405efc:	6145                	addi	sp,sp,48
ffffffff80405efe:	8082                	ret

ffffffff80405f00 <mini_strlen>:
ffffffff80405f00:	7179                	addi	sp,sp,-48
ffffffff80405f02:	f422                	sd	s0,40(sp)
ffffffff80405f04:	1800                	addi	s0,sp,48
ffffffff80405f06:	fca43c23          	sd	a0,-40(s0)
ffffffff80405f0a:	fe042623          	sw	zero,-20(s0)
ffffffff80405f0e:	a031                	j	ffffffff80405f1a <mini_strlen+0x1a>
ffffffff80405f10:	fec42783          	lw	a5,-20(s0)
ffffffff80405f14:	2785                	addiw	a5,a5,1
ffffffff80405f16:	fef42623          	sw	a5,-20(s0)
ffffffff80405f1a:	fec46783          	lwu	a5,-20(s0)
ffffffff80405f1e:	fd843703          	ld	a4,-40(s0)
ffffffff80405f22:	97ba                	add	a5,a5,a4
ffffffff80405f24:	0007c783          	lbu	a5,0(a5)
ffffffff80405f28:	f7e5                	bnez	a5,ffffffff80405f10 <mini_strlen+0x10>
ffffffff80405f2a:	fec42783          	lw	a5,-20(s0)
ffffffff80405f2e:	853e                	mv	a0,a5
ffffffff80405f30:	7422                	ld	s0,40(sp)
ffffffff80405f32:	6145                	addi	sp,sp,48
ffffffff80405f34:	8082                	ret

ffffffff80405f36 <mini_itoa>:
ffffffff80405f36:	715d                	addi	sp,sp,-80
ffffffff80405f38:	e4a2                	sd	s0,72(sp)
ffffffff80405f3a:	0880                	addi	s0,sp,80
ffffffff80405f3c:	fca43423          	sd	a0,-56(s0)
ffffffff80405f40:	fae43823          	sd	a4,-80(s0)
ffffffff80405f44:	873e                	mv	a4,a5
ffffffff80405f46:	87ae                	mv	a5,a1
ffffffff80405f48:	fcf42223          	sw	a5,-60(s0)
ffffffff80405f4c:	87b2                	mv	a5,a2
ffffffff80405f4e:	fcf42023          	sw	a5,-64(s0)
ffffffff80405f52:	87b6                	mv	a5,a3
ffffffff80405f54:	faf42e23          	sw	a5,-68(s0)
ffffffff80405f58:	87ba                	mv	a5,a4
ffffffff80405f5a:	faf42c23          	sw	a5,-72(s0)
ffffffff80405f5e:	fb043783          	ld	a5,-80(s0)
ffffffff80405f62:	fef43423          	sd	a5,-24(s0)
ffffffff80405f66:	fe042223          	sw	zero,-28(s0)
ffffffff80405f6a:	fc442783          	lw	a5,-60(s0)
ffffffff80405f6e:	0007871b          	sext.w	a4,a5
ffffffff80405f72:	47c1                	li	a5,16
ffffffff80405f74:	00e7f463          	bgeu	a5,a4,ffffffff80405f7c <mini_itoa+0x46>
ffffffff80405f78:	4781                	li	a5,0
ffffffff80405f7a:	aae9                	j	ffffffff80406154 <mini_itoa+0x21e>
ffffffff80405f7c:	fc843783          	ld	a5,-56(s0)
ffffffff80405f80:	0007df63          	bgez	a5,ffffffff80405f9e <mini_itoa+0x68>
ffffffff80405f84:	fbc42783          	lw	a5,-68(s0)
ffffffff80405f88:	2781                	sext.w	a5,a5
ffffffff80405f8a:	eb91                	bnez	a5,ffffffff80405f9e <mini_itoa+0x68>
ffffffff80405f8c:	4785                	li	a5,1
ffffffff80405f8e:	fef42223          	sw	a5,-28(s0)
ffffffff80405f92:	fc843783          	ld	a5,-56(s0)
ffffffff80405f96:	40f007b3          	neg	a5,a5
ffffffff80405f9a:	fcf43423          	sd	a5,-56(s0)
ffffffff80405f9e:	fc042e23          	sw	zero,-36(s0)
ffffffff80405fa2:	fbc42783          	lw	a5,-68(s0)
ffffffff80405fa6:	2781                	sext.w	a5,a5
ffffffff80405fa8:	cb91                	beqz	a5,ffffffff80405fbc <mini_itoa+0x86>
ffffffff80405faa:	fc843703          	ld	a4,-56(s0)
ffffffff80405fae:	fc446783          	lwu	a5,-60(s0)
ffffffff80405fb2:	02f777b3          	remu	a5,a4,a5
ffffffff80405fb6:	fcf42e23          	sw	a5,-36(s0)
ffffffff80405fba:	a809                	j	ffffffff80405fcc <mini_itoa+0x96>
ffffffff80405fbc:	fc446783          	lwu	a5,-60(s0)
ffffffff80405fc0:	fc843703          	ld	a4,-56(s0)
ffffffff80405fc4:	02f767b3          	rem	a5,a4,a5
ffffffff80405fc8:	fcf42e23          	sw	a5,-36(s0)
ffffffff80405fcc:	fdc42783          	lw	a5,-36(s0)
ffffffff80405fd0:	0007871b          	sext.w	a4,a5
ffffffff80405fd4:	47a5                	li	a5,9
ffffffff80405fd6:	00e7cb63          	blt	a5,a4,ffffffff80405fec <mini_itoa+0xb6>
ffffffff80405fda:	fdc42783          	lw	a5,-36(s0)
ffffffff80405fde:	0ff7f793          	andi	a5,a5,255
ffffffff80405fe2:	0307879b          	addiw	a5,a5,48
ffffffff80405fe6:	0ff7f713          	andi	a4,a5,255
ffffffff80405fea:	a025                	j	ffffffff80406012 <mini_itoa+0xdc>
ffffffff80405fec:	fc042783          	lw	a5,-64(s0)
ffffffff80405ff0:	2781                	sext.w	a5,a5
ffffffff80405ff2:	c781                	beqz	a5,ffffffff80405ffa <mini_itoa+0xc4>
ffffffff80405ff4:	04100793          	li	a5,65
ffffffff80405ff8:	a019                	j	ffffffff80405ffe <mini_itoa+0xc8>
ffffffff80405ffa:	06100793          	li	a5,97
ffffffff80405ffe:	fdc42703          	lw	a4,-36(s0)
ffffffff80406002:	0ff77713          	andi	a4,a4,255
ffffffff80406006:	9fb9                	addw	a5,a5,a4
ffffffff80406008:	0ff7f793          	andi	a5,a5,255
ffffffff8040600c:	37d9                	addiw	a5,a5,-10
ffffffff8040600e:	0ff7f713          	andi	a4,a5,255
ffffffff80406012:	fe843783          	ld	a5,-24(s0)
ffffffff80406016:	00178693          	addi	a3,a5,1
ffffffff8040601a:	fed43423          	sd	a3,-24(s0)
ffffffff8040601e:	00e78023          	sb	a4,0(a5)
ffffffff80406022:	fbc42783          	lw	a5,-68(s0)
ffffffff80406026:	2781                	sext.w	a5,a5
ffffffff80406028:	cb91                	beqz	a5,ffffffff8040603c <mini_itoa+0x106>
ffffffff8040602a:	fc843703          	ld	a4,-56(s0)
ffffffff8040602e:	fc446783          	lwu	a5,-60(s0)
ffffffff80406032:	02f757b3          	divu	a5,a4,a5
ffffffff80406036:	fcf43423          	sd	a5,-56(s0)
ffffffff8040603a:	a809                	j	ffffffff8040604c <mini_itoa+0x116>
ffffffff8040603c:	fc446783          	lwu	a5,-60(s0)
ffffffff80406040:	fc843703          	ld	a4,-56(s0)
ffffffff80406044:	02f747b3          	div	a5,a4,a5
ffffffff80406048:	fcf43423          	sd	a5,-56(s0)
ffffffff8040604c:	fc843783          	ld	a5,-56(s0)
ffffffff80406050:	f7b9                	bnez	a5,ffffffff80405f9e <mini_itoa+0x68>
ffffffff80406052:	fe843703          	ld	a4,-24(s0)
ffffffff80406056:	fb043783          	ld	a5,-80(s0)
ffffffff8040605a:	40f707b3          	sub	a5,a4,a5
ffffffff8040605e:	fef42023          	sw	a5,-32(s0)
ffffffff80406062:	a005                	j	ffffffff80406082 <mini_itoa+0x14c>
ffffffff80406064:	fe843783          	ld	a5,-24(s0)
ffffffff80406068:	00178713          	addi	a4,a5,1
ffffffff8040606c:	fee43423          	sd	a4,-24(s0)
ffffffff80406070:	03000713          	li	a4,48
ffffffff80406074:	00e78023          	sb	a4,0(a5)
ffffffff80406078:	fe042783          	lw	a5,-32(s0)
ffffffff8040607c:	2785                	addiw	a5,a5,1
ffffffff8040607e:	fef42023          	sw	a5,-32(s0)
ffffffff80406082:	fe042703          	lw	a4,-32(s0)
ffffffff80406086:	fb842783          	lw	a5,-72(s0)
ffffffff8040608a:	2701                	sext.w	a4,a4
ffffffff8040608c:	2781                	sext.w	a5,a5
ffffffff8040608e:	fcf76be3          	bltu	a4,a5,ffffffff80406064 <mini_itoa+0x12e>
ffffffff80406092:	fe442783          	lw	a5,-28(s0)
ffffffff80406096:	2781                	sext.w	a5,a5
ffffffff80406098:	cb99                	beqz	a5,ffffffff804060ae <mini_itoa+0x178>
ffffffff8040609a:	fe843783          	ld	a5,-24(s0)
ffffffff8040609e:	00178713          	addi	a4,a5,1
ffffffff804060a2:	fee43423          	sd	a4,-24(s0)
ffffffff804060a6:	02d00713          	li	a4,45
ffffffff804060aa:	00e78023          	sb	a4,0(a5)
ffffffff804060ae:	fe843783          	ld	a5,-24(s0)
ffffffff804060b2:	00078023          	sb	zero,0(a5)
ffffffff804060b6:	fe843703          	ld	a4,-24(s0)
ffffffff804060ba:	fb043783          	ld	a5,-80(s0)
ffffffff804060be:	40f707b3          	sub	a5,a4,a5
ffffffff804060c2:	fcf42c23          	sw	a5,-40(s0)
ffffffff804060c6:	fe042023          	sw	zero,-32(s0)
ffffffff804060ca:	a885                	j	ffffffff8040613a <mini_itoa+0x204>
ffffffff804060cc:	fe046783          	lwu	a5,-32(s0)
ffffffff804060d0:	fb043703          	ld	a4,-80(s0)
ffffffff804060d4:	97ba                	add	a5,a5,a4
ffffffff804060d6:	0007c783          	lbu	a5,0(a5)
ffffffff804060da:	fcf40ba3          	sb	a5,-41(s0)
ffffffff804060de:	fd842703          	lw	a4,-40(s0)
ffffffff804060e2:	fe042783          	lw	a5,-32(s0)
ffffffff804060e6:	40f707bb          	subw	a5,a4,a5
ffffffff804060ea:	2781                	sext.w	a5,a5
ffffffff804060ec:	37fd                	addiw	a5,a5,-1
ffffffff804060ee:	2781                	sext.w	a5,a5
ffffffff804060f0:	1782                	slli	a5,a5,0x20
ffffffff804060f2:	9381                	srli	a5,a5,0x20
ffffffff804060f4:	fb043703          	ld	a4,-80(s0)
ffffffff804060f8:	973e                	add	a4,a4,a5
ffffffff804060fa:	fe046783          	lwu	a5,-32(s0)
ffffffff804060fe:	fb043683          	ld	a3,-80(s0)
ffffffff80406102:	97b6                	add	a5,a5,a3
ffffffff80406104:	00074703          	lbu	a4,0(a4)
ffffffff80406108:	00e78023          	sb	a4,0(a5)
ffffffff8040610c:	fd842703          	lw	a4,-40(s0)
ffffffff80406110:	fe042783          	lw	a5,-32(s0)
ffffffff80406114:	40f707bb          	subw	a5,a4,a5
ffffffff80406118:	2781                	sext.w	a5,a5
ffffffff8040611a:	37fd                	addiw	a5,a5,-1
ffffffff8040611c:	2781                	sext.w	a5,a5
ffffffff8040611e:	1782                	slli	a5,a5,0x20
ffffffff80406120:	9381                	srli	a5,a5,0x20
ffffffff80406122:	fb043703          	ld	a4,-80(s0)
ffffffff80406126:	97ba                	add	a5,a5,a4
ffffffff80406128:	fd744703          	lbu	a4,-41(s0)
ffffffff8040612c:	00e78023          	sb	a4,0(a5)
ffffffff80406130:	fe042783          	lw	a5,-32(s0)
ffffffff80406134:	2785                	addiw	a5,a5,1
ffffffff80406136:	fef42023          	sw	a5,-32(s0)
ffffffff8040613a:	fd842783          	lw	a5,-40(s0)
ffffffff8040613e:	0017d79b          	srliw	a5,a5,0x1
ffffffff80406142:	0007871b          	sext.w	a4,a5
ffffffff80406146:	fe042783          	lw	a5,-32(s0)
ffffffff8040614a:	2781                	sext.w	a5,a5
ffffffff8040614c:	f8e7e0e3          	bltu	a5,a4,ffffffff804060cc <mini_itoa+0x196>
ffffffff80406150:	fd842783          	lw	a5,-40(s0)
ffffffff80406154:	853e                	mv	a0,a5
ffffffff80406156:	6426                	ld	s0,72(sp)
ffffffff80406158:	6161                	addi	sp,sp,80
ffffffff8040615a:	8082                	ret

ffffffff8040615c <_putc>:
ffffffff8040615c:	1101                	addi	sp,sp,-32
ffffffff8040615e:	ec22                	sd	s0,24(sp)
ffffffff80406160:	1000                	addi	s0,sp,32
ffffffff80406162:	87aa                	mv	a5,a0
ffffffff80406164:	feb43023          	sd	a1,-32(s0)
ffffffff80406168:	fef42623          	sw	a5,-20(s0)
ffffffff8040616c:	fe043783          	ld	a5,-32(s0)
ffffffff80406170:	6798                	ld	a4,8(a5)
ffffffff80406172:	fe043783          	ld	a5,-32(s0)
ffffffff80406176:	639c                	ld	a5,0(a5)
ffffffff80406178:	40f707b3          	sub	a5,a4,a5
ffffffff8040617c:	2781                	sext.w	a5,a5
ffffffff8040617e:	2785                	addiw	a5,a5,1
ffffffff80406180:	0007871b          	sext.w	a4,a5
ffffffff80406184:	fe043783          	ld	a5,-32(s0)
ffffffff80406188:	4b9c                	lw	a5,16(a5)
ffffffff8040618a:	00f76463          	bltu	a4,a5,ffffffff80406192 <_putc+0x36>
ffffffff8040618e:	4781                	li	a5,0
ffffffff80406190:	a02d                	j	ffffffff804061ba <_putc+0x5e>
ffffffff80406192:	fe043783          	ld	a5,-32(s0)
ffffffff80406196:	679c                	ld	a5,8(a5)
ffffffff80406198:	00178693          	addi	a3,a5,1
ffffffff8040619c:	fe043703          	ld	a4,-32(s0)
ffffffff804061a0:	e714                	sd	a3,8(a4)
ffffffff804061a2:	fec42703          	lw	a4,-20(s0)
ffffffff804061a6:	0ff77713          	andi	a4,a4,255
ffffffff804061aa:	00e78023          	sb	a4,0(a5)
ffffffff804061ae:	fe043783          	ld	a5,-32(s0)
ffffffff804061b2:	679c                	ld	a5,8(a5)
ffffffff804061b4:	00078023          	sb	zero,0(a5)
ffffffff804061b8:	4785                	li	a5,1
ffffffff804061ba:	853e                	mv	a0,a5
ffffffff804061bc:	6462                	ld	s0,24(sp)
ffffffff804061be:	6105                	addi	sp,sp,32
ffffffff804061c0:	8082                	ret

ffffffff804061c2 <_puts>:
ffffffff804061c2:	7139                	addi	sp,sp,-64
ffffffff804061c4:	fc22                	sd	s0,56(sp)
ffffffff804061c6:	0080                	addi	s0,sp,64
ffffffff804061c8:	fca43c23          	sd	a0,-40(s0)
ffffffff804061cc:	87ae                	mv	a5,a1
ffffffff804061ce:	fcc43423          	sd	a2,-56(s0)
ffffffff804061d2:	fcf42a23          	sw	a5,-44(s0)
ffffffff804061d6:	fc843783          	ld	a5,-56(s0)
ffffffff804061da:	4b9c                	lw	a5,16(a5)
ffffffff804061dc:	02079713          	slli	a4,a5,0x20
ffffffff804061e0:	9301                	srli	a4,a4,0x20
ffffffff804061e2:	fc843783          	ld	a5,-56(s0)
ffffffff804061e6:	6794                	ld	a3,8(a5)
ffffffff804061e8:	fc843783          	ld	a5,-56(s0)
ffffffff804061ec:	639c                	ld	a5,0(a5)
ffffffff804061ee:	40f687b3          	sub	a5,a3,a5
ffffffff804061f2:	8f1d                	sub	a4,a4,a5
ffffffff804061f4:	fd446783          	lwu	a5,-44(s0)
ffffffff804061f8:	02e7c463          	blt	a5,a4,ffffffff80406220 <_puts+0x5e>
ffffffff804061fc:	fc843783          	ld	a5,-56(s0)
ffffffff80406200:	4b98                	lw	a4,16(a5)
ffffffff80406202:	fc843783          	ld	a5,-56(s0)
ffffffff80406206:	6794                	ld	a3,8(a5)
ffffffff80406208:	fc843783          	ld	a5,-56(s0)
ffffffff8040620c:	639c                	ld	a5,0(a5)
ffffffff8040620e:	40f687b3          	sub	a5,a3,a5
ffffffff80406212:	2781                	sext.w	a5,a5
ffffffff80406214:	40f707bb          	subw	a5,a4,a5
ffffffff80406218:	2781                	sext.w	a5,a5
ffffffff8040621a:	37fd                	addiw	a5,a5,-1
ffffffff8040621c:	fcf42a23          	sw	a5,-44(s0)
ffffffff80406220:	fe042623          	sw	zero,-20(s0)
ffffffff80406224:	a03d                	j	ffffffff80406252 <_puts+0x90>
ffffffff80406226:	fec46783          	lwu	a5,-20(s0)
ffffffff8040622a:	fd843703          	ld	a4,-40(s0)
ffffffff8040622e:	973e                	add	a4,a4,a5
ffffffff80406230:	fc843783          	ld	a5,-56(s0)
ffffffff80406234:	679c                	ld	a5,8(a5)
ffffffff80406236:	00178613          	addi	a2,a5,1
ffffffff8040623a:	fc843683          	ld	a3,-56(s0)
ffffffff8040623e:	e690                	sd	a2,8(a3)
ffffffff80406240:	00074703          	lbu	a4,0(a4)
ffffffff80406244:	00e78023          	sb	a4,0(a5)
ffffffff80406248:	fec42783          	lw	a5,-20(s0)
ffffffff8040624c:	2785                	addiw	a5,a5,1
ffffffff8040624e:	fef42623          	sw	a5,-20(s0)
ffffffff80406252:	fec42703          	lw	a4,-20(s0)
ffffffff80406256:	fd442783          	lw	a5,-44(s0)
ffffffff8040625a:	2701                	sext.w	a4,a4
ffffffff8040625c:	2781                	sext.w	a5,a5
ffffffff8040625e:	fcf764e3          	bltu	a4,a5,ffffffff80406226 <_puts+0x64>
ffffffff80406262:	fc843783          	ld	a5,-56(s0)
ffffffff80406266:	679c                	ld	a5,8(a5)
ffffffff80406268:	00078023          	sb	zero,0(a5)
ffffffff8040626c:	fd442783          	lw	a5,-44(s0)
ffffffff80406270:	853e                	mv	a0,a5
ffffffff80406272:	7462                	ld	s0,56(sp)
ffffffff80406274:	6121                	addi	sp,sp,64
ffffffff80406276:	8082                	ret

ffffffff80406278 <mini_vsnprintf>:
ffffffff80406278:	7119                	addi	sp,sp,-128
ffffffff8040627a:	fc86                	sd	ra,120(sp)
ffffffff8040627c:	f8a2                	sd	s0,112(sp)
ffffffff8040627e:	0100                	addi	s0,sp,128
ffffffff80406280:	f8a43c23          	sd	a0,-104(s0)
ffffffff80406284:	87ae                	mv	a5,a1
ffffffff80406286:	f8c43423          	sd	a2,-120(s0)
ffffffff8040628a:	f8d43023          	sd	a3,-128(s0)
ffffffff8040628e:	f8f42a23          	sw	a5,-108(s0)
ffffffff80406292:	f9843783          	ld	a5,-104(s0)
ffffffff80406296:	fcf43023          	sd	a5,-64(s0)
ffffffff8040629a:	f9843783          	ld	a5,-104(s0)
ffffffff8040629e:	fcf43423          	sd	a5,-56(s0)
ffffffff804062a2:	f9442783          	lw	a5,-108(s0)
ffffffff804062a6:	fcf42823          	sw	a5,-48(s0)
ffffffff804062aa:	acf9                	j	ffffffff80406588 <mini_vsnprintf+0x310>
ffffffff804062ac:	fc843703          	ld	a4,-56(s0)
ffffffff804062b0:	fc043783          	ld	a5,-64(s0)
ffffffff804062b4:	40f707b3          	sub	a5,a4,a5
ffffffff804062b8:	2781                	sext.w	a5,a5
ffffffff804062ba:	2785                	addiw	a5,a5,1
ffffffff804062bc:	0007871b          	sext.w	a4,a5
ffffffff804062c0:	fd042783          	lw	a5,-48(s0)
ffffffff804062c4:	2ef77363          	bgeu	a4,a5,ffffffff804065aa <mini_vsnprintf+0x332>
ffffffff804062c8:	fef44783          	lbu	a5,-17(s0)
ffffffff804062cc:	0ff7f713          	andi	a4,a5,255
ffffffff804062d0:	02500793          	li	a5,37
ffffffff804062d4:	00f70c63          	beq	a4,a5,ffffffff804062ec <mini_vsnprintf+0x74>
ffffffff804062d8:	fef44783          	lbu	a5,-17(s0)
ffffffff804062dc:	2781                	sext.w	a5,a5
ffffffff804062de:	fc040713          	addi	a4,s0,-64
ffffffff804062e2:	85ba                	mv	a1,a4
ffffffff804062e4:	853e                	mv	a0,a5
ffffffff804062e6:	e77ff0ef          	jal	ra,ffffffff8040615c <_putc>
ffffffff804062ea:	ac79                	j	ffffffff80406588 <mini_vsnprintf+0x310>
ffffffff804062ec:	fe040723          	sb	zero,-18(s0)
ffffffff804062f0:	fe042423          	sw	zero,-24(s0)
ffffffff804062f4:	f8843783          	ld	a5,-120(s0)
ffffffff804062f8:	00178713          	addi	a4,a5,1
ffffffff804062fc:	f8e43423          	sd	a4,-120(s0)
ffffffff80406300:	0007c783          	lbu	a5,0(a5)
ffffffff80406304:	fef407a3          	sb	a5,-17(s0)
ffffffff80406308:	fef44783          	lbu	a5,-17(s0)
ffffffff8040630c:	0ff7f713          	andi	a4,a5,255
ffffffff80406310:	03000793          	li	a5,48
ffffffff80406314:	06f71b63          	bne	a4,a5,ffffffff8040638a <mini_vsnprintf+0x112>
ffffffff80406318:	a891                	j	ffffffff8040636c <mini_vsnprintf+0xf4>
ffffffff8040631a:	fef44783          	lbu	a5,-17(s0)
ffffffff8040631e:	0ff7f793          	andi	a5,a5,255
ffffffff80406322:	28078663          	beqz	a5,ffffffff804065ae <mini_vsnprintf+0x336>
ffffffff80406326:	fef44783          	lbu	a5,-17(s0)
ffffffff8040632a:	0ff7f713          	andi	a4,a5,255
ffffffff8040632e:	02f00793          	li	a5,47
ffffffff80406332:	04e7fc63          	bgeu	a5,a4,ffffffff8040638a <mini_vsnprintf+0x112>
ffffffff80406336:	fef44783          	lbu	a5,-17(s0)
ffffffff8040633a:	0ff7f713          	andi	a4,a5,255
ffffffff8040633e:	03900793          	li	a5,57
ffffffff80406342:	04e7e463          	bltu	a5,a4,ffffffff8040638a <mini_vsnprintf+0x112>
ffffffff80406346:	fee44703          	lbu	a4,-18(s0)
ffffffff8040634a:	87ba                	mv	a5,a4
ffffffff8040634c:	0027979b          	slliw	a5,a5,0x2
ffffffff80406350:	9fb9                	addw	a5,a5,a4
ffffffff80406352:	0017979b          	slliw	a5,a5,0x1
ffffffff80406356:	0ff7f793          	andi	a5,a5,255
ffffffff8040635a:	fef44703          	lbu	a4,-17(s0)
ffffffff8040635e:	9fb9                	addw	a5,a5,a4
ffffffff80406360:	0ff7f793          	andi	a5,a5,255
ffffffff80406364:	fd07879b          	addiw	a5,a5,-48
ffffffff80406368:	fef40723          	sb	a5,-18(s0)
ffffffff8040636c:	f8843783          	ld	a5,-120(s0)
ffffffff80406370:	00178713          	addi	a4,a5,1
ffffffff80406374:	f8e43423          	sd	a4,-120(s0)
ffffffff80406378:	0007c783          	lbu	a5,0(a5)
ffffffff8040637c:	fef407a3          	sb	a5,-17(s0)
ffffffff80406380:	fef44783          	lbu	a5,-17(s0)
ffffffff80406384:	0ff7f793          	andi	a5,a5,255
ffffffff80406388:	fbc9                	bnez	a5,ffffffff8040631a <mini_vsnprintf+0xa2>
ffffffff8040638a:	fef44783          	lbu	a5,-17(s0)
ffffffff8040638e:	0ff7f713          	andi	a4,a5,255
ffffffff80406392:	06c00793          	li	a5,108
ffffffff80406396:	00f71f63          	bne	a4,a5,ffffffff804063b4 <mini_vsnprintf+0x13c>
ffffffff8040639a:	4785                	li	a5,1
ffffffff8040639c:	fef42423          	sw	a5,-24(s0)
ffffffff804063a0:	f8843783          	ld	a5,-120(s0)
ffffffff804063a4:	00178713          	addi	a4,a5,1
ffffffff804063a8:	f8e43423          	sd	a4,-120(s0)
ffffffff804063ac:	0007c783          	lbu	a5,0(a5)
ffffffff804063b0:	fef407a3          	sb	a5,-17(s0)
ffffffff804063b4:	fef44783          	lbu	a5,-17(s0)
ffffffff804063b8:	2781                	sext.w	a5,a5
ffffffff804063ba:	86be                	mv	a3,a5
ffffffff804063bc:	06400713          	li	a4,100
ffffffff804063c0:	06e68363          	beq	a3,a4,ffffffff80406426 <mini_vsnprintf+0x1ae>
ffffffff804063c4:	86be                	mv	a3,a5
ffffffff804063c6:	06400713          	li	a4,100
ffffffff804063ca:	00d74f63          	blt	a4,a3,ffffffff804063e8 <mini_vsnprintf+0x170>
ffffffff804063ce:	86be                	mv	a3,a5
ffffffff804063d0:	05800713          	li	a4,88
ffffffff804063d4:	0ce68863          	beq	a3,a4,ffffffff804064a4 <mini_vsnprintf+0x22c>
ffffffff804063d8:	86be                	mv	a3,a5
ffffffff804063da:	06300713          	li	a4,99
ffffffff804063de:	14e68263          	beq	a3,a4,ffffffff80406522 <mini_vsnprintf+0x2aa>
ffffffff804063e2:	1c078863          	beqz	a5,ffffffff804065b2 <mini_vsnprintf+0x33a>
ffffffff804063e6:	a279                	j	ffffffff80406574 <mini_vsnprintf+0x2fc>
ffffffff804063e8:	86be                	mv	a3,a5
ffffffff804063ea:	07300713          	li	a4,115
ffffffff804063ee:	14e68b63          	beq	a3,a4,ffffffff80406544 <mini_vsnprintf+0x2cc>
ffffffff804063f2:	86be                	mv	a3,a5
ffffffff804063f4:	07300713          	li	a4,115
ffffffff804063f8:	00d74863          	blt	a4,a3,ffffffff80406408 <mini_vsnprintf+0x190>
ffffffff804063fc:	873e                	mv	a4,a5
ffffffff804063fe:	06c00793          	li	a5,108
ffffffff80406402:	00f70e63          	beq	a4,a5,ffffffff8040641e <mini_vsnprintf+0x1a6>
ffffffff80406406:	a2bd                	j	ffffffff80406574 <mini_vsnprintf+0x2fc>
ffffffff80406408:	86be                	mv	a3,a5
ffffffff8040640a:	07500713          	li	a4,117
ffffffff8040640e:	00e68c63          	beq	a3,a4,ffffffff80406426 <mini_vsnprintf+0x1ae>
ffffffff80406412:	873e                	mv	a4,a5
ffffffff80406414:	07800793          	li	a5,120
ffffffff80406418:	08f70663          	beq	a4,a5,ffffffff804064a4 <mini_vsnprintf+0x22c>
ffffffff8040641c:	aaa1                	j	ffffffff80406574 <mini_vsnprintf+0x2fc>
ffffffff8040641e:	4785                	li	a5,1
ffffffff80406420:	fef42423          	sw	a5,-24(s0)
ffffffff80406424:	a295                	j	ffffffff80406588 <mini_vsnprintf+0x310>
ffffffff80406426:	fe842783          	lw	a5,-24(s0)
ffffffff8040642a:	2781                	sext.w	a5,a5
ffffffff8040642c:	ef81                	bnez	a5,ffffffff80406444 <mini_vsnprintf+0x1cc>
ffffffff8040642e:	f8043783          	ld	a5,-128(s0)
ffffffff80406432:	00878713          	addi	a4,a5,8
ffffffff80406436:	f8e43023          	sd	a4,-128(s0)
ffffffff8040643a:	439c                	lw	a5,0(a5)
ffffffff8040643c:	02079513          	slli	a0,a5,0x20
ffffffff80406440:	9101                	srli	a0,a0,0x20
ffffffff80406442:	a809                	j	ffffffff80406454 <mini_vsnprintf+0x1dc>
ffffffff80406444:	f8043783          	ld	a5,-128(s0)
ffffffff80406448:	00878713          	addi	a4,a5,8
ffffffff8040644c:	f8e43023          	sd	a4,-128(s0)
ffffffff80406450:	639c                	ld	a5,0(a5)
ffffffff80406452:	853e                	mv	a0,a5
ffffffff80406454:	fef44783          	lbu	a5,-17(s0)
ffffffff80406458:	0007871b          	sext.w	a4,a5
ffffffff8040645c:	07500793          	li	a5,117
ffffffff80406460:	40f707b3          	sub	a5,a4,a5
ffffffff80406464:	0017b793          	seqz	a5,a5
ffffffff80406468:	0ff7f793          	andi	a5,a5,255
ffffffff8040646c:	0007869b          	sext.w	a3,a5
ffffffff80406470:	fee44783          	lbu	a5,-18(s0)
ffffffff80406474:	2781                	sext.w	a5,a5
ffffffff80406476:	fa840713          	addi	a4,s0,-88
ffffffff8040647a:	4601                	li	a2,0
ffffffff8040647c:	45a9                	li	a1,10
ffffffff8040647e:	ab9ff0ef          	jal	ra,ffffffff80405f36 <mini_itoa>
ffffffff80406482:	87aa                	mv	a5,a0
ffffffff80406484:	fef42223          	sw	a5,-28(s0)
ffffffff80406488:	fc040693          	addi	a3,s0,-64
ffffffff8040648c:	fe442703          	lw	a4,-28(s0)
ffffffff80406490:	fa840793          	addi	a5,s0,-88
ffffffff80406494:	8636                	mv	a2,a3
ffffffff80406496:	85ba                	mv	a1,a4
ffffffff80406498:	853e                	mv	a0,a5
ffffffff8040649a:	d29ff0ef          	jal	ra,ffffffff804061c2 <_puts>
ffffffff8040649e:	fe042423          	sw	zero,-24(s0)
ffffffff804064a2:	a0dd                	j	ffffffff80406588 <mini_vsnprintf+0x310>
ffffffff804064a4:	fe842783          	lw	a5,-24(s0)
ffffffff804064a8:	2781                	sext.w	a5,a5
ffffffff804064aa:	ef81                	bnez	a5,ffffffff804064c2 <mini_vsnprintf+0x24a>
ffffffff804064ac:	f8043783          	ld	a5,-128(s0)
ffffffff804064b0:	00878713          	addi	a4,a5,8
ffffffff804064b4:	f8e43023          	sd	a4,-128(s0)
ffffffff804064b8:	439c                	lw	a5,0(a5)
ffffffff804064ba:	02079513          	slli	a0,a5,0x20
ffffffff804064be:	9101                	srli	a0,a0,0x20
ffffffff804064c0:	a809                	j	ffffffff804064d2 <mini_vsnprintf+0x25a>
ffffffff804064c2:	f8043783          	ld	a5,-128(s0)
ffffffff804064c6:	00878713          	addi	a4,a5,8
ffffffff804064ca:	f8e43023          	sd	a4,-128(s0)
ffffffff804064ce:	639c                	ld	a5,0(a5)
ffffffff804064d0:	853e                	mv	a0,a5
ffffffff804064d2:	fef44783          	lbu	a5,-17(s0)
ffffffff804064d6:	0007871b          	sext.w	a4,a5
ffffffff804064da:	05800793          	li	a5,88
ffffffff804064de:	40f707b3          	sub	a5,a4,a5
ffffffff804064e2:	0017b793          	seqz	a5,a5
ffffffff804064e6:	0ff7f793          	andi	a5,a5,255
ffffffff804064ea:	0007861b          	sext.w	a2,a5
ffffffff804064ee:	fee44783          	lbu	a5,-18(s0)
ffffffff804064f2:	2781                	sext.w	a5,a5
ffffffff804064f4:	fa840713          	addi	a4,s0,-88
ffffffff804064f8:	4685                	li	a3,1
ffffffff804064fa:	45c1                	li	a1,16
ffffffff804064fc:	a3bff0ef          	jal	ra,ffffffff80405f36 <mini_itoa>
ffffffff80406500:	87aa                	mv	a5,a0
ffffffff80406502:	fef42223          	sw	a5,-28(s0)
ffffffff80406506:	fc040693          	addi	a3,s0,-64
ffffffff8040650a:	fe442703          	lw	a4,-28(s0)
ffffffff8040650e:	fa840793          	addi	a5,s0,-88
ffffffff80406512:	8636                	mv	a2,a3
ffffffff80406514:	85ba                	mv	a1,a4
ffffffff80406516:	853e                	mv	a0,a5
ffffffff80406518:	cabff0ef          	jal	ra,ffffffff804061c2 <_puts>
ffffffff8040651c:	fe042423          	sw	zero,-24(s0)
ffffffff80406520:	a0a5                	j	ffffffff80406588 <mini_vsnprintf+0x310>
ffffffff80406522:	f8043783          	ld	a5,-128(s0)
ffffffff80406526:	00878713          	addi	a4,a5,8
ffffffff8040652a:	f8e43023          	sd	a4,-128(s0)
ffffffff8040652e:	439c                	lw	a5,0(a5)
ffffffff80406530:	0ff7f793          	andi	a5,a5,255
ffffffff80406534:	2781                	sext.w	a5,a5
ffffffff80406536:	fc040713          	addi	a4,s0,-64
ffffffff8040653a:	85ba                	mv	a1,a4
ffffffff8040653c:	853e                	mv	a0,a5
ffffffff8040653e:	c1fff0ef          	jal	ra,ffffffff8040615c <_putc>
ffffffff80406542:	a099                	j	ffffffff80406588 <mini_vsnprintf+0x310>
ffffffff80406544:	f8043783          	ld	a5,-128(s0)
ffffffff80406548:	00878713          	addi	a4,a5,8
ffffffff8040654c:	f8e43023          	sd	a4,-128(s0)
ffffffff80406550:	639c                	ld	a5,0(a5)
ffffffff80406552:	fcf43c23          	sd	a5,-40(s0)
ffffffff80406556:	fd843503          	ld	a0,-40(s0)
ffffffff8040655a:	9a7ff0ef          	jal	ra,ffffffff80405f00 <mini_strlen>
ffffffff8040655e:	87aa                	mv	a5,a0
ffffffff80406560:	2781                	sext.w	a5,a5
ffffffff80406562:	fc040713          	addi	a4,s0,-64
ffffffff80406566:	863a                	mv	a2,a4
ffffffff80406568:	85be                	mv	a1,a5
ffffffff8040656a:	fd843503          	ld	a0,-40(s0)
ffffffff8040656e:	c55ff0ef          	jal	ra,ffffffff804061c2 <_puts>
ffffffff80406572:	a819                	j	ffffffff80406588 <mini_vsnprintf+0x310>
ffffffff80406574:	fef44783          	lbu	a5,-17(s0)
ffffffff80406578:	2781                	sext.w	a5,a5
ffffffff8040657a:	fc040713          	addi	a4,s0,-64
ffffffff8040657e:	85ba                	mv	a1,a4
ffffffff80406580:	853e                	mv	a0,a5
ffffffff80406582:	bdbff0ef          	jal	ra,ffffffff8040615c <_putc>
ffffffff80406586:	0001                	nop
ffffffff80406588:	f8843783          	ld	a5,-120(s0)
ffffffff8040658c:	00178713          	addi	a4,a5,1
ffffffff80406590:	f8e43423          	sd	a4,-120(s0)
ffffffff80406594:	0007c783          	lbu	a5,0(a5)
ffffffff80406598:	fef407a3          	sb	a5,-17(s0)
ffffffff8040659c:	fef44783          	lbu	a5,-17(s0)
ffffffff804065a0:	0ff7f793          	andi	a5,a5,255
ffffffff804065a4:	d00794e3          	bnez	a5,ffffffff804062ac <mini_vsnprintf+0x34>
ffffffff804065a8:	a031                	j	ffffffff804065b4 <mini_vsnprintf+0x33c>
ffffffff804065aa:	0001                	nop
ffffffff804065ac:	a021                	j	ffffffff804065b4 <mini_vsnprintf+0x33c>
ffffffff804065ae:	0001                	nop
ffffffff804065b0:	a011                	j	ffffffff804065b4 <mini_vsnprintf+0x33c>
ffffffff804065b2:	0001                	nop
ffffffff804065b4:	fc843703          	ld	a4,-56(s0)
ffffffff804065b8:	fc043783          	ld	a5,-64(s0)
ffffffff804065bc:	40f707b3          	sub	a5,a4,a5
ffffffff804065c0:	2781                	sext.w	a5,a5
ffffffff804065c2:	853e                	mv	a0,a5
ffffffff804065c4:	70e6                	ld	ra,120(sp)
ffffffff804065c6:	7446                	ld	s0,112(sp)
ffffffff804065c8:	6109                	addi	sp,sp,128
ffffffff804065ca:	8082                	ret

ffffffff804065cc <_vprintk>:
ffffffff804065cc:	7129                	addi	sp,sp,-320
ffffffff804065ce:	fe06                	sd	ra,312(sp)
ffffffff804065d0:	fa22                	sd	s0,304(sp)
ffffffff804065d2:	0280                	addi	s0,sp,320
ffffffff804065d4:	eca43c23          	sd	a0,-296(s0)
ffffffff804065d8:	ecb43823          	sd	a1,-304(s0)
ffffffff804065dc:	ecc43423          	sd	a2,-312(s0)
ffffffff804065e0:	ed043783          	ld	a5,-304(s0)
ffffffff804065e4:	fef43023          	sd	a5,-32(s0)
ffffffff804065e8:	fe043703          	ld	a4,-32(s0)
ffffffff804065ec:	ee040793          	addi	a5,s0,-288
ffffffff804065f0:	86ba                	mv	a3,a4
ffffffff804065f2:	ed843603          	ld	a2,-296(s0)
ffffffff804065f6:	10000593          	li	a1,256
ffffffff804065fa:	853e                	mv	a0,a5
ffffffff804065fc:	c7dff0ef          	jal	ra,ffffffff80406278 <mini_vsnprintf>
ffffffff80406600:	87aa                	mv	a5,a0
ffffffff80406602:	fef42423          	sw	a5,-24(s0)
ffffffff80406606:	fe842783          	lw	a5,-24(s0)
ffffffff8040660a:	ff040713          	addi	a4,s0,-16
ffffffff8040660e:	97ba                	add	a5,a5,a4
ffffffff80406610:	ee078823          	sb	zero,-272(a5)
ffffffff80406614:	ab5f90ef          	jal	ra,ffffffff804000c8 <disable_preempt>
ffffffff80406618:	ee040793          	addi	a5,s0,-288
ffffffff8040661c:	ec843703          	ld	a4,-312(s0)
ffffffff80406620:	853e                	mv	a0,a5
ffffffff80406622:	9702                	jalr	a4
ffffffff80406624:	fe042623          	sw	zero,-20(s0)
ffffffff80406628:	a8a5                	j	ffffffff804066a0 <_vprintk+0xd4>
ffffffff8040662a:	fec42783          	lw	a5,-20(s0)
ffffffff8040662e:	ff040713          	addi	a4,s0,-16
ffffffff80406632:	97ba                	add	a5,a5,a4
ffffffff80406634:	ef07c783          	lbu	a5,-272(a5)
ffffffff80406638:	873e                	mv	a4,a5
ffffffff8040663a:	47a9                	li	a5,10
ffffffff8040663c:	00f71e63          	bne	a4,a5,ffffffff80406658 <_vprintk+0x8c>
ffffffff80406640:	00019797          	auipc	a5,0x19
ffffffff80406644:	44878793          	addi	a5,a5,1096 # ffffffff8041fa88 <current_running>
ffffffff80406648:	639c                	ld	a5,0(a5)
ffffffff8040664a:	08c7a703          	lw	a4,140(a5)
ffffffff8040664e:	2705                	addiw	a4,a4,1
ffffffff80406650:	2701                	sext.w	a4,a4
ffffffff80406652:	08e7a623          	sw	a4,140(a5)
ffffffff80406656:	a081                	j	ffffffff80406696 <_vprintk+0xca>
ffffffff80406658:	fec42783          	lw	a5,-20(s0)
ffffffff8040665c:	ff040713          	addi	a4,s0,-16
ffffffff80406660:	97ba                	add	a5,a5,a4
ffffffff80406662:	ef07c783          	lbu	a5,-272(a5)
ffffffff80406666:	873e                	mv	a4,a5
ffffffff80406668:	47b5                	li	a5,13
ffffffff8040666a:	00f71b63          	bne	a4,a5,ffffffff80406680 <_vprintk+0xb4>
ffffffff8040666e:	00019797          	auipc	a5,0x19
ffffffff80406672:	41a78793          	addi	a5,a5,1050 # ffffffff8041fa88 <current_running>
ffffffff80406676:	639c                	ld	a5,0(a5)
ffffffff80406678:	4705                	li	a4,1
ffffffff8040667a:	08e7a423          	sw	a4,136(a5)
ffffffff8040667e:	a821                	j	ffffffff80406696 <_vprintk+0xca>
ffffffff80406680:	00019797          	auipc	a5,0x19
ffffffff80406684:	40878793          	addi	a5,a5,1032 # ffffffff8041fa88 <current_running>
ffffffff80406688:	639c                	ld	a5,0(a5)
ffffffff8040668a:	0887a703          	lw	a4,136(a5)
ffffffff8040668e:	2705                	addiw	a4,a4,1
ffffffff80406690:	2701                	sext.w	a4,a4
ffffffff80406692:	08e7a423          	sw	a4,136(a5)
ffffffff80406696:	fec42783          	lw	a5,-20(s0)
ffffffff8040669a:	2785                	addiw	a5,a5,1
ffffffff8040669c:	fef42623          	sw	a5,-20(s0)
ffffffff804066a0:	fec42703          	lw	a4,-20(s0)
ffffffff804066a4:	fe842783          	lw	a5,-24(s0)
ffffffff804066a8:	2701                	sext.w	a4,a4
ffffffff804066aa:	2781                	sext.w	a5,a5
ffffffff804066ac:	f6f74fe3          	blt	a4,a5,ffffffff8040662a <_vprintk+0x5e>
ffffffff804066b0:	9f1f90ef          	jal	ra,ffffffff804000a0 <enable_preempt>
ffffffff804066b4:	fe842783          	lw	a5,-24(s0)
ffffffff804066b8:	853e                	mv	a0,a5
ffffffff804066ba:	70f2                	ld	ra,312(sp)
ffffffff804066bc:	7452                	ld	s0,304(sp)
ffffffff804066be:	6131                	addi	sp,sp,320
ffffffff804066c0:	8082                	ret

ffffffff804066c2 <_vprints>:
ffffffff804066c2:	7129                	addi	sp,sp,-320
ffffffff804066c4:	fe06                	sd	ra,312(sp)
ffffffff804066c6:	fa22                	sd	s0,304(sp)
ffffffff804066c8:	0280                	addi	s0,sp,320
ffffffff804066ca:	eca43c23          	sd	a0,-296(s0)
ffffffff804066ce:	ecb43823          	sd	a1,-304(s0)
ffffffff804066d2:	ecc43423          	sd	a2,-312(s0)
ffffffff804066d6:	ed043783          	ld	a5,-304(s0)
ffffffff804066da:	fef43023          	sd	a5,-32(s0)
ffffffff804066de:	fe043703          	ld	a4,-32(s0)
ffffffff804066e2:	ee040793          	addi	a5,s0,-288
ffffffff804066e6:	86ba                	mv	a3,a4
ffffffff804066e8:	ed843603          	ld	a2,-296(s0)
ffffffff804066ec:	10000593          	li	a1,256
ffffffff804066f0:	853e                	mv	a0,a5
ffffffff804066f2:	b87ff0ef          	jal	ra,ffffffff80406278 <mini_vsnprintf>
ffffffff804066f6:	87aa                	mv	a5,a0
ffffffff804066f8:	fef42623          	sw	a5,-20(s0)
ffffffff804066fc:	fec42783          	lw	a5,-20(s0)
ffffffff80406700:	ff040713          	addi	a4,s0,-16
ffffffff80406704:	97ba                	add	a5,a5,a4
ffffffff80406706:	ee078823          	sb	zero,-272(a5)
ffffffff8040670a:	9bff90ef          	jal	ra,ffffffff804000c8 <disable_preempt>
ffffffff8040670e:	ee040793          	addi	a5,s0,-288
ffffffff80406712:	ec843703          	ld	a4,-312(s0)
ffffffff80406716:	853e                	mv	a0,a5
ffffffff80406718:	9702                	jalr	a4
ffffffff8040671a:	987f90ef          	jal	ra,ffffffff804000a0 <enable_preempt>
ffffffff8040671e:	fec42783          	lw	a5,-20(s0)
ffffffff80406722:	853e                	mv	a0,a5
ffffffff80406724:	70f2                	ld	ra,312(sp)
ffffffff80406726:	7452                	ld	s0,304(sp)
ffffffff80406728:	6131                	addi	sp,sp,320
ffffffff8040672a:	8082                	ret

ffffffff8040672c <vprintk>:
ffffffff8040672c:	1101                	addi	sp,sp,-32
ffffffff8040672e:	ec06                	sd	ra,24(sp)
ffffffff80406730:	e822                	sd	s0,16(sp)
ffffffff80406732:	1000                	addi	s0,sp,32
ffffffff80406734:	fea43423          	sd	a0,-24(s0)
ffffffff80406738:	feb43023          	sd	a1,-32(s0)
ffffffff8040673c:	ffffa617          	auipc	a2,0xffffa
ffffffff80406740:	bf860613          	addi	a2,a2,-1032 # ffffffff80400334 <port_write>
ffffffff80406744:	fe043583          	ld	a1,-32(s0)
ffffffff80406748:	fe843503          	ld	a0,-24(s0)
ffffffff8040674c:	e81ff0ef          	jal	ra,ffffffff804065cc <_vprintk>
ffffffff80406750:	87aa                	mv	a5,a0
ffffffff80406752:	853e                	mv	a0,a5
ffffffff80406754:	60e2                	ld	ra,24(sp)
ffffffff80406756:	6442                	ld	s0,16(sp)
ffffffff80406758:	6105                	addi	sp,sp,32
ffffffff8040675a:	8082                	ret

ffffffff8040675c <printk>:
ffffffff8040675c:	7159                	addi	sp,sp,-112
ffffffff8040675e:	f406                	sd	ra,40(sp)
ffffffff80406760:	f022                	sd	s0,32(sp)
ffffffff80406762:	1800                	addi	s0,sp,48
ffffffff80406764:	fca43c23          	sd	a0,-40(s0)
ffffffff80406768:	e40c                	sd	a1,8(s0)
ffffffff8040676a:	e810                	sd	a2,16(s0)
ffffffff8040676c:	ec14                	sd	a3,24(s0)
ffffffff8040676e:	f018                	sd	a4,32(s0)
ffffffff80406770:	f41c                	sd	a5,40(s0)
ffffffff80406772:	03043823          	sd	a6,48(s0)
ffffffff80406776:	03143c23          	sd	a7,56(s0)
ffffffff8040677a:	fe042623          	sw	zero,-20(s0)
ffffffff8040677e:	04040793          	addi	a5,s0,64
ffffffff80406782:	fc878793          	addi	a5,a5,-56
ffffffff80406786:	fef43023          	sd	a5,-32(s0)
ffffffff8040678a:	fe043783          	ld	a5,-32(s0)
ffffffff8040678e:	85be                	mv	a1,a5
ffffffff80406790:	fd843503          	ld	a0,-40(s0)
ffffffff80406794:	f99ff0ef          	jal	ra,ffffffff8040672c <vprintk>
ffffffff80406798:	87aa                	mv	a5,a0
ffffffff8040679a:	fef42623          	sw	a5,-20(s0)
ffffffff8040679e:	fec42783          	lw	a5,-20(s0)
ffffffff804067a2:	853e                	mv	a0,a5
ffffffff804067a4:	70a2                	ld	ra,40(sp)
ffffffff804067a6:	7402                	ld	s0,32(sp)
ffffffff804067a8:	6165                	addi	sp,sp,112
ffffffff804067aa:	8082                	ret

ffffffff804067ac <vprints>:
ffffffff804067ac:	1101                	addi	sp,sp,-32
ffffffff804067ae:	ec06                	sd	ra,24(sp)
ffffffff804067b0:	e822                	sd	s0,16(sp)
ffffffff804067b2:	1000                	addi	s0,sp,32
ffffffff804067b4:	fea43423          	sd	a0,-24(s0)
ffffffff804067b8:	feb43023          	sd	a1,-32(s0)
ffffffff804067bc:	ffffb617          	auipc	a2,0xffffb
ffffffff804067c0:	2e660613          	addi	a2,a2,742 # ffffffff80401aa2 <screen_write>
ffffffff804067c4:	fe043583          	ld	a1,-32(s0)
ffffffff804067c8:	fe843503          	ld	a0,-24(s0)
ffffffff804067cc:	ef7ff0ef          	jal	ra,ffffffff804066c2 <_vprints>
ffffffff804067d0:	87aa                	mv	a5,a0
ffffffff804067d2:	853e                	mv	a0,a5
ffffffff804067d4:	60e2                	ld	ra,24(sp)
ffffffff804067d6:	6442                	ld	s0,16(sp)
ffffffff804067d8:	6105                	addi	sp,sp,32
ffffffff804067da:	8082                	ret

ffffffff804067dc <prints>:
ffffffff804067dc:	7159                	addi	sp,sp,-112
ffffffff804067de:	f406                	sd	ra,40(sp)
ffffffff804067e0:	f022                	sd	s0,32(sp)
ffffffff804067e2:	1800                	addi	s0,sp,48
ffffffff804067e4:	fca43c23          	sd	a0,-40(s0)
ffffffff804067e8:	e40c                	sd	a1,8(s0)
ffffffff804067ea:	e810                	sd	a2,16(s0)
ffffffff804067ec:	ec14                	sd	a3,24(s0)
ffffffff804067ee:	f018                	sd	a4,32(s0)
ffffffff804067f0:	f41c                	sd	a5,40(s0)
ffffffff804067f2:	03043823          	sd	a6,48(s0)
ffffffff804067f6:	03143c23          	sd	a7,56(s0)
ffffffff804067fa:	fe042623          	sw	zero,-20(s0)
ffffffff804067fe:	04040793          	addi	a5,s0,64
ffffffff80406802:	fc878793          	addi	a5,a5,-56
ffffffff80406806:	fef43023          	sd	a5,-32(s0)
ffffffff8040680a:	fe043783          	ld	a5,-32(s0)
ffffffff8040680e:	85be                	mv	a1,a5
ffffffff80406810:	fd843503          	ld	a0,-40(s0)
ffffffff80406814:	f99ff0ef          	jal	ra,ffffffff804067ac <vprints>
ffffffff80406818:	87aa                	mv	a5,a0
ffffffff8040681a:	fef42623          	sw	a5,-20(s0)
ffffffff8040681e:	fec42783          	lw	a5,-20(s0)
ffffffff80406822:	853e                	mv	a0,a5
ffffffff80406824:	70a2                	ld	ra,40(sp)
ffffffff80406826:	7402                	ld	s0,32(sp)
ffffffff80406828:	6165                	addi	sp,sp,112
ffffffff8040682a:	8082                	ret

ffffffff8040682c <_vprintk_port>:
ffffffff8040682c:	7129                	addi	sp,sp,-320
ffffffff8040682e:	fe06                	sd	ra,312(sp)
ffffffff80406830:	fa22                	sd	s0,304(sp)
ffffffff80406832:	0280                	addi	s0,sp,320
ffffffff80406834:	eca43c23          	sd	a0,-296(s0)
ffffffff80406838:	ecb43823          	sd	a1,-304(s0)
ffffffff8040683c:	ecc43423          	sd	a2,-312(s0)
ffffffff80406840:	ed043783          	ld	a5,-304(s0)
ffffffff80406844:	fef43023          	sd	a5,-32(s0)
ffffffff80406848:	fe043703          	ld	a4,-32(s0)
ffffffff8040684c:	ee040793          	addi	a5,s0,-288
ffffffff80406850:	86ba                	mv	a3,a4
ffffffff80406852:	ed843603          	ld	a2,-296(s0)
ffffffff80406856:	10000593          	li	a1,256
ffffffff8040685a:	853e                	mv	a0,a5
ffffffff8040685c:	a1dff0ef          	jal	ra,ffffffff80406278 <mini_vsnprintf>
ffffffff80406860:	87aa                	mv	a5,a0
ffffffff80406862:	fef42623          	sw	a5,-20(s0)
ffffffff80406866:	fec42783          	lw	a5,-20(s0)
ffffffff8040686a:	ff040713          	addi	a4,s0,-16
ffffffff8040686e:	97ba                	add	a5,a5,a4
ffffffff80406870:	ee078823          	sb	zero,-272(a5)
ffffffff80406874:	855f90ef          	jal	ra,ffffffff804000c8 <disable_preempt>
ffffffff80406878:	ee040793          	addi	a5,s0,-288
ffffffff8040687c:	853e                	mv	a0,a5
ffffffff8040687e:	ab7f90ef          	jal	ra,ffffffff80400334 <port_write>
ffffffff80406882:	81ff90ef          	jal	ra,ffffffff804000a0 <enable_preempt>
ffffffff80406886:	fec42783          	lw	a5,-20(s0)
ffffffff8040688a:	853e                	mv	a0,a5
ffffffff8040688c:	70f2                	ld	ra,312(sp)
ffffffff8040688e:	7452                	ld	s0,304(sp)
ffffffff80406890:	6131                	addi	sp,sp,320
ffffffff80406892:	8082                	ret

ffffffff80406894 <vprintk_port>:
ffffffff80406894:	1101                	addi	sp,sp,-32
ffffffff80406896:	ec06                	sd	ra,24(sp)
ffffffff80406898:	e822                	sd	s0,16(sp)
ffffffff8040689a:	1000                	addi	s0,sp,32
ffffffff8040689c:	fea43423          	sd	a0,-24(s0)
ffffffff804068a0:	feb43023          	sd	a1,-32(s0)
ffffffff804068a4:	ffffa617          	auipc	a2,0xffffa
ffffffff804068a8:	a9060613          	addi	a2,a2,-1392 # ffffffff80400334 <port_write>
ffffffff804068ac:	fe043583          	ld	a1,-32(s0)
ffffffff804068b0:	fe843503          	ld	a0,-24(s0)
ffffffff804068b4:	f79ff0ef          	jal	ra,ffffffff8040682c <_vprintk_port>
ffffffff804068b8:	87aa                	mv	a5,a0
ffffffff804068ba:	853e                	mv	a0,a5
ffffffff804068bc:	60e2                	ld	ra,24(sp)
ffffffff804068be:	6442                	ld	s0,16(sp)
ffffffff804068c0:	6105                	addi	sp,sp,32
ffffffff804068c2:	8082                	ret

ffffffff804068c4 <printk_port>:
ffffffff804068c4:	7159                	addi	sp,sp,-112
ffffffff804068c6:	f406                	sd	ra,40(sp)
ffffffff804068c8:	f022                	sd	s0,32(sp)
ffffffff804068ca:	1800                	addi	s0,sp,48
ffffffff804068cc:	fca43c23          	sd	a0,-40(s0)
ffffffff804068d0:	e40c                	sd	a1,8(s0)
ffffffff804068d2:	e810                	sd	a2,16(s0)
ffffffff804068d4:	ec14                	sd	a3,24(s0)
ffffffff804068d6:	f018                	sd	a4,32(s0)
ffffffff804068d8:	f41c                	sd	a5,40(s0)
ffffffff804068da:	03043823          	sd	a6,48(s0)
ffffffff804068de:	03143c23          	sd	a7,56(s0)
ffffffff804068e2:	fe042623          	sw	zero,-20(s0)
ffffffff804068e6:	04040793          	addi	a5,s0,64
ffffffff804068ea:	fc878793          	addi	a5,a5,-56
ffffffff804068ee:	fef43023          	sd	a5,-32(s0)
ffffffff804068f2:	fe043783          	ld	a5,-32(s0)
ffffffff804068f6:	85be                	mv	a1,a5
ffffffff804068f8:	fd843503          	ld	a0,-40(s0)
ffffffff804068fc:	f99ff0ef          	jal	ra,ffffffff80406894 <vprintk_port>
ffffffff80406900:	87aa                	mv	a5,a0
ffffffff80406902:	fef42623          	sw	a5,-20(s0)
ffffffff80406906:	fec42783          	lw	a5,-20(s0)
ffffffff8040690a:	853e                	mv	a0,a5
ffffffff8040690c:	70a2                	ld	ra,40(sp)
ffffffff8040690e:	7402                	ld	s0,32(sp)
ffffffff80406910:	6165                	addi	sp,sp,112
ffffffff80406912:	8082                	ret

ffffffff80406914 <sdcard_init>:
ffffffff80406914:	1101                	addi	sp,sp,-32
ffffffff80406916:	ec06                	sd	ra,24(sp)
ffffffff80406918:	e822                	sd	s0,16(sp)
ffffffff8040691a:	1000                	addi	s0,sp,32
ffffffff8040691c:	1af000ef          	jal	ra,ffffffff804072ca <sd_init>
ffffffff80406920:	87aa                	mv	a5,a0
ffffffff80406922:	fef407a3          	sb	a5,-17(s0)
ffffffff80406926:	fef44783          	lbu	a5,-17(s0)
ffffffff8040692a:	0ff7f793          	andi	a5,a5,255
ffffffff8040692e:	c391                	beqz	a5,ffffffff80406932 <sdcard_init+0x1e>
ffffffff80406930:	a001                	j	ffffffff80406930 <sdcard_init+0x1c>
ffffffff80406932:	0001                	nop
ffffffff80406934:	60e2                	ld	ra,24(sp)
ffffffff80406936:	6442                	ld	s0,16(sp)
ffffffff80406938:	6105                	addi	sp,sp,32
ffffffff8040693a:	8082                	ret

ffffffff8040693c <SD_CS_HIGH>:
ffffffff8040693c:	1141                	addi	sp,sp,-16
ffffffff8040693e:	e406                	sd	ra,8(sp)
ffffffff80406940:	e022                	sd	s0,0(sp)
ffffffff80406942:	0800                	addi	s0,sp,16
ffffffff80406944:	4585                	li	a1,1
ffffffff80406946:	451d                	li	a0,7
ffffffff80406948:	3cd010ef          	jal	ra,ffffffff80408514 <gpiohs_set_pin>
ffffffff8040694c:	0001                	nop
ffffffff8040694e:	60a2                	ld	ra,8(sp)
ffffffff80406950:	6402                	ld	s0,0(sp)
ffffffff80406952:	0141                	addi	sp,sp,16
ffffffff80406954:	8082                	ret

ffffffff80406956 <SD_CS_LOW>:
ffffffff80406956:	1141                	addi	sp,sp,-16
ffffffff80406958:	e406                	sd	ra,8(sp)
ffffffff8040695a:	e022                	sd	s0,0(sp)
ffffffff8040695c:	0800                	addi	s0,sp,16
ffffffff8040695e:	4581                	li	a1,0
ffffffff80406960:	451d                	li	a0,7
ffffffff80406962:	3b3010ef          	jal	ra,ffffffff80408514 <gpiohs_set_pin>
ffffffff80406966:	0001                	nop
ffffffff80406968:	60a2                	ld	ra,8(sp)
ffffffff8040696a:	6402                	ld	s0,0(sp)
ffffffff8040696c:	0141                	addi	sp,sp,16
ffffffff8040696e:	8082                	ret

ffffffff80406970 <SD_HIGH_SPEED_ENABLE>:
ffffffff80406970:	1141                	addi	sp,sp,-16
ffffffff80406972:	e422                	sd	s0,8(sp)
ffffffff80406974:	0800                	addi	s0,sp,16
ffffffff80406976:	0001                	nop
ffffffff80406978:	6422                	ld	s0,8(sp)
ffffffff8040697a:	0141                	addi	sp,sp,16
ffffffff8040697c:	8082                	ret

ffffffff8040697e <sd_lowlevel_init>:
ffffffff8040697e:	1101                	addi	sp,sp,-32
ffffffff80406980:	ec06                	sd	ra,24(sp)
ffffffff80406982:	e822                	sd	s0,16(sp)
ffffffff80406984:	1000                	addi	s0,sp,32
ffffffff80406986:	87aa                	mv	a5,a0
ffffffff80406988:	fef407a3          	sb	a5,-17(s0)
ffffffff8040698c:	458d                	li	a1,3
ffffffff8040698e:	451d                	li	a0,7
ffffffff80406990:	23b010ef          	jal	ra,ffffffff804083ca <gpiohs_set_drive_mode>
ffffffff80406994:	0001                	nop
ffffffff80406996:	60e2                	ld	ra,24(sp)
ffffffff80406998:	6442                	ld	s0,16(sp)
ffffffff8040699a:	6105                	addi	sp,sp,32
ffffffff8040699c:	8082                	ret

ffffffff8040699e <sd_write_data>:
ffffffff8040699e:	1101                	addi	sp,sp,-32
ffffffff804069a0:	ec06                	sd	ra,24(sp)
ffffffff804069a2:	e822                	sd	s0,16(sp)
ffffffff804069a4:	1000                	addi	s0,sp,32
ffffffff804069a6:	fea43423          	sd	a0,-24(s0)
ffffffff804069aa:	87ae                	mv	a5,a1
ffffffff804069ac:	fef42223          	sw	a5,-28(s0)
ffffffff804069b0:	4701                	li	a4,0
ffffffff804069b2:	46a1                	li	a3,8
ffffffff804069b4:	4601                	li	a2,0
ffffffff804069b6:	4581                	li	a1,0
ffffffff804069b8:	4501                	li	a0,0
ffffffff804069ba:	0dc020ef          	jal	ra,ffffffff80408a96 <spi_init>
ffffffff804069be:	fe446783          	lwu	a5,-28(s0)
ffffffff804069c2:	fe843703          	ld	a4,-24(s0)
ffffffff804069c6:	4681                	li	a3,0
ffffffff804069c8:	4601                	li	a2,0
ffffffff804069ca:	4581                	li	a1,0
ffffffff804069cc:	4501                	li	a0,0
ffffffff804069ce:	5b8020ef          	jal	ra,ffffffff80408f86 <spi_send_data_standard>
ffffffff804069d2:	0001                	nop
ffffffff804069d4:	60e2                	ld	ra,24(sp)
ffffffff804069d6:	6442                	ld	s0,16(sp)
ffffffff804069d8:	6105                	addi	sp,sp,32
ffffffff804069da:	8082                	ret

ffffffff804069dc <sd_read_data>:
ffffffff804069dc:	1101                	addi	sp,sp,-32
ffffffff804069de:	ec06                	sd	ra,24(sp)
ffffffff804069e0:	e822                	sd	s0,16(sp)
ffffffff804069e2:	1000                	addi	s0,sp,32
ffffffff804069e4:	fea43423          	sd	a0,-24(s0)
ffffffff804069e8:	87ae                	mv	a5,a1
ffffffff804069ea:	fef42223          	sw	a5,-28(s0)
ffffffff804069ee:	4701                	li	a4,0
ffffffff804069f0:	46a1                	li	a3,8
ffffffff804069f2:	4601                	li	a2,0
ffffffff804069f4:	4581                	li	a1,0
ffffffff804069f6:	4501                	li	a0,0
ffffffff804069f8:	09e020ef          	jal	ra,ffffffff80408a96 <spi_init>
ffffffff804069fc:	fe446783          	lwu	a5,-28(s0)
ffffffff80406a00:	fe843703          	ld	a4,-24(s0)
ffffffff80406a04:	4681                	li	a3,0
ffffffff80406a06:	4601                	li	a2,0
ffffffff80406a08:	4581                	li	a1,0
ffffffff80406a0a:	4501                	li	a0,0
ffffffff80406a0c:	650020ef          	jal	ra,ffffffff8040905c <spi_receive_data_standard>
ffffffff80406a10:	0001                	nop
ffffffff80406a12:	60e2                	ld	ra,24(sp)
ffffffff80406a14:	6442                	ld	s0,16(sp)
ffffffff80406a16:	6105                	addi	sp,sp,32
ffffffff80406a18:	8082                	ret

ffffffff80406a1a <sd_send_cmd>:
ffffffff80406a1a:	7179                	addi	sp,sp,-48
ffffffff80406a1c:	f406                	sd	ra,40(sp)
ffffffff80406a1e:	f022                	sd	s0,32(sp)
ffffffff80406a20:	1800                	addi	s0,sp,48
ffffffff80406a22:	87aa                	mv	a5,a0
ffffffff80406a24:	86ae                	mv	a3,a1
ffffffff80406a26:	8732                	mv	a4,a2
ffffffff80406a28:	fcf40fa3          	sb	a5,-33(s0)
ffffffff80406a2c:	87b6                	mv	a5,a3
ffffffff80406a2e:	fcf42c23          	sw	a5,-40(s0)
ffffffff80406a32:	87ba                	mv	a5,a4
ffffffff80406a34:	fcf40f23          	sb	a5,-34(s0)
ffffffff80406a38:	fdf44783          	lbu	a5,-33(s0)
ffffffff80406a3c:	0407e793          	ori	a5,a5,64
ffffffff80406a40:	0ff7f793          	andi	a5,a5,255
ffffffff80406a44:	fef40423          	sb	a5,-24(s0)
ffffffff80406a48:	fd842783          	lw	a5,-40(s0)
ffffffff80406a4c:	0187d79b          	srliw	a5,a5,0x18
ffffffff80406a50:	2781                	sext.w	a5,a5
ffffffff80406a52:	0ff7f793          	andi	a5,a5,255
ffffffff80406a56:	fef404a3          	sb	a5,-23(s0)
ffffffff80406a5a:	fd842783          	lw	a5,-40(s0)
ffffffff80406a5e:	0107d79b          	srliw	a5,a5,0x10
ffffffff80406a62:	2781                	sext.w	a5,a5
ffffffff80406a64:	0ff7f793          	andi	a5,a5,255
ffffffff80406a68:	fef40523          	sb	a5,-22(s0)
ffffffff80406a6c:	fd842783          	lw	a5,-40(s0)
ffffffff80406a70:	0087d79b          	srliw	a5,a5,0x8
ffffffff80406a74:	2781                	sext.w	a5,a5
ffffffff80406a76:	0ff7f793          	andi	a5,a5,255
ffffffff80406a7a:	fef405a3          	sb	a5,-21(s0)
ffffffff80406a7e:	fd842783          	lw	a5,-40(s0)
ffffffff80406a82:	0ff7f793          	andi	a5,a5,255
ffffffff80406a86:	fef40623          	sb	a5,-20(s0)
ffffffff80406a8a:	fde44783          	lbu	a5,-34(s0)
ffffffff80406a8e:	fef406a3          	sb	a5,-19(s0)
ffffffff80406a92:	ec5ff0ef          	jal	ra,ffffffff80406956 <SD_CS_LOW>
ffffffff80406a96:	fe840793          	addi	a5,s0,-24
ffffffff80406a9a:	4599                	li	a1,6
ffffffff80406a9c:	853e                	mv	a0,a5
ffffffff80406a9e:	f01ff0ef          	jal	ra,ffffffff8040699e <sd_write_data>
ffffffff80406aa2:	0001                	nop
ffffffff80406aa4:	70a2                	ld	ra,40(sp)
ffffffff80406aa6:	7402                	ld	s0,32(sp)
ffffffff80406aa8:	6145                	addi	sp,sp,48
ffffffff80406aaa:	8082                	ret

ffffffff80406aac <sd_end_cmd>:
ffffffff80406aac:	1101                	addi	sp,sp,-32
ffffffff80406aae:	ec06                	sd	ra,24(sp)
ffffffff80406ab0:	e822                	sd	s0,16(sp)
ffffffff80406ab2:	1000                	addi	s0,sp,32
ffffffff80406ab4:	57fd                	li	a5,-1
ffffffff80406ab6:	fef40423          	sb	a5,-24(s0)
ffffffff80406aba:	e83ff0ef          	jal	ra,ffffffff8040693c <SD_CS_HIGH>
ffffffff80406abe:	fe840793          	addi	a5,s0,-24
ffffffff80406ac2:	4585                	li	a1,1
ffffffff80406ac4:	853e                	mv	a0,a5
ffffffff80406ac6:	ed9ff0ef          	jal	ra,ffffffff8040699e <sd_write_data>
ffffffff80406aca:	0001                	nop
ffffffff80406acc:	60e2                	ld	ra,24(sp)
ffffffff80406ace:	6442                	ld	s0,16(sp)
ffffffff80406ad0:	6105                	addi	sp,sp,32
ffffffff80406ad2:	8082                	ret

ffffffff80406ad4 <sd_get_response>:
ffffffff80406ad4:	1101                	addi	sp,sp,-32
ffffffff80406ad6:	ec06                	sd	ra,24(sp)
ffffffff80406ad8:	e822                	sd	s0,16(sp)
ffffffff80406ada:	1000                	addi	s0,sp,32
ffffffff80406adc:	6785                	lui	a5,0x1
ffffffff80406ade:	17fd                	addi	a5,a5,-1
ffffffff80406ae0:	fef41723          	sh	a5,-18(s0)
ffffffff80406ae4:	a00d                	j	ffffffff80406b06 <sd_get_response+0x32>
ffffffff80406ae6:	fed40793          	addi	a5,s0,-19
ffffffff80406aea:	4585                	li	a1,1
ffffffff80406aec:	853e                	mv	a0,a5
ffffffff80406aee:	eefff0ef          	jal	ra,ffffffff804069dc <sd_read_data>
ffffffff80406af2:	fed44783          	lbu	a5,-19(s0)
ffffffff80406af6:	873e                	mv	a4,a5
ffffffff80406af8:	0ff00793          	li	a5,255
ffffffff80406afc:	00f70563          	beq	a4,a5,ffffffff80406b06 <sd_get_response+0x32>
ffffffff80406b00:	fed44783          	lbu	a5,-19(s0)
ffffffff80406b04:	a811                	j	ffffffff80406b18 <sd_get_response+0x44>
ffffffff80406b06:	fee45783          	lhu	a5,-18(s0)
ffffffff80406b0a:	fff7871b          	addiw	a4,a5,-1
ffffffff80406b0e:	fee41723          	sh	a4,-18(s0)
ffffffff80406b12:	fbf1                	bnez	a5,ffffffff80406ae6 <sd_get_response+0x12>
ffffffff80406b14:	0ff00793          	li	a5,255
ffffffff80406b18:	853e                	mv	a0,a5
ffffffff80406b1a:	60e2                	ld	ra,24(sp)
ffffffff80406b1c:	6442                	ld	s0,16(sp)
ffffffff80406b1e:	6105                	addi	sp,sp,32
ffffffff80406b20:	8082                	ret

ffffffff80406b22 <sd_get_dataresponse>:
ffffffff80406b22:	1101                	addi	sp,sp,-32
ffffffff80406b24:	ec06                	sd	ra,24(sp)
ffffffff80406b26:	e822                	sd	s0,16(sp)
ffffffff80406b28:	1000                	addi	s0,sp,32
ffffffff80406b2a:	fef40793          	addi	a5,s0,-17
ffffffff80406b2e:	4585                	li	a1,1
ffffffff80406b30:	853e                	mv	a0,a5
ffffffff80406b32:	eabff0ef          	jal	ra,ffffffff804069dc <sd_read_data>
ffffffff80406b36:	fef44783          	lbu	a5,-17(s0)
ffffffff80406b3a:	8bfd                	andi	a5,a5,31
ffffffff80406b3c:	0ff7f793          	andi	a5,a5,255
ffffffff80406b40:	fef407a3          	sb	a5,-17(s0)
ffffffff80406b44:	fef44783          	lbu	a5,-17(s0)
ffffffff80406b48:	873e                	mv	a4,a5
ffffffff80406b4a:	4795                	li	a5,5
ffffffff80406b4c:	00f70563          	beq	a4,a5,ffffffff80406b56 <sd_get_dataresponse+0x34>
ffffffff80406b50:	0ff00793          	li	a5,255
ffffffff80406b54:	a015                	j	ffffffff80406b78 <sd_get_dataresponse+0x56>
ffffffff80406b56:	fef40793          	addi	a5,s0,-17
ffffffff80406b5a:	4585                	li	a1,1
ffffffff80406b5c:	853e                	mv	a0,a5
ffffffff80406b5e:	e7fff0ef          	jal	ra,ffffffff804069dc <sd_read_data>
ffffffff80406b62:	a039                	j	ffffffff80406b70 <sd_get_dataresponse+0x4e>
ffffffff80406b64:	fef40793          	addi	a5,s0,-17
ffffffff80406b68:	4585                	li	a1,1
ffffffff80406b6a:	853e                	mv	a0,a5
ffffffff80406b6c:	e71ff0ef          	jal	ra,ffffffff804069dc <sd_read_data>
ffffffff80406b70:	fef44783          	lbu	a5,-17(s0)
ffffffff80406b74:	dbe5                	beqz	a5,ffffffff80406b64 <sd_get_dataresponse+0x42>
ffffffff80406b76:	4781                	li	a5,0
ffffffff80406b78:	853e                	mv	a0,a5
ffffffff80406b7a:	60e2                	ld	ra,24(sp)
ffffffff80406b7c:	6442                	ld	s0,16(sp)
ffffffff80406b7e:	6105                	addi	sp,sp,32
ffffffff80406b80:	8082                	ret

ffffffff80406b82 <sd_get_csdregister>:
ffffffff80406b82:	7139                	addi	sp,sp,-64
ffffffff80406b84:	fc06                	sd	ra,56(sp)
ffffffff80406b86:	f822                	sd	s0,48(sp)
ffffffff80406b88:	0080                	addi	s0,sp,64
ffffffff80406b8a:	fca43423          	sd	a0,-56(s0)
ffffffff80406b8e:	0ff00793          	li	a5,255
ffffffff80406b92:	fef42623          	sw	a5,-20(s0)
ffffffff80406b96:	a835                	j	ffffffff80406bd2 <sd_get_csdregister+0x50>
ffffffff80406b98:	4601                	li	a2,0
ffffffff80406b9a:	4581                	li	a1,0
ffffffff80406b9c:	4525                	li	a0,9
ffffffff80406b9e:	e7dff0ef          	jal	ra,ffffffff80406a1a <sd_send_cmd>
ffffffff80406ba2:	f33ff0ef          	jal	ra,ffffffff80406ad4 <sd_get_response>
ffffffff80406ba6:	87aa                	mv	a5,a0
ffffffff80406ba8:	c791                	beqz	a5,ffffffff80406bb4 <sd_get_csdregister+0x32>
ffffffff80406baa:	f03ff0ef          	jal	ra,ffffffff80406aac <sd_end_cmd>
ffffffff80406bae:	0ff00793          	li	a5,255
ffffffff80406bb2:	aefd                	j	ffffffff80406fb0 <sd_get_csdregister+0x42e>
ffffffff80406bb4:	f21ff0ef          	jal	ra,ffffffff80406ad4 <sd_get_response>
ffffffff80406bb8:	87aa                	mv	a5,a0
ffffffff80406bba:	fef405a3          	sb	a5,-21(s0)
ffffffff80406bbe:	feb44783          	lbu	a5,-21(s0)
ffffffff80406bc2:	0ff7f713          	andi	a4,a5,255
ffffffff80406bc6:	0fe00793          	li	a5,254
ffffffff80406bca:	00f70c63          	beq	a4,a5,ffffffff80406be2 <sd_get_csdregister+0x60>
ffffffff80406bce:	edfff0ef          	jal	ra,ffffffff80406aac <sd_end_cmd>
ffffffff80406bd2:	fec42783          	lw	a5,-20(s0)
ffffffff80406bd6:	fff7871b          	addiw	a4,a5,-1
ffffffff80406bda:	fee42623          	sw	a4,-20(s0)
ffffffff80406bde:	ffcd                	bnez	a5,ffffffff80406b98 <sd_get_csdregister+0x16>
ffffffff80406be0:	a011                	j	ffffffff80406be4 <sd_get_csdregister+0x62>
ffffffff80406be2:	0001                	nop
ffffffff80406be4:	fec42783          	lw	a5,-20(s0)
ffffffff80406be8:	2781                	sext.w	a5,a5
ffffffff80406bea:	eb81                	bnez	a5,ffffffff80406bfa <sd_get_csdregister+0x78>
ffffffff80406bec:	00007517          	auipc	a0,0x7
ffffffff80406bf0:	e1c50513          	addi	a0,a0,-484 # ffffffff8040da08 <__FUNCTION__.1237+0x10>
ffffffff80406bf4:	b69ff0ef          	jal	ra,ffffffff8040675c <printk>
ffffffff80406bf8:	a001                	j	ffffffff80406bf8 <sd_get_csdregister+0x76>
ffffffff80406bfa:	fd840793          	addi	a5,s0,-40
ffffffff80406bfe:	45c9                	li	a1,18
ffffffff80406c00:	853e                	mv	a0,a5
ffffffff80406c02:	ddbff0ef          	jal	ra,ffffffff804069dc <sd_read_data>
ffffffff80406c06:	ea7ff0ef          	jal	ra,ffffffff80406aac <sd_end_cmd>
ffffffff80406c0a:	fd844783          	lbu	a5,-40(s0)
ffffffff80406c0e:	0067d79b          	srliw	a5,a5,0x6
ffffffff80406c12:	0ff7f713          	andi	a4,a5,255
ffffffff80406c16:	fc843783          	ld	a5,-56(s0)
ffffffff80406c1a:	00e78023          	sb	a4,0(a5) # 1000 <_start-0xffffffff803ff000>
ffffffff80406c1e:	fd844783          	lbu	a5,-40(s0)
ffffffff80406c22:	2781                	sext.w	a5,a5
ffffffff80406c24:	4027d79b          	sraiw	a5,a5,0x2
ffffffff80406c28:	2781                	sext.w	a5,a5
ffffffff80406c2a:	0ff7f793          	andi	a5,a5,255
ffffffff80406c2e:	8bbd                	andi	a5,a5,15
ffffffff80406c30:	0ff7f713          	andi	a4,a5,255
ffffffff80406c34:	fc843783          	ld	a5,-56(s0)
ffffffff80406c38:	00e780a3          	sb	a4,1(a5)
ffffffff80406c3c:	fd844783          	lbu	a5,-40(s0)
ffffffff80406c40:	8b8d                	andi	a5,a5,3
ffffffff80406c42:	0ff7f713          	andi	a4,a5,255
ffffffff80406c46:	fc843783          	ld	a5,-56(s0)
ffffffff80406c4a:	00e78123          	sb	a4,2(a5)
ffffffff80406c4e:	fd944703          	lbu	a4,-39(s0)
ffffffff80406c52:	fc843783          	ld	a5,-56(s0)
ffffffff80406c56:	00e781a3          	sb	a4,3(a5)
ffffffff80406c5a:	fda44703          	lbu	a4,-38(s0)
ffffffff80406c5e:	fc843783          	ld	a5,-56(s0)
ffffffff80406c62:	00e78223          	sb	a4,4(a5)
ffffffff80406c66:	fdb44703          	lbu	a4,-37(s0)
ffffffff80406c6a:	fc843783          	ld	a5,-56(s0)
ffffffff80406c6e:	00e782a3          	sb	a4,5(a5)
ffffffff80406c72:	fdc44783          	lbu	a5,-36(s0)
ffffffff80406c76:	17c2                	slli	a5,a5,0x30
ffffffff80406c78:	93c1                	srli	a5,a5,0x30
ffffffff80406c7a:	0047979b          	slliw	a5,a5,0x4
ffffffff80406c7e:	03079713          	slli	a4,a5,0x30
ffffffff80406c82:	9341                	srli	a4,a4,0x30
ffffffff80406c84:	fc843783          	ld	a5,-56(s0)
ffffffff80406c88:	00e79323          	sh	a4,6(a5)
ffffffff80406c8c:	fc843783          	ld	a5,-56(s0)
ffffffff80406c90:	0067d703          	lhu	a4,6(a5)
ffffffff80406c94:	fdd44783          	lbu	a5,-35(s0)
ffffffff80406c98:	0047d79b          	srliw	a5,a5,0x4
ffffffff80406c9c:	0ff7f793          	andi	a5,a5,255
ffffffff80406ca0:	17c2                	slli	a5,a5,0x30
ffffffff80406ca2:	93c1                	srli	a5,a5,0x30
ffffffff80406ca4:	8fd9                	or	a5,a5,a4
ffffffff80406ca6:	03079713          	slli	a4,a5,0x30
ffffffff80406caa:	9341                	srli	a4,a4,0x30
ffffffff80406cac:	fc843783          	ld	a5,-56(s0)
ffffffff80406cb0:	00e79323          	sh	a4,6(a5)
ffffffff80406cb4:	fdd44783          	lbu	a5,-35(s0)
ffffffff80406cb8:	8bbd                	andi	a5,a5,15
ffffffff80406cba:	0ff7f713          	andi	a4,a5,255
ffffffff80406cbe:	fc843783          	ld	a5,-56(s0)
ffffffff80406cc2:	00e78423          	sb	a4,8(a5)
ffffffff80406cc6:	fde44783          	lbu	a5,-34(s0)
ffffffff80406cca:	0077d79b          	srliw	a5,a5,0x7
ffffffff80406cce:	0ff7f713          	andi	a4,a5,255
ffffffff80406cd2:	fc843783          	ld	a5,-56(s0)
ffffffff80406cd6:	00e784a3          	sb	a4,9(a5)
ffffffff80406cda:	fde44783          	lbu	a5,-34(s0)
ffffffff80406cde:	2781                	sext.w	a5,a5
ffffffff80406ce0:	4067d79b          	sraiw	a5,a5,0x6
ffffffff80406ce4:	2781                	sext.w	a5,a5
ffffffff80406ce6:	0ff7f793          	andi	a5,a5,255
ffffffff80406cea:	8b85                	andi	a5,a5,1
ffffffff80406cec:	0ff7f713          	andi	a4,a5,255
ffffffff80406cf0:	fc843783          	ld	a5,-56(s0)
ffffffff80406cf4:	00e78523          	sb	a4,10(a5)
ffffffff80406cf8:	fde44783          	lbu	a5,-34(s0)
ffffffff80406cfc:	2781                	sext.w	a5,a5
ffffffff80406cfe:	4057d79b          	sraiw	a5,a5,0x5
ffffffff80406d02:	2781                	sext.w	a5,a5
ffffffff80406d04:	0ff7f793          	andi	a5,a5,255
ffffffff80406d08:	8b85                	andi	a5,a5,1
ffffffff80406d0a:	0ff7f713          	andi	a4,a5,255
ffffffff80406d0e:	fc843783          	ld	a5,-56(s0)
ffffffff80406d12:	00e785a3          	sb	a4,11(a5)
ffffffff80406d16:	fde44783          	lbu	a5,-34(s0)
ffffffff80406d1a:	2781                	sext.w	a5,a5
ffffffff80406d1c:	4047d79b          	sraiw	a5,a5,0x4
ffffffff80406d20:	2781                	sext.w	a5,a5
ffffffff80406d22:	0ff7f793          	andi	a5,a5,255
ffffffff80406d26:	8b85                	andi	a5,a5,1
ffffffff80406d28:	0ff7f713          	andi	a4,a5,255
ffffffff80406d2c:	fc843783          	ld	a5,-56(s0)
ffffffff80406d30:	00e78623          	sb	a4,12(a5)
ffffffff80406d34:	fc843783          	ld	a5,-56(s0)
ffffffff80406d38:	000786a3          	sb	zero,13(a5)
ffffffff80406d3c:	fde44783          	lbu	a5,-34(s0)
ffffffff80406d40:	2781                	sext.w	a5,a5
ffffffff80406d42:	00a7979b          	slliw	a5,a5,0xa
ffffffff80406d46:	2781                	sext.w	a5,a5
ffffffff80406d48:	2781                	sext.w	a5,a5
ffffffff80406d4a:	873e                	mv	a4,a5
ffffffff80406d4c:	6785                	lui	a5,0x1
ffffffff80406d4e:	c0078793          	addi	a5,a5,-1024 # c00 <_start-0xffffffff803ff400>
ffffffff80406d52:	8ff9                	and	a5,a5,a4
ffffffff80406d54:	0007871b          	sext.w	a4,a5
ffffffff80406d58:	fc843783          	ld	a5,-56(s0)
ffffffff80406d5c:	cb98                	sw	a4,16(a5)
ffffffff80406d5e:	fdf44783          	lbu	a5,-33(s0)
ffffffff80406d62:	2781                	sext.w	a5,a5
ffffffff80406d64:	0107979b          	slliw	a5,a5,0x10
ffffffff80406d68:	2781                	sext.w	a5,a5
ffffffff80406d6a:	2781                	sext.w	a5,a5
ffffffff80406d6c:	873e                	mv	a4,a5
ffffffff80406d6e:	003f07b7          	lui	a5,0x3f0
ffffffff80406d72:	8ff9                	and	a5,a5,a4
ffffffff80406d74:	0007871b          	sext.w	a4,a5
ffffffff80406d78:	fc843783          	ld	a5,-56(s0)
ffffffff80406d7c:	cb98                	sw	a4,16(a5)
ffffffff80406d7e:	fc843783          	ld	a5,-56(s0)
ffffffff80406d82:	4b98                	lw	a4,16(a5)
ffffffff80406d84:	fe044783          	lbu	a5,-32(s0)
ffffffff80406d88:	2781                	sext.w	a5,a5
ffffffff80406d8a:	0087979b          	slliw	a5,a5,0x8
ffffffff80406d8e:	2781                	sext.w	a5,a5
ffffffff80406d90:	2781                	sext.w	a5,a5
ffffffff80406d92:	8fd9                	or	a5,a5,a4
ffffffff80406d94:	0007871b          	sext.w	a4,a5
ffffffff80406d98:	fc843783          	ld	a5,-56(s0)
ffffffff80406d9c:	cb98                	sw	a4,16(a5)
ffffffff80406d9e:	fc843783          	ld	a5,-56(s0)
ffffffff80406da2:	4b98                	lw	a4,16(a5)
ffffffff80406da4:	fe144783          	lbu	a5,-31(s0)
ffffffff80406da8:	2781                	sext.w	a5,a5
ffffffff80406daa:	8fd9                	or	a5,a5,a4
ffffffff80406dac:	0007871b          	sext.w	a4,a5
ffffffff80406db0:	fc843783          	ld	a5,-56(s0)
ffffffff80406db4:	cb98                	sw	a4,16(a5)
ffffffff80406db6:	fe244783          	lbu	a5,-30(s0)
ffffffff80406dba:	2781                	sext.w	a5,a5
ffffffff80406dbc:	4067d79b          	sraiw	a5,a5,0x6
ffffffff80406dc0:	2781                	sext.w	a5,a5
ffffffff80406dc2:	0ff7f793          	andi	a5,a5,255
ffffffff80406dc6:	8b85                	andi	a5,a5,1
ffffffff80406dc8:	0ff7f713          	andi	a4,a5,255
ffffffff80406dcc:	fc843783          	ld	a5,-56(s0)
ffffffff80406dd0:	00e78ca3          	sb	a4,25(a5) # 3f0019 <_start-0xffffffff8000ffe7>
ffffffff80406dd4:	fe244783          	lbu	a5,-30(s0)
ffffffff80406dd8:	2781                	sext.w	a5,a5
ffffffff80406dda:	0017979b          	slliw	a5,a5,0x1
ffffffff80406dde:	2781                	sext.w	a5,a5
ffffffff80406de0:	0ff7f793          	andi	a5,a5,255
ffffffff80406de4:	07e7f793          	andi	a5,a5,126
ffffffff80406de8:	0ff7f713          	andi	a4,a5,255
ffffffff80406dec:	fc843783          	ld	a5,-56(s0)
ffffffff80406df0:	00e78d23          	sb	a4,26(a5)
ffffffff80406df4:	fc843783          	ld	a5,-56(s0)
ffffffff80406df8:	01a7c703          	lbu	a4,26(a5)
ffffffff80406dfc:	fe344783          	lbu	a5,-29(s0)
ffffffff80406e00:	0077d79b          	srliw	a5,a5,0x7
ffffffff80406e04:	0ff7f793          	andi	a5,a5,255
ffffffff80406e08:	8fd9                	or	a5,a5,a4
ffffffff80406e0a:	0ff7f713          	andi	a4,a5,255
ffffffff80406e0e:	fc843783          	ld	a5,-56(s0)
ffffffff80406e12:	00e78d23          	sb	a4,26(a5)
ffffffff80406e16:	fe344783          	lbu	a5,-29(s0)
ffffffff80406e1a:	07f7f793          	andi	a5,a5,127
ffffffff80406e1e:	0ff7f713          	andi	a4,a5,255
ffffffff80406e22:	fc843783          	ld	a5,-56(s0)
ffffffff80406e26:	00e78da3          	sb	a4,27(a5)
ffffffff80406e2a:	fe444783          	lbu	a5,-28(s0)
ffffffff80406e2e:	0077d79b          	srliw	a5,a5,0x7
ffffffff80406e32:	0ff7f713          	andi	a4,a5,255
ffffffff80406e36:	fc843783          	ld	a5,-56(s0)
ffffffff80406e3a:	00e78e23          	sb	a4,28(a5)
ffffffff80406e3e:	fe444783          	lbu	a5,-28(s0)
ffffffff80406e42:	2781                	sext.w	a5,a5
ffffffff80406e44:	4057d79b          	sraiw	a5,a5,0x5
ffffffff80406e48:	2781                	sext.w	a5,a5
ffffffff80406e4a:	0ff7f793          	andi	a5,a5,255
ffffffff80406e4e:	8b8d                	andi	a5,a5,3
ffffffff80406e50:	0ff7f713          	andi	a4,a5,255
ffffffff80406e54:	fc843783          	ld	a5,-56(s0)
ffffffff80406e58:	00e78ea3          	sb	a4,29(a5)
ffffffff80406e5c:	fe444783          	lbu	a5,-28(s0)
ffffffff80406e60:	2781                	sext.w	a5,a5
ffffffff80406e62:	4027d79b          	sraiw	a5,a5,0x2
ffffffff80406e66:	2781                	sext.w	a5,a5
ffffffff80406e68:	0ff7f793          	andi	a5,a5,255
ffffffff80406e6c:	8b9d                	andi	a5,a5,7
ffffffff80406e6e:	0ff7f713          	andi	a4,a5,255
ffffffff80406e72:	fc843783          	ld	a5,-56(s0)
ffffffff80406e76:	00e78f23          	sb	a4,30(a5)
ffffffff80406e7a:	fe444783          	lbu	a5,-28(s0)
ffffffff80406e7e:	2781                	sext.w	a5,a5
ffffffff80406e80:	0027979b          	slliw	a5,a5,0x2
ffffffff80406e84:	2781                	sext.w	a5,a5
ffffffff80406e86:	0ff7f793          	andi	a5,a5,255
ffffffff80406e8a:	8bb1                	andi	a5,a5,12
ffffffff80406e8c:	0ff7f713          	andi	a4,a5,255
ffffffff80406e90:	fc843783          	ld	a5,-56(s0)
ffffffff80406e94:	00e78fa3          	sb	a4,31(a5)
ffffffff80406e98:	fc843783          	ld	a5,-56(s0)
ffffffff80406e9c:	01f7c703          	lbu	a4,31(a5)
ffffffff80406ea0:	fe544783          	lbu	a5,-27(s0)
ffffffff80406ea4:	0067d79b          	srliw	a5,a5,0x6
ffffffff80406ea8:	0ff7f793          	andi	a5,a5,255
ffffffff80406eac:	8fd9                	or	a5,a5,a4
ffffffff80406eae:	0ff7f713          	andi	a4,a5,255
ffffffff80406eb2:	fc843783          	ld	a5,-56(s0)
ffffffff80406eb6:	00e78fa3          	sb	a4,31(a5)
ffffffff80406eba:	fe544783          	lbu	a5,-27(s0)
ffffffff80406ebe:	2781                	sext.w	a5,a5
ffffffff80406ec0:	4057d79b          	sraiw	a5,a5,0x5
ffffffff80406ec4:	2781                	sext.w	a5,a5
ffffffff80406ec6:	0ff7f793          	andi	a5,a5,255
ffffffff80406eca:	8b85                	andi	a5,a5,1
ffffffff80406ecc:	0ff7f713          	andi	a4,a5,255
ffffffff80406ed0:	fc843783          	ld	a5,-56(s0)
ffffffff80406ed4:	02e78023          	sb	a4,32(a5)
ffffffff80406ed8:	fc843783          	ld	a5,-56(s0)
ffffffff80406edc:	020780a3          	sb	zero,33(a5)
ffffffff80406ee0:	fe544783          	lbu	a5,-27(s0)
ffffffff80406ee4:	8b85                	andi	a5,a5,1
ffffffff80406ee6:	0ff7f713          	andi	a4,a5,255
ffffffff80406eea:	fc843783          	ld	a5,-56(s0)
ffffffff80406eee:	02e78123          	sb	a4,34(a5)
ffffffff80406ef2:	fe644783          	lbu	a5,-26(s0)
ffffffff80406ef6:	0077d79b          	srliw	a5,a5,0x7
ffffffff80406efa:	0ff7f713          	andi	a4,a5,255
ffffffff80406efe:	fc843783          	ld	a5,-56(s0)
ffffffff80406f02:	02e781a3          	sb	a4,35(a5)
ffffffff80406f06:	fe644783          	lbu	a5,-26(s0)
ffffffff80406f0a:	2781                	sext.w	a5,a5
ffffffff80406f0c:	4067d79b          	sraiw	a5,a5,0x6
ffffffff80406f10:	2781                	sext.w	a5,a5
ffffffff80406f12:	0ff7f793          	andi	a5,a5,255
ffffffff80406f16:	8b85                	andi	a5,a5,1
ffffffff80406f18:	0ff7f713          	andi	a4,a5,255
ffffffff80406f1c:	fc843783          	ld	a5,-56(s0)
ffffffff80406f20:	02e78223          	sb	a4,36(a5)
ffffffff80406f24:	fe644783          	lbu	a5,-26(s0)
ffffffff80406f28:	2781                	sext.w	a5,a5
ffffffff80406f2a:	4057d79b          	sraiw	a5,a5,0x5
ffffffff80406f2e:	2781                	sext.w	a5,a5
ffffffff80406f30:	0ff7f793          	andi	a5,a5,255
ffffffff80406f34:	8b85                	andi	a5,a5,1
ffffffff80406f36:	0ff7f713          	andi	a4,a5,255
ffffffff80406f3a:	fc843783          	ld	a5,-56(s0)
ffffffff80406f3e:	02e782a3          	sb	a4,37(a5)
ffffffff80406f42:	fe644783          	lbu	a5,-26(s0)
ffffffff80406f46:	2781                	sext.w	a5,a5
ffffffff80406f48:	4047d79b          	sraiw	a5,a5,0x4
ffffffff80406f4c:	2781                	sext.w	a5,a5
ffffffff80406f4e:	0ff7f793          	andi	a5,a5,255
ffffffff80406f52:	8b85                	andi	a5,a5,1
ffffffff80406f54:	0ff7f713          	andi	a4,a5,255
ffffffff80406f58:	fc843783          	ld	a5,-56(s0)
ffffffff80406f5c:	02e78323          	sb	a4,38(a5)
ffffffff80406f60:	fe644783          	lbu	a5,-26(s0)
ffffffff80406f64:	2781                	sext.w	a5,a5
ffffffff80406f66:	4027d79b          	sraiw	a5,a5,0x2
ffffffff80406f6a:	2781                	sext.w	a5,a5
ffffffff80406f6c:	0ff7f793          	andi	a5,a5,255
ffffffff80406f70:	8b8d                	andi	a5,a5,3
ffffffff80406f72:	0ff7f713          	andi	a4,a5,255
ffffffff80406f76:	fc843783          	ld	a5,-56(s0)
ffffffff80406f7a:	02e783a3          	sb	a4,39(a5)
ffffffff80406f7e:	fe644783          	lbu	a5,-26(s0)
ffffffff80406f82:	8b8d                	andi	a5,a5,3
ffffffff80406f84:	0ff7f713          	andi	a4,a5,255
ffffffff80406f88:	fc843783          	ld	a5,-56(s0)
ffffffff80406f8c:	02e78423          	sb	a4,40(a5)
ffffffff80406f90:	fe744783          	lbu	a5,-25(s0)
ffffffff80406f94:	0017d79b          	srliw	a5,a5,0x1
ffffffff80406f98:	0ff7f713          	andi	a4,a5,255
ffffffff80406f9c:	fc843783          	ld	a5,-56(s0)
ffffffff80406fa0:	02e784a3          	sb	a4,41(a5)
ffffffff80406fa4:	fc843783          	ld	a5,-56(s0)
ffffffff80406fa8:	4705                	li	a4,1
ffffffff80406faa:	02e78523          	sb	a4,42(a5)
ffffffff80406fae:	4781                	li	a5,0
ffffffff80406fb0:	853e                	mv	a0,a5
ffffffff80406fb2:	70e2                	ld	ra,56(sp)
ffffffff80406fb4:	7442                	ld	s0,48(sp)
ffffffff80406fb6:	6121                	addi	sp,sp,64
ffffffff80406fb8:	8082                	ret

ffffffff80406fba <sd_get_cidregister>:
ffffffff80406fba:	7139                	addi	sp,sp,-64
ffffffff80406fbc:	fc06                	sd	ra,56(sp)
ffffffff80406fbe:	f822                	sd	s0,48(sp)
ffffffff80406fc0:	0080                	addi	s0,sp,64
ffffffff80406fc2:	fca43423          	sd	a0,-56(s0)
ffffffff80406fc6:	0ff00793          	li	a5,255
ffffffff80406fca:	fef42623          	sw	a5,-20(s0)
ffffffff80406fce:	a085                	j	ffffffff8040702e <sd_get_cidregister+0x74>
ffffffff80406fd0:	4601                	li	a2,0
ffffffff80406fd2:	4581                	li	a1,0
ffffffff80406fd4:	4529                	li	a0,10
ffffffff80406fd6:	a45ff0ef          	jal	ra,ffffffff80406a1a <sd_send_cmd>
ffffffff80406fda:	afbff0ef          	jal	ra,ffffffff80406ad4 <sd_get_response>
ffffffff80406fde:	87aa                	mv	a5,a0
ffffffff80406fe0:	cb81                	beqz	a5,ffffffff80406ff0 <sd_get_cidregister+0x36>
ffffffff80406fe2:	00007517          	auipc	a0,0x7
ffffffff80406fe6:	a2e50513          	addi	a0,a0,-1490 # ffffffff8040da10 <__FUNCTION__.1237+0x18>
ffffffff80406fea:	f72ff0ef          	jal	ra,ffffffff8040675c <printk>
ffffffff80406fee:	a001                	j	ffffffff80406fee <sd_get_cidregister+0x34>
ffffffff80406ff0:	ae5ff0ef          	jal	ra,ffffffff80406ad4 <sd_get_response>
ffffffff80406ff4:	87aa                	mv	a5,a0
ffffffff80406ff6:	fef405a3          	sb	a5,-21(s0)
ffffffff80406ffa:	feb44783          	lbu	a5,-21(s0)
ffffffff80406ffe:	0ff7f713          	andi	a4,a5,255
ffffffff80407002:	0fe00793          	li	a5,254
ffffffff80407006:	02f70c63          	beq	a4,a5,ffffffff8040703e <sd_get_cidregister+0x84>
ffffffff8040700a:	00007517          	auipc	a0,0x7
ffffffff8040700e:	a0e50513          	addi	a0,a0,-1522 # ffffffff8040da18 <__FUNCTION__.1237+0x20>
ffffffff80407012:	f4aff0ef          	jal	ra,ffffffff8040675c <printk>
ffffffff80407016:	feb44783          	lbu	a5,-21(s0)
ffffffff8040701a:	2781                	sext.w	a5,a5
ffffffff8040701c:	85be                	mv	a1,a5
ffffffff8040701e:	00007517          	auipc	a0,0x7
ffffffff80407022:	a0250513          	addi	a0,a0,-1534 # ffffffff8040da20 <__FUNCTION__.1237+0x28>
ffffffff80407026:	f36ff0ef          	jal	ra,ffffffff8040675c <printk>
ffffffff8040702a:	a83ff0ef          	jal	ra,ffffffff80406aac <sd_end_cmd>
ffffffff8040702e:	fec42783          	lw	a5,-20(s0)
ffffffff80407032:	fff7871b          	addiw	a4,a5,-1
ffffffff80407036:	fee42623          	sw	a4,-20(s0)
ffffffff8040703a:	fbd9                	bnez	a5,ffffffff80406fd0 <sd_get_cidregister+0x16>
ffffffff8040703c:	a011                	j	ffffffff80407040 <sd_get_cidregister+0x86>
ffffffff8040703e:	0001                	nop
ffffffff80407040:	fec42783          	lw	a5,-20(s0)
ffffffff80407044:	2781                	sext.w	a5,a5
ffffffff80407046:	eb81                	bnez	a5,ffffffff80407056 <sd_get_cidregister+0x9c>
ffffffff80407048:	00007517          	auipc	a0,0x7
ffffffff8040704c:	9c050513          	addi	a0,a0,-1600 # ffffffff8040da08 <__FUNCTION__.1237+0x10>
ffffffff80407050:	f0cff0ef          	jal	ra,ffffffff8040675c <printk>
ffffffff80407054:	a001                	j	ffffffff80407054 <sd_get_cidregister+0x9a>
ffffffff80407056:	fd840793          	addi	a5,s0,-40
ffffffff8040705a:	45c9                	li	a1,18
ffffffff8040705c:	853e                	mv	a0,a5
ffffffff8040705e:	97fff0ef          	jal	ra,ffffffff804069dc <sd_read_data>
ffffffff80407062:	a4bff0ef          	jal	ra,ffffffff80406aac <sd_end_cmd>
ffffffff80407066:	fd844703          	lbu	a4,-40(s0)
ffffffff8040706a:	fc843783          	ld	a5,-56(s0)
ffffffff8040706e:	00e78023          	sb	a4,0(a5)
ffffffff80407072:	fd944783          	lbu	a5,-39(s0)
ffffffff80407076:	17c2                	slli	a5,a5,0x30
ffffffff80407078:	93c1                	srli	a5,a5,0x30
ffffffff8040707a:	0087979b          	slliw	a5,a5,0x8
ffffffff8040707e:	03079713          	slli	a4,a5,0x30
ffffffff80407082:	9341                	srli	a4,a4,0x30
ffffffff80407084:	fc843783          	ld	a5,-56(s0)
ffffffff80407088:	00e79123          	sh	a4,2(a5)
ffffffff8040708c:	fc843783          	ld	a5,-56(s0)
ffffffff80407090:	0027d703          	lhu	a4,2(a5)
ffffffff80407094:	fda44783          	lbu	a5,-38(s0)
ffffffff80407098:	17c2                	slli	a5,a5,0x30
ffffffff8040709a:	93c1                	srli	a5,a5,0x30
ffffffff8040709c:	8fd9                	or	a5,a5,a4
ffffffff8040709e:	03079713          	slli	a4,a5,0x30
ffffffff804070a2:	9341                	srli	a4,a4,0x30
ffffffff804070a4:	fc843783          	ld	a5,-56(s0)
ffffffff804070a8:	00e79123          	sh	a4,2(a5)
ffffffff804070ac:	fdb44783          	lbu	a5,-37(s0)
ffffffff804070b0:	2781                	sext.w	a5,a5
ffffffff804070b2:	0187979b          	slliw	a5,a5,0x18
ffffffff804070b6:	2781                	sext.w	a5,a5
ffffffff804070b8:	0007871b          	sext.w	a4,a5
ffffffff804070bc:	fc843783          	ld	a5,-56(s0)
ffffffff804070c0:	c3d8                	sw	a4,4(a5)
ffffffff804070c2:	fc843783          	ld	a5,-56(s0)
ffffffff804070c6:	43d8                	lw	a4,4(a5)
ffffffff804070c8:	fdc44783          	lbu	a5,-36(s0)
ffffffff804070cc:	2781                	sext.w	a5,a5
ffffffff804070ce:	0107979b          	slliw	a5,a5,0x10
ffffffff804070d2:	2781                	sext.w	a5,a5
ffffffff804070d4:	2781                	sext.w	a5,a5
ffffffff804070d6:	8fd9                	or	a5,a5,a4
ffffffff804070d8:	0007871b          	sext.w	a4,a5
ffffffff804070dc:	fc843783          	ld	a5,-56(s0)
ffffffff804070e0:	c3d8                	sw	a4,4(a5)
ffffffff804070e2:	fc843783          	ld	a5,-56(s0)
ffffffff804070e6:	43d8                	lw	a4,4(a5)
ffffffff804070e8:	fdd44783          	lbu	a5,-35(s0)
ffffffff804070ec:	2781                	sext.w	a5,a5
ffffffff804070ee:	0087979b          	slliw	a5,a5,0x8
ffffffff804070f2:	2781                	sext.w	a5,a5
ffffffff804070f4:	2781                	sext.w	a5,a5
ffffffff804070f6:	8fd9                	or	a5,a5,a4
ffffffff804070f8:	0007871b          	sext.w	a4,a5
ffffffff804070fc:	fc843783          	ld	a5,-56(s0)
ffffffff80407100:	c3d8                	sw	a4,4(a5)
ffffffff80407102:	fc843783          	ld	a5,-56(s0)
ffffffff80407106:	43d8                	lw	a4,4(a5)
ffffffff80407108:	fde44783          	lbu	a5,-34(s0)
ffffffff8040710c:	2781                	sext.w	a5,a5
ffffffff8040710e:	8fd9                	or	a5,a5,a4
ffffffff80407110:	0007871b          	sext.w	a4,a5
ffffffff80407114:	fc843783          	ld	a5,-56(s0)
ffffffff80407118:	c3d8                	sw	a4,4(a5)
ffffffff8040711a:	fdf44703          	lbu	a4,-33(s0)
ffffffff8040711e:	fc843783          	ld	a5,-56(s0)
ffffffff80407122:	00e78423          	sb	a4,8(a5)
ffffffff80407126:	fe044703          	lbu	a4,-32(s0)
ffffffff8040712a:	fc843783          	ld	a5,-56(s0)
ffffffff8040712e:	00e784a3          	sb	a4,9(a5)
ffffffff80407132:	fe144783          	lbu	a5,-31(s0)
ffffffff80407136:	2781                	sext.w	a5,a5
ffffffff80407138:	0187979b          	slliw	a5,a5,0x18
ffffffff8040713c:	2781                	sext.w	a5,a5
ffffffff8040713e:	0007871b          	sext.w	a4,a5
ffffffff80407142:	fc843783          	ld	a5,-56(s0)
ffffffff80407146:	c7d8                	sw	a4,12(a5)
ffffffff80407148:	fc843783          	ld	a5,-56(s0)
ffffffff8040714c:	47d8                	lw	a4,12(a5)
ffffffff8040714e:	fe244783          	lbu	a5,-30(s0)
ffffffff80407152:	2781                	sext.w	a5,a5
ffffffff80407154:	0107979b          	slliw	a5,a5,0x10
ffffffff80407158:	2781                	sext.w	a5,a5
ffffffff8040715a:	2781                	sext.w	a5,a5
ffffffff8040715c:	8fd9                	or	a5,a5,a4
ffffffff8040715e:	0007871b          	sext.w	a4,a5
ffffffff80407162:	fc843783          	ld	a5,-56(s0)
ffffffff80407166:	c7d8                	sw	a4,12(a5)
ffffffff80407168:	fc843783          	ld	a5,-56(s0)
ffffffff8040716c:	47d8                	lw	a4,12(a5)
ffffffff8040716e:	fe344783          	lbu	a5,-29(s0)
ffffffff80407172:	2781                	sext.w	a5,a5
ffffffff80407174:	0087979b          	slliw	a5,a5,0x8
ffffffff80407178:	2781                	sext.w	a5,a5
ffffffff8040717a:	2781                	sext.w	a5,a5
ffffffff8040717c:	8fd9                	or	a5,a5,a4
ffffffff8040717e:	0007871b          	sext.w	a4,a5
ffffffff80407182:	fc843783          	ld	a5,-56(s0)
ffffffff80407186:	c7d8                	sw	a4,12(a5)
ffffffff80407188:	fc843783          	ld	a5,-56(s0)
ffffffff8040718c:	47d8                	lw	a4,12(a5)
ffffffff8040718e:	fe444783          	lbu	a5,-28(s0)
ffffffff80407192:	2781                	sext.w	a5,a5
ffffffff80407194:	8fd9                	or	a5,a5,a4
ffffffff80407196:	0007871b          	sext.w	a4,a5
ffffffff8040719a:	fc843783          	ld	a5,-56(s0)
ffffffff8040719e:	c7d8                	sw	a4,12(a5)
ffffffff804071a0:	fc843783          	ld	a5,-56(s0)
ffffffff804071a4:	0107c703          	lbu	a4,16(a5)
ffffffff804071a8:	fe544783          	lbu	a5,-27(s0)
ffffffff804071ac:	0047d79b          	srliw	a5,a5,0x4
ffffffff804071b0:	0ff7f793          	andi	a5,a5,255
ffffffff804071b4:	8fd9                	or	a5,a5,a4
ffffffff804071b6:	0ff7f713          	andi	a4,a5,255
ffffffff804071ba:	fc843783          	ld	a5,-56(s0)
ffffffff804071be:	00e78823          	sb	a4,16(a5)
ffffffff804071c2:	fe544783          	lbu	a5,-27(s0)
ffffffff804071c6:	2781                	sext.w	a5,a5
ffffffff804071c8:	0087979b          	slliw	a5,a5,0x8
ffffffff804071cc:	2781                	sext.w	a5,a5
ffffffff804071ce:	03079713          	slli	a4,a5,0x30
ffffffff804071d2:	9341                	srli	a4,a4,0x30
ffffffff804071d4:	6785                	lui	a5,0x1
ffffffff804071d6:	f0078793          	addi	a5,a5,-256 # f00 <_start-0xffffffff803ff100>
ffffffff804071da:	8ff9                	and	a5,a5,a4
ffffffff804071dc:	03079713          	slli	a4,a5,0x30
ffffffff804071e0:	9341                	srli	a4,a4,0x30
ffffffff804071e2:	fc843783          	ld	a5,-56(s0)
ffffffff804071e6:	00e79923          	sh	a4,18(a5)
ffffffff804071ea:	fc843783          	ld	a5,-56(s0)
ffffffff804071ee:	0127d703          	lhu	a4,18(a5)
ffffffff804071f2:	fe644783          	lbu	a5,-26(s0)
ffffffff804071f6:	17c2                	slli	a5,a5,0x30
ffffffff804071f8:	93c1                	srli	a5,a5,0x30
ffffffff804071fa:	8fd9                	or	a5,a5,a4
ffffffff804071fc:	03079713          	slli	a4,a5,0x30
ffffffff80407200:	9341                	srli	a4,a4,0x30
ffffffff80407202:	fc843783          	ld	a5,-56(s0)
ffffffff80407206:	00e79923          	sh	a4,18(a5)
ffffffff8040720a:	fe744783          	lbu	a5,-25(s0)
ffffffff8040720e:	0017d79b          	srliw	a5,a5,0x1
ffffffff80407212:	0ff7f713          	andi	a4,a5,255
ffffffff80407216:	fc843783          	ld	a5,-56(s0)
ffffffff8040721a:	00e78a23          	sb	a4,20(a5)
ffffffff8040721e:	fc843783          	ld	a5,-56(s0)
ffffffff80407222:	4705                	li	a4,1
ffffffff80407224:	00e78aa3          	sb	a4,21(a5)
ffffffff80407228:	4781                	li	a5,0
ffffffff8040722a:	853e                	mv	a0,a5
ffffffff8040722c:	70e2                	ld	ra,56(sp)
ffffffff8040722e:	7442                	ld	s0,48(sp)
ffffffff80407230:	6121                	addi	sp,sp,64
ffffffff80407232:	8082                	ret

ffffffff80407234 <sd_get_cardinfo>:
ffffffff80407234:	1101                	addi	sp,sp,-32
ffffffff80407236:	ec06                	sd	ra,24(sp)
ffffffff80407238:	e822                	sd	s0,16(sp)
ffffffff8040723a:	1000                	addi	s0,sp,32
ffffffff8040723c:	fea43423          	sd	a0,-24(s0)
ffffffff80407240:	fe843783          	ld	a5,-24(s0)
ffffffff80407244:	853e                	mv	a0,a5
ffffffff80407246:	93dff0ef          	jal	ra,ffffffff80406b82 <sd_get_csdregister>
ffffffff8040724a:	87aa                	mv	a5,a0
ffffffff8040724c:	c781                	beqz	a5,ffffffff80407254 <sd_get_cardinfo+0x20>
ffffffff8040724e:	0ff00793          	li	a5,255
ffffffff80407252:	a0bd                	j	ffffffff804072c0 <sd_get_cardinfo+0x8c>
ffffffff80407254:	fe843783          	ld	a5,-24(s0)
ffffffff80407258:	02c78793          	addi	a5,a5,44
ffffffff8040725c:	853e                	mv	a0,a5
ffffffff8040725e:	d5dff0ef          	jal	ra,ffffffff80406fba <sd_get_cidregister>
ffffffff80407262:	87aa                	mv	a5,a0
ffffffff80407264:	c781                	beqz	a5,ffffffff8040726c <sd_get_cardinfo+0x38>
ffffffff80407266:	0ff00793          	li	a5,255
ffffffff8040726a:	a899                	j	ffffffff804072c0 <sd_get_cardinfo+0x8c>
ffffffff8040726c:	fe843783          	ld	a5,-24(s0)
ffffffff80407270:	4b9c                	lw	a5,16(a5)
ffffffff80407272:	2785                	addiw	a5,a5,1
ffffffff80407274:	2781                	sext.w	a5,a5
ffffffff80407276:	00a7979b          	slliw	a5,a5,0xa
ffffffff8040727a:	2781                	sext.w	a5,a5
ffffffff8040727c:	02079713          	slli	a4,a5,0x20
ffffffff80407280:	9301                	srli	a4,a4,0x20
ffffffff80407282:	fe843783          	ld	a5,-24(s0)
ffffffff80407286:	e7b8                	sd	a4,72(a5)
ffffffff80407288:	fe843783          	ld	a5,-24(s0)
ffffffff8040728c:	0087c783          	lbu	a5,8(a5)
ffffffff80407290:	2781                	sext.w	a5,a5
ffffffff80407292:	4705                	li	a4,1
ffffffff80407294:	00f717bb          	sllw	a5,a4,a5
ffffffff80407298:	2781                	sext.w	a5,a5
ffffffff8040729a:	0007871b          	sext.w	a4,a5
ffffffff8040729e:	fe843783          	ld	a5,-24(s0)
ffffffff804072a2:	cbb8                	sw	a4,80(a5)
ffffffff804072a4:	fe843783          	ld	a5,-24(s0)
ffffffff804072a8:	67b8                	ld	a4,72(a5)
ffffffff804072aa:	fe843783          	ld	a5,-24(s0)
ffffffff804072ae:	4bbc                	lw	a5,80(a5)
ffffffff804072b0:	1782                	slli	a5,a5,0x20
ffffffff804072b2:	9381                	srli	a5,a5,0x20
ffffffff804072b4:	02f70733          	mul	a4,a4,a5
ffffffff804072b8:	fe843783          	ld	a5,-24(s0)
ffffffff804072bc:	e7b8                	sd	a4,72(a5)
ffffffff804072be:	4781                	li	a5,0
ffffffff804072c0:	853e                	mv	a0,a5
ffffffff804072c2:	60e2                	ld	ra,24(sp)
ffffffff804072c4:	6442                	ld	s0,16(sp)
ffffffff804072c6:	6105                	addi	sp,sp,32
ffffffff804072c8:	8082                	ret

ffffffff804072ca <sd_init>:
ffffffff804072ca:	1101                	addi	sp,sp,-32
ffffffff804072cc:	ec06                	sd	ra,24(sp)
ffffffff804072ce:	e822                	sd	s0,16(sp)
ffffffff804072d0:	1000                	addi	s0,sp,32
ffffffff804072d2:	4501                	li	a0,0
ffffffff804072d4:	eaaff0ef          	jal	ra,ffffffff8040697e <sd_lowlevel_init>
ffffffff804072d8:	e64ff0ef          	jal	ra,ffffffff8040693c <SD_CS_HIGH>
ffffffff804072dc:	fe0407a3          	sb	zero,-17(s0)
ffffffff804072e0:	a839                	j	ffffffff804072fe <sd_init+0x34>
ffffffff804072e2:	fef44783          	lbu	a5,-17(s0)
ffffffff804072e6:	2781                	sext.w	a5,a5
ffffffff804072e8:	ff040713          	addi	a4,s0,-16
ffffffff804072ec:	97ba                	add	a5,a5,a4
ffffffff804072ee:	577d                	li	a4,-1
ffffffff804072f0:	fee78823          	sb	a4,-16(a5)
ffffffff804072f4:	fef44783          	lbu	a5,-17(s0)
ffffffff804072f8:	2785                	addiw	a5,a5,1
ffffffff804072fa:	fef407a3          	sb	a5,-17(s0)
ffffffff804072fe:	fef44783          	lbu	a5,-17(s0)
ffffffff80407302:	0ff7f713          	andi	a4,a5,255
ffffffff80407306:	47a5                	li	a5,9
ffffffff80407308:	fce7fde3          	bgeu	a5,a4,ffffffff804072e2 <sd_init+0x18>
ffffffff8040730c:	fe040793          	addi	a5,s0,-32
ffffffff80407310:	45a9                	li	a1,10
ffffffff80407312:	853e                	mv	a0,a5
ffffffff80407314:	e8aff0ef          	jal	ra,ffffffff8040699e <sd_write_data>
ffffffff80407318:	57fd                	li	a5,-1
ffffffff8040731a:	fef407a3          	sb	a5,-17(s0)
ffffffff8040731e:	a02d                	j	ffffffff80407348 <sd_init+0x7e>
ffffffff80407320:	09500613          	li	a2,149
ffffffff80407324:	4581                	li	a1,0
ffffffff80407326:	4501                	li	a0,0
ffffffff80407328:	ef2ff0ef          	jal	ra,ffffffff80406a1a <sd_send_cmd>
ffffffff8040732c:	fa8ff0ef          	jal	ra,ffffffff80406ad4 <sd_get_response>
ffffffff80407330:	87aa                	mv	a5,a0
ffffffff80407332:	fef40723          	sb	a5,-18(s0)
ffffffff80407336:	f76ff0ef          	jal	ra,ffffffff80406aac <sd_end_cmd>
ffffffff8040733a:	fee44783          	lbu	a5,-18(s0)
ffffffff8040733e:	0ff7f713          	andi	a4,a5,255
ffffffff80407342:	4785                	li	a5,1
ffffffff80407344:	00f70a63          	beq	a4,a5,ffffffff80407358 <sd_init+0x8e>
ffffffff80407348:	fef44783          	lbu	a5,-17(s0)
ffffffff8040734c:	fff7871b          	addiw	a4,a5,-1
ffffffff80407350:	fee407a3          	sb	a4,-17(s0)
ffffffff80407354:	f7f1                	bnez	a5,ffffffff80407320 <sd_init+0x56>
ffffffff80407356:	a011                	j	ffffffff8040735a <sd_init+0x90>
ffffffff80407358:	0001                	nop
ffffffff8040735a:	fef44783          	lbu	a5,-17(s0)
ffffffff8040735e:	0ff7f793          	andi	a5,a5,255
ffffffff80407362:	ef81                	bnez	a5,ffffffff8040737a <sd_init+0xb0>
ffffffff80407364:	fee44783          	lbu	a5,-18(s0)
ffffffff80407368:	2781                	sext.w	a5,a5
ffffffff8040736a:	85be                	mv	a1,a5
ffffffff8040736c:	00006517          	auipc	a0,0x6
ffffffff80407370:	6c450513          	addi	a0,a0,1732 # ffffffff8040da30 <__FUNCTION__.1237+0x38>
ffffffff80407374:	be8ff0ef          	jal	ra,ffffffff8040675c <printk>
ffffffff80407378:	a001                	j	ffffffff80407378 <sd_init+0xae>
ffffffff8040737a:	57fd                	li	a5,-1
ffffffff8040737c:	fef407a3          	sb	a5,-17(s0)
ffffffff80407380:	a825                	j	ffffffff804073b8 <sd_init+0xee>
ffffffff80407382:	08700613          	li	a2,135
ffffffff80407386:	1aa00593          	li	a1,426
ffffffff8040738a:	4521                	li	a0,8
ffffffff8040738c:	e8eff0ef          	jal	ra,ffffffff80406a1a <sd_send_cmd>
ffffffff80407390:	f44ff0ef          	jal	ra,ffffffff80406ad4 <sd_get_response>
ffffffff80407394:	87aa                	mv	a5,a0
ffffffff80407396:	fef40723          	sb	a5,-18(s0)
ffffffff8040739a:	fe040793          	addi	a5,s0,-32
ffffffff8040739e:	4591                	li	a1,4
ffffffff804073a0:	853e                	mv	a0,a5
ffffffff804073a2:	e3aff0ef          	jal	ra,ffffffff804069dc <sd_read_data>
ffffffff804073a6:	f06ff0ef          	jal	ra,ffffffff80406aac <sd_end_cmd>
ffffffff804073aa:	fee44783          	lbu	a5,-18(s0)
ffffffff804073ae:	0ff7f713          	andi	a4,a5,255
ffffffff804073b2:	4785                	li	a5,1
ffffffff804073b4:	00f70a63          	beq	a4,a5,ffffffff804073c8 <sd_init+0xfe>
ffffffff804073b8:	fef44783          	lbu	a5,-17(s0)
ffffffff804073bc:	fff7871b          	addiw	a4,a5,-1
ffffffff804073c0:	fee407a3          	sb	a4,-17(s0)
ffffffff804073c4:	ffdd                	bnez	a5,ffffffff80407382 <sd_init+0xb8>
ffffffff804073c6:	a011                	j	ffffffff804073ca <sd_init+0x100>
ffffffff804073c8:	0001                	nop
ffffffff804073ca:	fef44783          	lbu	a5,-17(s0)
ffffffff804073ce:	0ff7f793          	andi	a5,a5,255
ffffffff804073d2:	ef81                	bnez	a5,ffffffff804073ea <sd_init+0x120>
ffffffff804073d4:	fee44783          	lbu	a5,-18(s0)
ffffffff804073d8:	2781                	sext.w	a5,a5
ffffffff804073da:	85be                	mv	a1,a5
ffffffff804073dc:	00006517          	auipc	a0,0x6
ffffffff804073e0:	66450513          	addi	a0,a0,1636 # ffffffff8040da40 <__FUNCTION__.1237+0x48>
ffffffff804073e4:	b78ff0ef          	jal	ra,ffffffff8040675c <printk>
ffffffff804073e8:	a001                	j	ffffffff804073e8 <sd_init+0x11e>
ffffffff804073ea:	57fd                	li	a5,-1
ffffffff804073ec:	fef407a3          	sb	a5,-17(s0)
ffffffff804073f0:	a899                	j	ffffffff80407446 <sd_init+0x17c>
ffffffff804073f2:	4601                	li	a2,0
ffffffff804073f4:	4581                	li	a1,0
ffffffff804073f6:	03700513          	li	a0,55
ffffffff804073fa:	e20ff0ef          	jal	ra,ffffffff80406a1a <sd_send_cmd>
ffffffff804073fe:	ed6ff0ef          	jal	ra,ffffffff80406ad4 <sd_get_response>
ffffffff80407402:	87aa                	mv	a5,a0
ffffffff80407404:	fef40723          	sb	a5,-18(s0)
ffffffff80407408:	ea4ff0ef          	jal	ra,ffffffff80406aac <sd_end_cmd>
ffffffff8040740c:	fee44783          	lbu	a5,-18(s0)
ffffffff80407410:	0ff7f713          	andi	a4,a5,255
ffffffff80407414:	4785                	li	a5,1
ffffffff80407416:	00f70563          	beq	a4,a5,ffffffff80407420 <sd_init+0x156>
ffffffff8040741a:	0ff00793          	li	a5,255
ffffffff8040741e:	a0ed                	j	ffffffff80407508 <sd_init+0x23e>
ffffffff80407420:	4601                	li	a2,0
ffffffff80407422:	400005b7          	lui	a1,0x40000
ffffffff80407426:	02900513          	li	a0,41
ffffffff8040742a:	df0ff0ef          	jal	ra,ffffffff80406a1a <sd_send_cmd>
ffffffff8040742e:	ea6ff0ef          	jal	ra,ffffffff80406ad4 <sd_get_response>
ffffffff80407432:	87aa                	mv	a5,a0
ffffffff80407434:	fef40723          	sb	a5,-18(s0)
ffffffff80407438:	e74ff0ef          	jal	ra,ffffffff80406aac <sd_end_cmd>
ffffffff8040743c:	fee44783          	lbu	a5,-18(s0)
ffffffff80407440:	0ff7f793          	andi	a5,a5,255
ffffffff80407444:	cb89                	beqz	a5,ffffffff80407456 <sd_init+0x18c>
ffffffff80407446:	fef44783          	lbu	a5,-17(s0)
ffffffff8040744a:	fff7871b          	addiw	a4,a5,-1
ffffffff8040744e:	fee407a3          	sb	a4,-17(s0)
ffffffff80407452:	f3c5                	bnez	a5,ffffffff804073f2 <sd_init+0x128>
ffffffff80407454:	a011                	j	ffffffff80407458 <sd_init+0x18e>
ffffffff80407456:	0001                	nop
ffffffff80407458:	fef44783          	lbu	a5,-17(s0)
ffffffff8040745c:	0ff7f793          	andi	a5,a5,255
ffffffff80407460:	ef81                	bnez	a5,ffffffff80407478 <sd_init+0x1ae>
ffffffff80407462:	fee44783          	lbu	a5,-18(s0)
ffffffff80407466:	2781                	sext.w	a5,a5
ffffffff80407468:	85be                	mv	a1,a5
ffffffff8040746a:	00006517          	auipc	a0,0x6
ffffffff8040746e:	5e650513          	addi	a0,a0,1510 # ffffffff8040da50 <__FUNCTION__.1237+0x58>
ffffffff80407472:	aeaff0ef          	jal	ra,ffffffff8040675c <printk>
ffffffff80407476:	a001                	j	ffffffff80407476 <sd_init+0x1ac>
ffffffff80407478:	57fd                	li	a5,-1
ffffffff8040747a:	fef407a3          	sb	a5,-17(s0)
ffffffff8040747e:	a80d                	j	ffffffff804074b0 <sd_init+0x1e6>
ffffffff80407480:	4605                	li	a2,1
ffffffff80407482:	4581                	li	a1,0
ffffffff80407484:	03a00513          	li	a0,58
ffffffff80407488:	d92ff0ef          	jal	ra,ffffffff80406a1a <sd_send_cmd>
ffffffff8040748c:	e48ff0ef          	jal	ra,ffffffff80406ad4 <sd_get_response>
ffffffff80407490:	87aa                	mv	a5,a0
ffffffff80407492:	fef40723          	sb	a5,-18(s0)
ffffffff80407496:	fe040793          	addi	a5,s0,-32
ffffffff8040749a:	4591                	li	a1,4
ffffffff8040749c:	853e                	mv	a0,a5
ffffffff8040749e:	d3eff0ef          	jal	ra,ffffffff804069dc <sd_read_data>
ffffffff804074a2:	e0aff0ef          	jal	ra,ffffffff80406aac <sd_end_cmd>
ffffffff804074a6:	fee44783          	lbu	a5,-18(s0)
ffffffff804074aa:	0ff7f793          	andi	a5,a5,255
ffffffff804074ae:	cb89                	beqz	a5,ffffffff804074c0 <sd_init+0x1f6>
ffffffff804074b0:	fef44783          	lbu	a5,-17(s0)
ffffffff804074b4:	fff7871b          	addiw	a4,a5,-1
ffffffff804074b8:	fee407a3          	sb	a4,-17(s0)
ffffffff804074bc:	f3f1                	bnez	a5,ffffffff80407480 <sd_init+0x1b6>
ffffffff804074be:	a011                	j	ffffffff804074c2 <sd_init+0x1f8>
ffffffff804074c0:	0001                	nop
ffffffff804074c2:	fef44783          	lbu	a5,-17(s0)
ffffffff804074c6:	0ff7f793          	andi	a5,a5,255
ffffffff804074ca:	ef81                	bnez	a5,ffffffff804074e2 <sd_init+0x218>
ffffffff804074cc:	fee44783          	lbu	a5,-18(s0)
ffffffff804074d0:	2781                	sext.w	a5,a5
ffffffff804074d2:	85be                	mv	a1,a5
ffffffff804074d4:	00006517          	auipc	a0,0x6
ffffffff804074d8:	58c50513          	addi	a0,a0,1420 # ffffffff8040da60 <__FUNCTION__.1237+0x68>
ffffffff804074dc:	a80ff0ef          	jal	ra,ffffffff8040675c <printk>
ffffffff804074e0:	a001                	j	ffffffff804074e0 <sd_init+0x216>
ffffffff804074e2:	fe044783          	lbu	a5,-32(s0)
ffffffff804074e6:	2781                	sext.w	a5,a5
ffffffff804074e8:	0407f793          	andi	a5,a5,64
ffffffff804074ec:	2781                	sext.w	a5,a5
ffffffff804074ee:	e781                	bnez	a5,ffffffff804074f6 <sd_init+0x22c>
ffffffff804074f0:	0ff00793          	li	a5,255
ffffffff804074f4:	a811                	j	ffffffff80407508 <sd_init+0x23e>
ffffffff804074f6:	c7aff0ef          	jal	ra,ffffffff80406970 <SD_HIGH_SPEED_ENABLE>
ffffffff804074fa:	0001c517          	auipc	a0,0x1c
ffffffff804074fe:	19650513          	addi	a0,a0,406 # ffffffff80423690 <cardinfo>
ffffffff80407502:	d33ff0ef          	jal	ra,ffffffff80407234 <sd_get_cardinfo>
ffffffff80407506:	87aa                	mv	a5,a0
ffffffff80407508:	853e                	mv	a0,a5
ffffffff8040750a:	60e2                	ld	ra,24(sp)
ffffffff8040750c:	6442                	ld	s0,16(sp)
ffffffff8040750e:	6105                	addi	sp,sp,32
ffffffff80407510:	8082                	ret

ffffffff80407512 <sd_read_sector>:
ffffffff80407512:	7179                	addi	sp,sp,-48
ffffffff80407514:	f406                	sd	ra,40(sp)
ffffffff80407516:	f022                	sd	s0,32(sp)
ffffffff80407518:	1800                	addi	s0,sp,48
ffffffff8040751a:	fca43c23          	sd	a0,-40(s0)
ffffffff8040751e:	87ae                	mv	a5,a1
ffffffff80407520:	8732                	mv	a4,a2
ffffffff80407522:	fcf42a23          	sw	a5,-44(s0)
ffffffff80407526:	87ba                	mv	a5,a4
ffffffff80407528:	fcf42823          	sw	a5,-48(s0)
ffffffff8040752c:	fd042783          	lw	a5,-48(s0)
ffffffff80407530:	0007871b          	sext.w	a4,a5
ffffffff80407534:	4785                	li	a5,1
ffffffff80407536:	00f71c63          	bne	a4,a5,ffffffff8040754e <sd_read_sector+0x3c>
ffffffff8040753a:	fe0407a3          	sb	zero,-17(s0)
ffffffff8040753e:	fd442783          	lw	a5,-44(s0)
ffffffff80407542:	4601                	li	a2,0
ffffffff80407544:	85be                	mv	a1,a5
ffffffff80407546:	4545                	li	a0,17
ffffffff80407548:	cd2ff0ef          	jal	ra,ffffffff80406a1a <sd_send_cmd>
ffffffff8040754c:	a819                	j	ffffffff80407562 <sd_read_sector+0x50>
ffffffff8040754e:	4785                	li	a5,1
ffffffff80407550:	fef407a3          	sb	a5,-17(s0)
ffffffff80407554:	fd442783          	lw	a5,-44(s0)
ffffffff80407558:	4601                	li	a2,0
ffffffff8040755a:	85be                	mv	a1,a5
ffffffff8040755c:	4549                	li	a0,18
ffffffff8040755e:	cbcff0ef          	jal	ra,ffffffff80406a1a <sd_send_cmd>
ffffffff80407562:	d72ff0ef          	jal	ra,ffffffff80406ad4 <sd_get_response>
ffffffff80407566:	87aa                	mv	a5,a0
ffffffff80407568:	fef42423          	sw	a5,-24(s0)
ffffffff8040756c:	fe842783          	lw	a5,-24(s0)
ffffffff80407570:	2781                	sext.w	a5,a5
ffffffff80407572:	c7a9                	beqz	a5,ffffffff804075bc <sd_read_sector+0xaa>
ffffffff80407574:	d38ff0ef          	jal	ra,ffffffff80406aac <sd_end_cmd>
ffffffff80407578:	0ff00793          	li	a5,255
ffffffff8040757c:	a041                	j	ffffffff804075fc <sd_read_sector+0xea>
ffffffff8040757e:	d56ff0ef          	jal	ra,ffffffff80406ad4 <sd_get_response>
ffffffff80407582:	87aa                	mv	a5,a0
ffffffff80407584:	873e                	mv	a4,a5
ffffffff80407586:	0fe00793          	li	a5,254
ffffffff8040758a:	02f71e63          	bne	a4,a5,ffffffff804075c6 <sd_read_sector+0xb4>
ffffffff8040758e:	20000593          	li	a1,512
ffffffff80407592:	fd843503          	ld	a0,-40(s0)
ffffffff80407596:	c46ff0ef          	jal	ra,ffffffff804069dc <sd_read_data>
ffffffff8040759a:	fe040793          	addi	a5,s0,-32
ffffffff8040759e:	4589                	li	a1,2
ffffffff804075a0:	853e                	mv	a0,a5
ffffffff804075a2:	c3aff0ef          	jal	ra,ffffffff804069dc <sd_read_data>
ffffffff804075a6:	fd843783          	ld	a5,-40(s0)
ffffffff804075aa:	20078793          	addi	a5,a5,512
ffffffff804075ae:	fcf43c23          	sd	a5,-40(s0)
ffffffff804075b2:	fd042783          	lw	a5,-48(s0)
ffffffff804075b6:	37fd                	addiw	a5,a5,-1
ffffffff804075b8:	fcf42823          	sw	a5,-48(s0)
ffffffff804075bc:	fd042783          	lw	a5,-48(s0)
ffffffff804075c0:	2781                	sext.w	a5,a5
ffffffff804075c2:	ffd5                	bnez	a5,ffffffff8040757e <sd_read_sector+0x6c>
ffffffff804075c4:	a011                	j	ffffffff804075c8 <sd_read_sector+0xb6>
ffffffff804075c6:	0001                	nop
ffffffff804075c8:	ce4ff0ef          	jal	ra,ffffffff80406aac <sd_end_cmd>
ffffffff804075cc:	fef44783          	lbu	a5,-17(s0)
ffffffff804075d0:	0ff7f793          	andi	a5,a5,255
ffffffff804075d4:	cf81                	beqz	a5,ffffffff804075ec <sd_read_sector+0xda>
ffffffff804075d6:	4601                	li	a2,0
ffffffff804075d8:	4581                	li	a1,0
ffffffff804075da:	4531                	li	a0,12
ffffffff804075dc:	c3eff0ef          	jal	ra,ffffffff80406a1a <sd_send_cmd>
ffffffff804075e0:	cf4ff0ef          	jal	ra,ffffffff80406ad4 <sd_get_response>
ffffffff804075e4:	cc8ff0ef          	jal	ra,ffffffff80406aac <sd_end_cmd>
ffffffff804075e8:	cc4ff0ef          	jal	ra,ffffffff80406aac <sd_end_cmd>
ffffffff804075ec:	fd042783          	lw	a5,-48(s0)
ffffffff804075f0:	2781                	sext.w	a5,a5
ffffffff804075f2:	c781                	beqz	a5,ffffffff804075fa <sd_read_sector+0xe8>
ffffffff804075f4:	0ff00793          	li	a5,255
ffffffff804075f8:	a011                	j	ffffffff804075fc <sd_read_sector+0xea>
ffffffff804075fa:	4781                	li	a5,0
ffffffff804075fc:	853e                	mv	a0,a5
ffffffff804075fe:	70a2                	ld	ra,40(sp)
ffffffff80407600:	7402                	ld	s0,32(sp)
ffffffff80407602:	6145                	addi	sp,sp,48
ffffffff80407604:	8082                	ret

ffffffff80407606 <sd_write_sector>:
ffffffff80407606:	7179                	addi	sp,sp,-48
ffffffff80407608:	f406                	sd	ra,40(sp)
ffffffff8040760a:	f022                	sd	s0,32(sp)
ffffffff8040760c:	1800                	addi	s0,sp,48
ffffffff8040760e:	fca43c23          	sd	a0,-40(s0)
ffffffff80407612:	87ae                	mv	a5,a1
ffffffff80407614:	8732                	mv	a4,a2
ffffffff80407616:	fcf42a23          	sw	a5,-44(s0)
ffffffff8040761a:	87ba                	mv	a5,a4
ffffffff8040761c:	fcf42823          	sw	a5,-48(s0)
ffffffff80407620:	fe041423          	sh	zero,-24(s0)
ffffffff80407624:	57fd                	li	a5,-1
ffffffff80407626:	fef40423          	sb	a5,-24(s0)
ffffffff8040762a:	fd042783          	lw	a5,-48(s0)
ffffffff8040762e:	0007871b          	sext.w	a4,a5
ffffffff80407632:	4785                	li	a5,1
ffffffff80407634:	00f71d63          	bne	a4,a5,ffffffff8040764e <sd_write_sector+0x48>
ffffffff80407638:	57f9                	li	a5,-2
ffffffff8040763a:	fef404a3          	sb	a5,-23(s0)
ffffffff8040763e:	fd442783          	lw	a5,-44(s0)
ffffffff80407642:	4601                	li	a2,0
ffffffff80407644:	85be                	mv	a1,a5
ffffffff80407646:	4561                	li	a0,24
ffffffff80407648:	bd2ff0ef          	jal	ra,ffffffff80406a1a <sd_send_cmd>
ffffffff8040764c:	a035                	j	ffffffff80407678 <sd_write_sector+0x72>
ffffffff8040764e:	57f1                	li	a5,-4
ffffffff80407650:	fef404a3          	sb	a5,-23(s0)
ffffffff80407654:	fd042783          	lw	a5,-48(s0)
ffffffff80407658:	4601                	li	a2,0
ffffffff8040765a:	85be                	mv	a1,a5
ffffffff8040765c:	455d                	li	a0,23
ffffffff8040765e:	bbcff0ef          	jal	ra,ffffffff80406a1a <sd_send_cmd>
ffffffff80407662:	c72ff0ef          	jal	ra,ffffffff80406ad4 <sd_get_response>
ffffffff80407666:	c46ff0ef          	jal	ra,ffffffff80406aac <sd_end_cmd>
ffffffff8040766a:	fd442783          	lw	a5,-44(s0)
ffffffff8040766e:	4601                	li	a2,0
ffffffff80407670:	85be                	mv	a1,a5
ffffffff80407672:	4565                	li	a0,25
ffffffff80407674:	ba6ff0ef          	jal	ra,ffffffff80406a1a <sd_send_cmd>
ffffffff80407678:	c5cff0ef          	jal	ra,ffffffff80406ad4 <sd_get_response>
ffffffff8040767c:	87aa                	mv	a5,a0
ffffffff8040767e:	fef42623          	sw	a5,-20(s0)
ffffffff80407682:	fec42783          	lw	a5,-20(s0)
ffffffff80407686:	2781                	sext.w	a5,a5
ffffffff80407688:	c7b9                	beqz	a5,ffffffff804076d6 <sd_write_sector+0xd0>
ffffffff8040768a:	c22ff0ef          	jal	ra,ffffffff80406aac <sd_end_cmd>
ffffffff8040768e:	0ff00793          	li	a5,255
ffffffff80407692:	a8b1                	j	ffffffff804076ee <sd_write_sector+0xe8>
ffffffff80407694:	fe840793          	addi	a5,s0,-24
ffffffff80407698:	4589                	li	a1,2
ffffffff8040769a:	853e                	mv	a0,a5
ffffffff8040769c:	b02ff0ef          	jal	ra,ffffffff8040699e <sd_write_data>
ffffffff804076a0:	20000593          	li	a1,512
ffffffff804076a4:	fd843503          	ld	a0,-40(s0)
ffffffff804076a8:	af6ff0ef          	jal	ra,ffffffff8040699e <sd_write_data>
ffffffff804076ac:	fe840793          	addi	a5,s0,-24
ffffffff804076b0:	4589                	li	a1,2
ffffffff804076b2:	853e                	mv	a0,a5
ffffffff804076b4:	aeaff0ef          	jal	ra,ffffffff8040699e <sd_write_data>
ffffffff804076b8:	fd843783          	ld	a5,-40(s0)
ffffffff804076bc:	20078793          	addi	a5,a5,512
ffffffff804076c0:	fcf43c23          	sd	a5,-40(s0)
ffffffff804076c4:	c5eff0ef          	jal	ra,ffffffff80406b22 <sd_get_dataresponse>
ffffffff804076c8:	87aa                	mv	a5,a0
ffffffff804076ca:	c791                	beqz	a5,ffffffff804076d6 <sd_write_sector+0xd0>
ffffffff804076cc:	be0ff0ef          	jal	ra,ffffffff80406aac <sd_end_cmd>
ffffffff804076d0:	0ff00793          	li	a5,255
ffffffff804076d4:	a829                	j	ffffffff804076ee <sd_write_sector+0xe8>
ffffffff804076d6:	fd042783          	lw	a5,-48(s0)
ffffffff804076da:	fff7871b          	addiw	a4,a5,-1
ffffffff804076de:	fce42823          	sw	a4,-48(s0)
ffffffff804076e2:	fbcd                	bnez	a5,ffffffff80407694 <sd_write_sector+0x8e>
ffffffff804076e4:	bc8ff0ef          	jal	ra,ffffffff80406aac <sd_end_cmd>
ffffffff804076e8:	bc4ff0ef          	jal	ra,ffffffff80406aac <sd_end_cmd>
ffffffff804076ec:	4781                	li	a5,0
ffffffff804076ee:	853e                	mv	a0,a5
ffffffff804076f0:	70a2                	ld	ra,40(sp)
ffffffff804076f2:	7402                	ld	s0,32(sp)
ffffffff804076f4:	6145                	addi	sp,sp,48
ffffffff804076f6:	8082                	ret

ffffffff804076f8 <fpioa_init>:
ffffffff804076f8:	711d                	addi	sp,sp,-96
ffffffff804076fa:	eca2                	sd	s0,88(sp)
ffffffff804076fc:	1080                	addi	s0,sp,96
ffffffff804076fe:	fe042623          	sw	zero,-20(s0)
ffffffff80407702:	fa043423          	sd	zero,-88(s0)
ffffffff80407706:	fa043823          	sd	zero,-80(s0)
ffffffff8040770a:	fa043c23          	sd	zero,-72(s0)
ffffffff8040770e:	fc043023          	sd	zero,-64(s0)
ffffffff80407712:	fc043423          	sd	zero,-56(s0)
ffffffff80407716:	fc043823          	sd	zero,-48(s0)
ffffffff8040771a:	fc043c23          	sd	zero,-40(s0)
ffffffff8040771e:	fe043023          	sd	zero,-32(s0)
ffffffff80407722:	fe042623          	sw	zero,-20(s0)
ffffffff80407726:	a201                	j	ffffffff80407826 <fpioa_init+0x12e>
ffffffff80407728:	fec42783          	lw	a5,-20(s0)
ffffffff8040772c:	41f7d71b          	sraiw	a4,a5,0x1f
ffffffff80407730:	01b7571b          	srliw	a4,a4,0x1b
ffffffff80407734:	9fb9                	addw	a5,a5,a4
ffffffff80407736:	4057d79b          	sraiw	a5,a5,0x5
ffffffff8040773a:	0007871b          	sext.w	a4,a5
ffffffff8040773e:	00271793          	slli	a5,a4,0x2
ffffffff80407742:	ff040693          	addi	a3,s0,-16
ffffffff80407746:	97b6                	add	a5,a5,a3
ffffffff80407748:	fb87a583          	lw	a1,-72(a5)
ffffffff8040774c:	00006697          	auipc	a3,0x6
ffffffff80407750:	32468693          	addi	a3,a3,804 # ffffffff8040da70 <function_config>
ffffffff80407754:	fec42783          	lw	a5,-20(s0)
ffffffff80407758:	078a                	slli	a5,a5,0x2
ffffffff8040775a:	97b6                	add	a5,a5,a3
ffffffff8040775c:	439c                	lw	a5,0(a5)
ffffffff8040775e:	0187d79b          	srliw	a5,a5,0x18
ffffffff80407762:	8b85                	andi	a5,a5,1
ffffffff80407764:	0ff7f793          	andi	a5,a5,255
ffffffff80407768:	0007861b          	sext.w	a2,a5
ffffffff8040776c:	fec42683          	lw	a3,-20(s0)
ffffffff80407770:	41f6d79b          	sraiw	a5,a3,0x1f
ffffffff80407774:	01b7d79b          	srliw	a5,a5,0x1b
ffffffff80407778:	9ebd                	addw	a3,a3,a5
ffffffff8040777a:	8afd                	andi	a3,a3,31
ffffffff8040777c:	40f687bb          	subw	a5,a3,a5
ffffffff80407780:	2781                	sext.w	a5,a5
ffffffff80407782:	00f617bb          	sllw	a5,a2,a5
ffffffff80407786:	2781                	sext.w	a5,a5
ffffffff80407788:	2781                	sext.w	a5,a5
ffffffff8040778a:	86ae                	mv	a3,a1
ffffffff8040778c:	8fd5                	or	a5,a5,a3
ffffffff8040778e:	0007869b          	sext.w	a3,a5
ffffffff80407792:	00271793          	slli	a5,a4,0x2
ffffffff80407796:	ff040713          	addi	a4,s0,-16
ffffffff8040779a:	97ba                	add	a5,a5,a4
ffffffff8040779c:	fad7ac23          	sw	a3,-72(a5)
ffffffff804077a0:	fec42783          	lw	a5,-20(s0)
ffffffff804077a4:	41f7d71b          	sraiw	a4,a5,0x1f
ffffffff804077a8:	01b7571b          	srliw	a4,a4,0x1b
ffffffff804077ac:	9fb9                	addw	a5,a5,a4
ffffffff804077ae:	4057d79b          	sraiw	a5,a5,0x5
ffffffff804077b2:	0007871b          	sext.w	a4,a5
ffffffff804077b6:	00870793          	addi	a5,a4,8
ffffffff804077ba:	078a                	slli	a5,a5,0x2
ffffffff804077bc:	ff040693          	addi	a3,s0,-16
ffffffff804077c0:	97b6                	add	a5,a5,a3
ffffffff804077c2:	fb87a583          	lw	a1,-72(a5)
ffffffff804077c6:	00006697          	auipc	a3,0x6
ffffffff804077ca:	2aa68693          	addi	a3,a3,682 # ffffffff8040da70 <function_config>
ffffffff804077ce:	fec42783          	lw	a5,-20(s0)
ffffffff804077d2:	078a                	slli	a5,a5,0x2
ffffffff804077d4:	97b6                	add	a5,a5,a3
ffffffff804077d6:	439c                	lw	a5,0(a5)
ffffffff804077d8:	0197d79b          	srliw	a5,a5,0x19
ffffffff804077dc:	8b85                	andi	a5,a5,1
ffffffff804077de:	0ff7f793          	andi	a5,a5,255
ffffffff804077e2:	0007861b          	sext.w	a2,a5
ffffffff804077e6:	fec42683          	lw	a3,-20(s0)
ffffffff804077ea:	41f6d79b          	sraiw	a5,a3,0x1f
ffffffff804077ee:	01b7d79b          	srliw	a5,a5,0x1b
ffffffff804077f2:	9ebd                	addw	a3,a3,a5
ffffffff804077f4:	8afd                	andi	a3,a3,31
ffffffff804077f6:	40f687bb          	subw	a5,a3,a5
ffffffff804077fa:	2781                	sext.w	a5,a5
ffffffff804077fc:	00f617bb          	sllw	a5,a2,a5
ffffffff80407800:	2781                	sext.w	a5,a5
ffffffff80407802:	2781                	sext.w	a5,a5
ffffffff80407804:	86ae                	mv	a3,a1
ffffffff80407806:	8fd5                	or	a5,a5,a3
ffffffff80407808:	0007869b          	sext.w	a3,a5
ffffffff8040780c:	00870793          	addi	a5,a4,8
ffffffff80407810:	078a                	slli	a5,a5,0x2
ffffffff80407812:	ff040713          	addi	a4,s0,-16
ffffffff80407816:	97ba                	add	a5,a5,a4
ffffffff80407818:	fad7ac23          	sw	a3,-72(a5)
ffffffff8040781c:	fec42783          	lw	a5,-20(s0)
ffffffff80407820:	2785                	addiw	a5,a5,1
ffffffff80407822:	fef42623          	sw	a5,-20(s0)
ffffffff80407826:	fec42783          	lw	a5,-20(s0)
ffffffff8040782a:	0007871b          	sext.w	a4,a5
ffffffff8040782e:	0ff00793          	li	a5,255
ffffffff80407832:	eee7dbe3          	bge	a5,a4,ffffffff80407728 <fpioa_init+0x30>
ffffffff80407836:	fe042623          	sw	zero,-20(s0)
ffffffff8040783a:	a8a9                	j	ffffffff80407894 <fpioa_init+0x19c>
ffffffff8040783c:	f502b7b7          	lui	a5,0xf502b
ffffffff80407840:	00479693          	slli	a3,a5,0x4
ffffffff80407844:	fec42783          	lw	a5,-20(s0)
ffffffff80407848:	07a1                	addi	a5,a5,8
ffffffff8040784a:	078a                	slli	a5,a5,0x2
ffffffff8040784c:	ff040713          	addi	a4,s0,-16
ffffffff80407850:	97ba                	add	a5,a5,a4
ffffffff80407852:	fb87a703          	lw	a4,-72(a5) # fffffffff502afb8 <__BSS_END__+0x74c03858>
ffffffff80407856:	fec42783          	lw	a5,-20(s0)
ffffffff8040785a:	03878793          	addi	a5,a5,56
ffffffff8040785e:	078a                	slli	a5,a5,0x2
ffffffff80407860:	97b6                	add	a5,a5,a3
ffffffff80407862:	c398                	sw	a4,0(a5)
ffffffff80407864:	f502b7b7          	lui	a5,0xf502b
ffffffff80407868:	00479693          	slli	a3,a5,0x4
ffffffff8040786c:	fec42783          	lw	a5,-20(s0)
ffffffff80407870:	078a                	slli	a5,a5,0x2
ffffffff80407872:	ff040713          	addi	a4,s0,-16
ffffffff80407876:	97ba                	add	a5,a5,a4
ffffffff80407878:	fb87a703          	lw	a4,-72(a5) # fffffffff502afb8 <__BSS_END__+0x74c03858>
ffffffff8040787c:	fec42783          	lw	a5,-20(s0)
ffffffff80407880:	03078793          	addi	a5,a5,48
ffffffff80407884:	078a                	slli	a5,a5,0x2
ffffffff80407886:	97b6                	add	a5,a5,a3
ffffffff80407888:	c398                	sw	a4,0(a5)
ffffffff8040788a:	fec42783          	lw	a5,-20(s0)
ffffffff8040788e:	2785                	addiw	a5,a5,1
ffffffff80407890:	fef42623          	sw	a5,-20(s0)
ffffffff80407894:	fec42783          	lw	a5,-20(s0)
ffffffff80407898:	0007871b          	sext.w	a4,a5
ffffffff8040789c:	479d                	li	a5,7
ffffffff8040789e:	f8e7dfe3          	bge	a5,a4,ffffffff8040783c <fpioa_init+0x144>
ffffffff804078a2:	4781                	li	a5,0
ffffffff804078a4:	853e                	mv	a0,a5
ffffffff804078a6:	6466                	ld	s0,88(sp)
ffffffff804078a8:	6125                	addi	sp,sp,96
ffffffff804078aa:	8082                	ret

ffffffff804078ac <fpioa_get_io>:
ffffffff804078ac:	1101                	addi	sp,sp,-32
ffffffff804078ae:	ec22                	sd	s0,24(sp)
ffffffff804078b0:	1000                	addi	s0,sp,32
ffffffff804078b2:	87aa                	mv	a5,a0
ffffffff804078b4:	feb43023          	sd	a1,-32(s0)
ffffffff804078b8:	fef42623          	sw	a5,-20(s0)
ffffffff804078bc:	fec42783          	lw	a5,-20(s0)
ffffffff804078c0:	2781                	sext.w	a5,a5
ffffffff804078c2:	0007cd63          	bltz	a5,ffffffff804078dc <fpioa_get_io+0x30>
ffffffff804078c6:	fec42783          	lw	a5,-20(s0)
ffffffff804078ca:	0007871b          	sext.w	a4,a5
ffffffff804078ce:	02f00793          	li	a5,47
ffffffff804078d2:	00e7c563          	blt	a5,a4,ffffffff804078dc <fpioa_get_io+0x30>
ffffffff804078d6:	fe043783          	ld	a5,-32(s0)
ffffffff804078da:	e399                	bnez	a5,ffffffff804078e0 <fpioa_get_io+0x34>
ffffffff804078dc:	57fd                	li	a5,-1
ffffffff804078de:	a831                	j	ffffffff804078fa <fpioa_get_io+0x4e>
ffffffff804078e0:	f502b7b7          	lui	a5,0xf502b
ffffffff804078e4:	00479693          	slli	a3,a5,0x4
ffffffff804078e8:	fe043783          	ld	a5,-32(s0)
ffffffff804078ec:	fec42703          	lw	a4,-20(s0)
ffffffff804078f0:	070a                	slli	a4,a4,0x2
ffffffff804078f2:	9736                	add	a4,a4,a3
ffffffff804078f4:	4318                	lw	a4,0(a4)
ffffffff804078f6:	c398                	sw	a4,0(a5)
ffffffff804078f8:	4781                	li	a5,0
ffffffff804078fa:	853e                	mv	a0,a5
ffffffff804078fc:	6462                	ld	s0,24(sp)
ffffffff804078fe:	6105                	addi	sp,sp,32
ffffffff80407900:	8082                	ret

ffffffff80407902 <fpioa_set_io>:
ffffffff80407902:	1101                	addi	sp,sp,-32
ffffffff80407904:	ec22                	sd	s0,24(sp)
ffffffff80407906:	1000                	addi	s0,sp,32
ffffffff80407908:	87aa                	mv	a5,a0
ffffffff8040790a:	feb43023          	sd	a1,-32(s0)
ffffffff8040790e:	fef42623          	sw	a5,-20(s0)
ffffffff80407912:	fec42783          	lw	a5,-20(s0)
ffffffff80407916:	2781                	sext.w	a5,a5
ffffffff80407918:	0007cd63          	bltz	a5,ffffffff80407932 <fpioa_set_io+0x30>
ffffffff8040791c:	fec42783          	lw	a5,-20(s0)
ffffffff80407920:	0007871b          	sext.w	a4,a5
ffffffff80407924:	02f00793          	li	a5,47
ffffffff80407928:	00e7c563          	blt	a5,a4,ffffffff80407932 <fpioa_set_io+0x30>
ffffffff8040792c:	fe043783          	ld	a5,-32(s0)
ffffffff80407930:	e399                	bnez	a5,ffffffff80407936 <fpioa_set_io+0x34>
ffffffff80407932:	57fd                	li	a5,-1
ffffffff80407934:	a831                	j	ffffffff80407950 <fpioa_set_io+0x4e>
ffffffff80407936:	f502b7b7          	lui	a5,0xf502b
ffffffff8040793a:	00479713          	slli	a4,a5,0x4
ffffffff8040793e:	fec42783          	lw	a5,-20(s0)
ffffffff80407942:	078a                	slli	a5,a5,0x2
ffffffff80407944:	97ba                	add	a5,a5,a4
ffffffff80407946:	fe043703          	ld	a4,-32(s0)
ffffffff8040794a:	4318                	lw	a4,0(a4)
ffffffff8040794c:	c398                	sw	a4,0(a5)
ffffffff8040794e:	4781                	li	a5,0
ffffffff80407950:	853e                	mv	a0,a5
ffffffff80407952:	6462                	ld	s0,24(sp)
ffffffff80407954:	6105                	addi	sp,sp,32
ffffffff80407956:	8082                	ret

ffffffff80407958 <fpioa_set_io_pull>:
ffffffff80407958:	7179                	addi	sp,sp,-48
ffffffff8040795a:	f422                	sd	s0,40(sp)
ffffffff8040795c:	1800                	addi	s0,sp,48
ffffffff8040795e:	87aa                	mv	a5,a0
ffffffff80407960:	872e                	mv	a4,a1
ffffffff80407962:	fcf42e23          	sw	a5,-36(s0)
ffffffff80407966:	87ba                	mv	a5,a4
ffffffff80407968:	fcf42c23          	sw	a5,-40(s0)
ffffffff8040796c:	fdc42783          	lw	a5,-36(s0)
ffffffff80407970:	2781                	sext.w	a5,a5
ffffffff80407972:	0207c163          	bltz	a5,ffffffff80407994 <fpioa_set_io_pull+0x3c>
ffffffff80407976:	fdc42783          	lw	a5,-36(s0)
ffffffff8040797a:	0007871b          	sext.w	a4,a5
ffffffff8040797e:	02f00793          	li	a5,47
ffffffff80407982:	00e7c963          	blt	a5,a4,ffffffff80407994 <fpioa_set_io_pull+0x3c>
ffffffff80407986:	fd842783          	lw	a5,-40(s0)
ffffffff8040798a:	0007871b          	sext.w	a4,a5
ffffffff8040798e:	4789                	li	a5,2
ffffffff80407990:	00e7f463          	bgeu	a5,a4,ffffffff80407998 <fpioa_set_io_pull+0x40>
ffffffff80407994:	57fd                	li	a5,-1
ffffffff80407996:	a07d                	j	ffffffff80407a44 <fpioa_set_io_pull+0xec>
ffffffff80407998:	f502b7b7          	lui	a5,0xf502b
ffffffff8040799c:	00479713          	slli	a4,a5,0x4
ffffffff804079a0:	fdc42783          	lw	a5,-36(s0)
ffffffff804079a4:	078a                	slli	a5,a5,0x2
ffffffff804079a6:	97ba                	add	a5,a5,a4
ffffffff804079a8:	439c                	lw	a5,0(a5)
ffffffff804079aa:	fef42423          	sw	a5,-24(s0)
ffffffff804079ae:	fd842783          	lw	a5,-40(s0)
ffffffff804079b2:	0007871b          	sext.w	a4,a5
ffffffff804079b6:	4785                	li	a5,1
ffffffff804079b8:	02f70d63          	beq	a4,a5,ffffffff804079f2 <fpioa_set_io_pull+0x9a>
ffffffff804079bc:	fd842783          	lw	a5,-40(s0)
ffffffff804079c0:	2781                	sext.w	a5,a5
ffffffff804079c2:	cb89                	beqz	a5,ffffffff804079d4 <fpioa_set_io_pull+0x7c>
ffffffff804079c4:	fd842783          	lw	a5,-40(s0)
ffffffff804079c8:	0007871b          	sext.w	a4,a5
ffffffff804079cc:	4789                	li	a5,2
ffffffff804079ce:	04f70163          	beq	a4,a5,ffffffff80407a10 <fpioa_set_io_pull+0xb8>
ffffffff804079d2:	a8a9                	j	ffffffff80407a2c <fpioa_set_io_pull+0xd4>
ffffffff804079d4:	fe842703          	lw	a4,-24(s0)
ffffffff804079d8:	77c1                	lui	a5,0xffff0
ffffffff804079da:	17fd                	addi	a5,a5,-1
ffffffff804079dc:	8ff9                	and	a5,a5,a4
ffffffff804079de:	fef42423          	sw	a5,-24(s0)
ffffffff804079e2:	fe842703          	lw	a4,-24(s0)
ffffffff804079e6:	7781                	lui	a5,0xfffe0
ffffffff804079e8:	17fd                	addi	a5,a5,-1
ffffffff804079ea:	8ff9                	and	a5,a5,a4
ffffffff804079ec:	fef42423          	sw	a5,-24(s0)
ffffffff804079f0:	a835                	j	ffffffff80407a2c <fpioa_set_io_pull+0xd4>
ffffffff804079f2:	fe842703          	lw	a4,-24(s0)
ffffffff804079f6:	77c1                	lui	a5,0xffff0
ffffffff804079f8:	17fd                	addi	a5,a5,-1
ffffffff804079fa:	8ff9                	and	a5,a5,a4
ffffffff804079fc:	fef42423          	sw	a5,-24(s0)
ffffffff80407a00:	fe842703          	lw	a4,-24(s0)
ffffffff80407a04:	000207b7          	lui	a5,0x20
ffffffff80407a08:	8fd9                	or	a5,a5,a4
ffffffff80407a0a:	fef42423          	sw	a5,-24(s0)
ffffffff80407a0e:	a839                	j	ffffffff80407a2c <fpioa_set_io_pull+0xd4>
ffffffff80407a10:	fe842703          	lw	a4,-24(s0)
ffffffff80407a14:	67c1                	lui	a5,0x10
ffffffff80407a16:	8fd9                	or	a5,a5,a4
ffffffff80407a18:	fef42423          	sw	a5,-24(s0)
ffffffff80407a1c:	fe842703          	lw	a4,-24(s0)
ffffffff80407a20:	7781                	lui	a5,0xfffe0
ffffffff80407a22:	17fd                	addi	a5,a5,-1
ffffffff80407a24:	8ff9                	and	a5,a5,a4
ffffffff80407a26:	fef42423          	sw	a5,-24(s0)
ffffffff80407a2a:	0001                	nop
ffffffff80407a2c:	f502b7b7          	lui	a5,0xf502b
ffffffff80407a30:	00479713          	slli	a4,a5,0x4
ffffffff80407a34:	fdc42783          	lw	a5,-36(s0)
ffffffff80407a38:	078a                	slli	a5,a5,0x2
ffffffff80407a3a:	97ba                	add	a5,a5,a4
ffffffff80407a3c:	fe842703          	lw	a4,-24(s0)
ffffffff80407a40:	c398                	sw	a4,0(a5)
ffffffff80407a42:	4781                	li	a5,0
ffffffff80407a44:	853e                	mv	a0,a5
ffffffff80407a46:	7422                	ld	s0,40(sp)
ffffffff80407a48:	6145                	addi	sp,sp,48
ffffffff80407a4a:	8082                	ret

ffffffff80407a4c <fpioa_get_io_pull>:
ffffffff80407a4c:	7179                	addi	sp,sp,-48
ffffffff80407a4e:	f422                	sd	s0,40(sp)
ffffffff80407a50:	1800                	addi	s0,sp,48
ffffffff80407a52:	87aa                	mv	a5,a0
ffffffff80407a54:	fcf42e23          	sw	a5,-36(s0)
ffffffff80407a58:	fdc42783          	lw	a5,-36(s0)
ffffffff80407a5c:	2781                	sext.w	a5,a5
ffffffff80407a5e:	0007ca63          	bltz	a5,ffffffff80407a72 <fpioa_get_io_pull+0x26>
ffffffff80407a62:	fdc42783          	lw	a5,-36(s0)
ffffffff80407a66:	0007871b          	sext.w	a4,a5
ffffffff80407a6a:	02f00793          	li	a5,47
ffffffff80407a6e:	00e7d463          	bge	a5,a4,ffffffff80407a76 <fpioa_get_io_pull+0x2a>
ffffffff80407a72:	57fd                	li	a5,-1
ffffffff80407a74:	a0b5                	j	ffffffff80407ae0 <fpioa_get_io_pull+0x94>
ffffffff80407a76:	f502b7b7          	lui	a5,0xf502b
ffffffff80407a7a:	00479713          	slli	a4,a5,0x4
ffffffff80407a7e:	fdc42783          	lw	a5,-36(s0)
ffffffff80407a82:	078a                	slli	a5,a5,0x2
ffffffff80407a84:	97ba                	add	a5,a5,a4
ffffffff80407a86:	439c                	lw	a5,0(a5)
ffffffff80407a88:	fef42423          	sw	a5,-24(s0)
ffffffff80407a8c:	fe842783          	lw	a5,-24(s0)
ffffffff80407a90:	873e                	mv	a4,a5
ffffffff80407a92:	67c1                	lui	a5,0x10
ffffffff80407a94:	8ff9                	and	a5,a5,a4
ffffffff80407a96:	2781                	sext.w	a5,a5
ffffffff80407a98:	ef89                	bnez	a5,ffffffff80407ab2 <fpioa_get_io_pull+0x66>
ffffffff80407a9a:	fe842783          	lw	a5,-24(s0)
ffffffff80407a9e:	873e                	mv	a4,a5
ffffffff80407aa0:	000207b7          	lui	a5,0x20
ffffffff80407aa4:	8ff9                	and	a5,a5,a4
ffffffff80407aa6:	2781                	sext.w	a5,a5
ffffffff80407aa8:	c789                	beqz	a5,ffffffff80407ab2 <fpioa_get_io_pull+0x66>
ffffffff80407aaa:	4785                	li	a5,1
ffffffff80407aac:	fef42623          	sw	a5,-20(s0)
ffffffff80407ab0:	a035                	j	ffffffff80407adc <fpioa_get_io_pull+0x90>
ffffffff80407ab2:	fe842783          	lw	a5,-24(s0)
ffffffff80407ab6:	873e                	mv	a4,a5
ffffffff80407ab8:	67c1                	lui	a5,0x10
ffffffff80407aba:	8ff9                	and	a5,a5,a4
ffffffff80407abc:	2781                	sext.w	a5,a5
ffffffff80407abe:	cf89                	beqz	a5,ffffffff80407ad8 <fpioa_get_io_pull+0x8c>
ffffffff80407ac0:	fe842783          	lw	a5,-24(s0)
ffffffff80407ac4:	873e                	mv	a4,a5
ffffffff80407ac6:	000207b7          	lui	a5,0x20
ffffffff80407aca:	8ff9                	and	a5,a5,a4
ffffffff80407acc:	2781                	sext.w	a5,a5
ffffffff80407ace:	e789                	bnez	a5,ffffffff80407ad8 <fpioa_get_io_pull+0x8c>
ffffffff80407ad0:	4789                	li	a5,2
ffffffff80407ad2:	fef42623          	sw	a5,-20(s0)
ffffffff80407ad6:	a019                	j	ffffffff80407adc <fpioa_get_io_pull+0x90>
ffffffff80407ad8:	fe042623          	sw	zero,-20(s0)
ffffffff80407adc:	fec42783          	lw	a5,-20(s0)
ffffffff80407ae0:	853e                	mv	a0,a5
ffffffff80407ae2:	7422                	ld	s0,40(sp)
ffffffff80407ae4:	6145                	addi	sp,sp,48
ffffffff80407ae6:	8082                	ret

ffffffff80407ae8 <fpioa_set_io_driving>:
ffffffff80407ae8:	7179                	addi	sp,sp,-48
ffffffff80407aea:	f422                	sd	s0,40(sp)
ffffffff80407aec:	1800                	addi	s0,sp,48
ffffffff80407aee:	87aa                	mv	a5,a0
ffffffff80407af0:	872e                	mv	a4,a1
ffffffff80407af2:	fcf42e23          	sw	a5,-36(s0)
ffffffff80407af6:	87ba                	mv	a5,a4
ffffffff80407af8:	fcf42c23          	sw	a5,-40(s0)
ffffffff80407afc:	fdc42783          	lw	a5,-36(s0)
ffffffff80407b00:	2781                	sext.w	a5,a5
ffffffff80407b02:	0207c163          	bltz	a5,ffffffff80407b24 <fpioa_set_io_driving+0x3c>
ffffffff80407b06:	fdc42783          	lw	a5,-36(s0)
ffffffff80407b0a:	0007871b          	sext.w	a4,a5
ffffffff80407b0e:	02f00793          	li	a5,47
ffffffff80407b12:	00e7c963          	blt	a5,a4,ffffffff80407b24 <fpioa_set_io_driving+0x3c>
ffffffff80407b16:	fd842783          	lw	a5,-40(s0)
ffffffff80407b1a:	0007871b          	sext.w	a4,a5
ffffffff80407b1e:	47bd                	li	a5,15
ffffffff80407b20:	00e7f463          	bgeu	a5,a4,ffffffff80407b28 <fpioa_set_io_driving+0x40>
ffffffff80407b24:	57fd                	li	a5,-1
ffffffff80407b26:	a889                	j	ffffffff80407b78 <fpioa_set_io_driving+0x90>
ffffffff80407b28:	f502b7b7          	lui	a5,0xf502b
ffffffff80407b2c:	00479713          	slli	a4,a5,0x4
ffffffff80407b30:	fdc42783          	lw	a5,-36(s0)
ffffffff80407b34:	078a                	slli	a5,a5,0x2
ffffffff80407b36:	97ba                	add	a5,a5,a4
ffffffff80407b38:	439c                	lw	a5,0(a5)
ffffffff80407b3a:	fef42423          	sw	a5,-24(s0)
ffffffff80407b3e:	fd842783          	lw	a5,-40(s0)
ffffffff80407b42:	8bbd                	andi	a5,a5,15
ffffffff80407b44:	0ff7f793          	andi	a5,a5,255
ffffffff80407b48:	8bbd                	andi	a5,a5,15
ffffffff80407b4a:	0087979b          	slliw	a5,a5,0x8
ffffffff80407b4e:	fe842683          	lw	a3,-24(s0)
ffffffff80407b52:	777d                	lui	a4,0xfffff
ffffffff80407b54:	0ff70713          	addi	a4,a4,255 # fffffffffffff0ff <__BSS_END__+0x7fbd799f>
ffffffff80407b58:	8f75                	and	a4,a4,a3
ffffffff80407b5a:	8fd9                	or	a5,a5,a4
ffffffff80407b5c:	fef42423          	sw	a5,-24(s0)
ffffffff80407b60:	f502b7b7          	lui	a5,0xf502b
ffffffff80407b64:	00479713          	slli	a4,a5,0x4
ffffffff80407b68:	fdc42783          	lw	a5,-36(s0)
ffffffff80407b6c:	078a                	slli	a5,a5,0x2
ffffffff80407b6e:	97ba                	add	a5,a5,a4
ffffffff80407b70:	fe842703          	lw	a4,-24(s0)
ffffffff80407b74:	c398                	sw	a4,0(a5)
ffffffff80407b76:	4781                	li	a5,0
ffffffff80407b78:	853e                	mv	a0,a5
ffffffff80407b7a:	7422                	ld	s0,40(sp)
ffffffff80407b7c:	6145                	addi	sp,sp,48
ffffffff80407b7e:	8082                	ret

ffffffff80407b80 <fpioa_set_sl>:
ffffffff80407b80:	7179                	addi	sp,sp,-48
ffffffff80407b82:	f422                	sd	s0,40(sp)
ffffffff80407b84:	1800                	addi	s0,sp,48
ffffffff80407b86:	87aa                	mv	a5,a0
ffffffff80407b88:	872e                	mv	a4,a1
ffffffff80407b8a:	fcf42e23          	sw	a5,-36(s0)
ffffffff80407b8e:	87ba                	mv	a5,a4
ffffffff80407b90:	fcf40da3          	sb	a5,-37(s0)
ffffffff80407b94:	fdc42783          	lw	a5,-36(s0)
ffffffff80407b98:	2781                	sext.w	a5,a5
ffffffff80407b9a:	0007ca63          	bltz	a5,ffffffff80407bae <fpioa_set_sl+0x2e>
ffffffff80407b9e:	fdc42783          	lw	a5,-36(s0)
ffffffff80407ba2:	0007871b          	sext.w	a4,a5
ffffffff80407ba6:	02f00793          	li	a5,47
ffffffff80407baa:	00e7d463          	bge	a5,a4,ffffffff80407bb2 <fpioa_set_sl+0x32>
ffffffff80407bae:	57fd                	li	a5,-1
ffffffff80407bb0:	a889                	j	ffffffff80407c02 <fpioa_set_sl+0x82>
ffffffff80407bb2:	f502b7b7          	lui	a5,0xf502b
ffffffff80407bb6:	00479713          	slli	a4,a5,0x4
ffffffff80407bba:	fdc42783          	lw	a5,-36(s0)
ffffffff80407bbe:	078a                	slli	a5,a5,0x2
ffffffff80407bc0:	97ba                	add	a5,a5,a4
ffffffff80407bc2:	439c                	lw	a5,0(a5)
ffffffff80407bc4:	fef42423          	sw	a5,-24(s0)
ffffffff80407bc8:	fdb44783          	lbu	a5,-37(s0)
ffffffff80407bcc:	8b85                	andi	a5,a5,1
ffffffff80407bce:	0ff7f793          	andi	a5,a5,255
ffffffff80407bd2:	8b85                	andi	a5,a5,1
ffffffff80407bd4:	0137979b          	slliw	a5,a5,0x13
ffffffff80407bd8:	fe842683          	lw	a3,-24(s0)
ffffffff80407bdc:	fff80737          	lui	a4,0xfff80
ffffffff80407be0:	177d                	addi	a4,a4,-1
ffffffff80407be2:	8f75                	and	a4,a4,a3
ffffffff80407be4:	8fd9                	or	a5,a5,a4
ffffffff80407be6:	fef42423          	sw	a5,-24(s0)
ffffffff80407bea:	f502b7b7          	lui	a5,0xf502b
ffffffff80407bee:	00479713          	slli	a4,a5,0x4
ffffffff80407bf2:	fdc42783          	lw	a5,-36(s0)
ffffffff80407bf6:	078a                	slli	a5,a5,0x2
ffffffff80407bf8:	97ba                	add	a5,a5,a4
ffffffff80407bfa:	fe842703          	lw	a4,-24(s0)
ffffffff80407bfe:	c398                	sw	a4,0(a5)
ffffffff80407c00:	4781                	li	a5,0
ffffffff80407c02:	853e                	mv	a0,a5
ffffffff80407c04:	7422                	ld	s0,40(sp)
ffffffff80407c06:	6145                	addi	sp,sp,48
ffffffff80407c08:	8082                	ret

ffffffff80407c0a <fpioa_set_st>:
ffffffff80407c0a:	7179                	addi	sp,sp,-48
ffffffff80407c0c:	f422                	sd	s0,40(sp)
ffffffff80407c0e:	1800                	addi	s0,sp,48
ffffffff80407c10:	87aa                	mv	a5,a0
ffffffff80407c12:	872e                	mv	a4,a1
ffffffff80407c14:	fcf42e23          	sw	a5,-36(s0)
ffffffff80407c18:	87ba                	mv	a5,a4
ffffffff80407c1a:	fcf40da3          	sb	a5,-37(s0)
ffffffff80407c1e:	fdc42783          	lw	a5,-36(s0)
ffffffff80407c22:	2781                	sext.w	a5,a5
ffffffff80407c24:	0007ca63          	bltz	a5,ffffffff80407c38 <fpioa_set_st+0x2e>
ffffffff80407c28:	fdc42783          	lw	a5,-36(s0)
ffffffff80407c2c:	0007871b          	sext.w	a4,a5
ffffffff80407c30:	02f00793          	li	a5,47
ffffffff80407c34:	00e7d463          	bge	a5,a4,ffffffff80407c3c <fpioa_set_st+0x32>
ffffffff80407c38:	57fd                	li	a5,-1
ffffffff80407c3a:	a889                	j	ffffffff80407c8c <fpioa_set_st+0x82>
ffffffff80407c3c:	f502b7b7          	lui	a5,0xf502b
ffffffff80407c40:	00479713          	slli	a4,a5,0x4
ffffffff80407c44:	fdc42783          	lw	a5,-36(s0)
ffffffff80407c48:	078a                	slli	a5,a5,0x2
ffffffff80407c4a:	97ba                	add	a5,a5,a4
ffffffff80407c4c:	439c                	lw	a5,0(a5)
ffffffff80407c4e:	fef42423          	sw	a5,-24(s0)
ffffffff80407c52:	fdb44783          	lbu	a5,-37(s0)
ffffffff80407c56:	8b85                	andi	a5,a5,1
ffffffff80407c58:	0ff7f793          	andi	a5,a5,255
ffffffff80407c5c:	8b85                	andi	a5,a5,1
ffffffff80407c5e:	0177979b          	slliw	a5,a5,0x17
ffffffff80407c62:	fe842683          	lw	a3,-24(s0)
ffffffff80407c66:	ff800737          	lui	a4,0xff800
ffffffff80407c6a:	177d                	addi	a4,a4,-1
ffffffff80407c6c:	8f75                	and	a4,a4,a3
ffffffff80407c6e:	8fd9                	or	a5,a5,a4
ffffffff80407c70:	fef42423          	sw	a5,-24(s0)
ffffffff80407c74:	f502b7b7          	lui	a5,0xf502b
ffffffff80407c78:	00479713          	slli	a4,a5,0x4
ffffffff80407c7c:	fdc42783          	lw	a5,-36(s0)
ffffffff80407c80:	078a                	slli	a5,a5,0x2
ffffffff80407c82:	97ba                	add	a5,a5,a4
ffffffff80407c84:	fe842703          	lw	a4,-24(s0)
ffffffff80407c88:	c398                	sw	a4,0(a5)
ffffffff80407c8a:	4781                	li	a5,0
ffffffff80407c8c:	853e                	mv	a0,a5
ffffffff80407c8e:	7422                	ld	s0,40(sp)
ffffffff80407c90:	6145                	addi	sp,sp,48
ffffffff80407c92:	8082                	ret

ffffffff80407c94 <fpioa_set_oe_inv>:
ffffffff80407c94:	7179                	addi	sp,sp,-48
ffffffff80407c96:	f422                	sd	s0,40(sp)
ffffffff80407c98:	1800                	addi	s0,sp,48
ffffffff80407c9a:	87aa                	mv	a5,a0
ffffffff80407c9c:	872e                	mv	a4,a1
ffffffff80407c9e:	fcf42e23          	sw	a5,-36(s0)
ffffffff80407ca2:	87ba                	mv	a5,a4
ffffffff80407ca4:	fcf40da3          	sb	a5,-37(s0)
ffffffff80407ca8:	fdc42783          	lw	a5,-36(s0)
ffffffff80407cac:	2781                	sext.w	a5,a5
ffffffff80407cae:	0007ca63          	bltz	a5,ffffffff80407cc2 <fpioa_set_oe_inv+0x2e>
ffffffff80407cb2:	fdc42783          	lw	a5,-36(s0)
ffffffff80407cb6:	0007871b          	sext.w	a4,a5
ffffffff80407cba:	02f00793          	li	a5,47
ffffffff80407cbe:	00e7d463          	bge	a5,a4,ffffffff80407cc6 <fpioa_set_oe_inv+0x32>
ffffffff80407cc2:	57fd                	li	a5,-1
ffffffff80407cc4:	a881                	j	ffffffff80407d14 <fpioa_set_oe_inv+0x80>
ffffffff80407cc6:	f502b7b7          	lui	a5,0xf502b
ffffffff80407cca:	00479713          	slli	a4,a5,0x4
ffffffff80407cce:	fdc42783          	lw	a5,-36(s0)
ffffffff80407cd2:	078a                	slli	a5,a5,0x2
ffffffff80407cd4:	97ba                	add	a5,a5,a4
ffffffff80407cd6:	439c                	lw	a5,0(a5)
ffffffff80407cd8:	fef42423          	sw	a5,-24(s0)
ffffffff80407cdc:	fdb44783          	lbu	a5,-37(s0)
ffffffff80407ce0:	8b85                	andi	a5,a5,1
ffffffff80407ce2:	0ff7f793          	andi	a5,a5,255
ffffffff80407ce6:	8b85                	andi	a5,a5,1
ffffffff80407ce8:	00d7979b          	slliw	a5,a5,0xd
ffffffff80407cec:	fe842683          	lw	a3,-24(s0)
ffffffff80407cf0:	7779                	lui	a4,0xffffe
ffffffff80407cf2:	177d                	addi	a4,a4,-1
ffffffff80407cf4:	8f75                	and	a4,a4,a3
ffffffff80407cf6:	8fd9                	or	a5,a5,a4
ffffffff80407cf8:	fef42423          	sw	a5,-24(s0)
ffffffff80407cfc:	f502b7b7          	lui	a5,0xf502b
ffffffff80407d00:	00479713          	slli	a4,a5,0x4
ffffffff80407d04:	fdc42783          	lw	a5,-36(s0)
ffffffff80407d08:	078a                	slli	a5,a5,0x2
ffffffff80407d0a:	97ba                	add	a5,a5,a4
ffffffff80407d0c:	fe842703          	lw	a4,-24(s0)
ffffffff80407d10:	c398                	sw	a4,0(a5)
ffffffff80407d12:	4781                	li	a5,0
ffffffff80407d14:	853e                	mv	a0,a5
ffffffff80407d16:	7422                	ld	s0,40(sp)
ffffffff80407d18:	6145                	addi	sp,sp,48
ffffffff80407d1a:	8082                	ret

ffffffff80407d1c <fpioa_get_io_driving>:
ffffffff80407d1c:	1101                	addi	sp,sp,-32
ffffffff80407d1e:	ec22                	sd	s0,24(sp)
ffffffff80407d20:	1000                	addi	s0,sp,32
ffffffff80407d22:	87aa                	mv	a5,a0
ffffffff80407d24:	fef42623          	sw	a5,-20(s0)
ffffffff80407d28:	fec42783          	lw	a5,-20(s0)
ffffffff80407d2c:	2781                	sext.w	a5,a5
ffffffff80407d2e:	0007ca63          	bltz	a5,ffffffff80407d42 <fpioa_get_io_driving+0x26>
ffffffff80407d32:	fec42783          	lw	a5,-20(s0)
ffffffff80407d36:	0007871b          	sext.w	a4,a5
ffffffff80407d3a:	02f00793          	li	a5,47
ffffffff80407d3e:	00e7d463          	bge	a5,a4,ffffffff80407d46 <fpioa_get_io_driving+0x2a>
ffffffff80407d42:	57fd                	li	a5,-1
ffffffff80407d44:	a005                	j	ffffffff80407d64 <fpioa_get_io_driving+0x48>
ffffffff80407d46:	f502b7b7          	lui	a5,0xf502b
ffffffff80407d4a:	00479713          	slli	a4,a5,0x4
ffffffff80407d4e:	fec42783          	lw	a5,-20(s0)
ffffffff80407d52:	078a                	slli	a5,a5,0x2
ffffffff80407d54:	97ba                	add	a5,a5,a4
ffffffff80407d56:	439c                	lw	a5,0(a5)
ffffffff80407d58:	0087d79b          	srliw	a5,a5,0x8
ffffffff80407d5c:	8bbd                	andi	a5,a5,15
ffffffff80407d5e:	0ff7f793          	andi	a5,a5,255
ffffffff80407d62:	2781                	sext.w	a5,a5
ffffffff80407d64:	853e                	mv	a0,a5
ffffffff80407d66:	6462                	ld	s0,24(sp)
ffffffff80407d68:	6105                	addi	sp,sp,32
ffffffff80407d6a:	8082                	ret

ffffffff80407d6c <fpioa_set_function_raw>:
ffffffff80407d6c:	1101                	addi	sp,sp,-32
ffffffff80407d6e:	ec22                	sd	s0,24(sp)
ffffffff80407d70:	e826                	sd	s1,16(sp)
ffffffff80407d72:	1000                	addi	s0,sp,32
ffffffff80407d74:	87aa                	mv	a5,a0
ffffffff80407d76:	872e                	mv	a4,a1
ffffffff80407d78:	fef42623          	sw	a5,-20(s0)
ffffffff80407d7c:	87ba                	mv	a5,a4
ffffffff80407d7e:	fef42423          	sw	a5,-24(s0)
ffffffff80407d82:	fec42783          	lw	a5,-20(s0)
ffffffff80407d86:	2781                	sext.w	a5,a5
ffffffff80407d88:	0207c263          	bltz	a5,ffffffff80407dac <fpioa_set_function_raw+0x40>
ffffffff80407d8c:	fec42783          	lw	a5,-20(s0)
ffffffff80407d90:	0007871b          	sext.w	a4,a5
ffffffff80407d94:	02f00793          	li	a5,47
ffffffff80407d98:	00e7ca63          	blt	a5,a4,ffffffff80407dac <fpioa_set_function_raw+0x40>
ffffffff80407d9c:	fe842783          	lw	a5,-24(s0)
ffffffff80407da0:	0007871b          	sext.w	a4,a5
ffffffff80407da4:	0ff00793          	li	a5,255
ffffffff80407da8:	00e7f463          	bgeu	a5,a4,ffffffff80407db0 <fpioa_set_function_raw+0x44>
ffffffff80407dac:	57fd                	li	a5,-1
ffffffff80407dae:	ac89                	j	ffffffff80408000 <fpioa_set_function_raw+0x294>
ffffffff80407db0:	f502b7b7          	lui	a5,0xf502b
ffffffff80407db4:	00479693          	slli	a3,a5,0x4
ffffffff80407db8:	00006717          	auipc	a4,0x6
ffffffff80407dbc:	cb870713          	addi	a4,a4,-840 # ffffffff8040da70 <function_config>
ffffffff80407dc0:	fe846783          	lwu	a5,-24(s0)
ffffffff80407dc4:	078a                	slli	a5,a5,0x2
ffffffff80407dc6:	97ba                	add	a5,a5,a4
ffffffff80407dc8:	0007c483          	lbu	s1,0(a5) # fffffffff502b000 <__BSS_END__+0x74c038a0>
ffffffff80407dcc:	00006717          	auipc	a4,0x6
ffffffff80407dd0:	ca470713          	addi	a4,a4,-860 # ffffffff8040da70 <function_config>
ffffffff80407dd4:	fe846783          	lwu	a5,-24(s0)
ffffffff80407dd8:	078a                	slli	a5,a5,0x2
ffffffff80407dda:	97ba                	add	a5,a5,a4
ffffffff80407ddc:	439c                	lw	a5,0(a5)
ffffffff80407dde:	0087d79b          	srliw	a5,a5,0x8
ffffffff80407de2:	8bbd                	andi	a5,a5,15
ffffffff80407de4:	0ff7f613          	andi	a2,a5,255
ffffffff80407de8:	00006717          	auipc	a4,0x6
ffffffff80407dec:	c8870713          	addi	a4,a4,-888 # ffffffff8040da70 <function_config>
ffffffff80407df0:	fe846783          	lwu	a5,-24(s0)
ffffffff80407df4:	078a                	slli	a5,a5,0x2
ffffffff80407df6:	97ba                	add	a5,a5,a4
ffffffff80407df8:	439c                	lw	a5,0(a5)
ffffffff80407dfa:	00c7d79b          	srliw	a5,a5,0xc
ffffffff80407dfe:	8b85                	andi	a5,a5,1
ffffffff80407e00:	0ff7f393          	andi	t2,a5,255
ffffffff80407e04:	00006717          	auipc	a4,0x6
ffffffff80407e08:	c6c70713          	addi	a4,a4,-916 # ffffffff8040da70 <function_config>
ffffffff80407e0c:	fe846783          	lwu	a5,-24(s0)
ffffffff80407e10:	078a                	slli	a5,a5,0x2
ffffffff80407e12:	97ba                	add	a5,a5,a4
ffffffff80407e14:	439c                	lw	a5,0(a5)
ffffffff80407e16:	00d7d79b          	srliw	a5,a5,0xd
ffffffff80407e1a:	8b85                	andi	a5,a5,1
ffffffff80407e1c:	0ff7f293          	andi	t0,a5,255
ffffffff80407e20:	00006717          	auipc	a4,0x6
ffffffff80407e24:	c5070713          	addi	a4,a4,-944 # ffffffff8040da70 <function_config>
ffffffff80407e28:	fe846783          	lwu	a5,-24(s0)
ffffffff80407e2c:	078a                	slli	a5,a5,0x2
ffffffff80407e2e:	97ba                	add	a5,a5,a4
ffffffff80407e30:	439c                	lw	a5,0(a5)
ffffffff80407e32:	00e7d79b          	srliw	a5,a5,0xe
ffffffff80407e36:	8b85                	andi	a5,a5,1
ffffffff80407e38:	0ff7ff93          	andi	t6,a5,255
ffffffff80407e3c:	00006717          	auipc	a4,0x6
ffffffff80407e40:	c3470713          	addi	a4,a4,-972 # ffffffff8040da70 <function_config>
ffffffff80407e44:	fe846783          	lwu	a5,-24(s0)
ffffffff80407e48:	078a                	slli	a5,a5,0x2
ffffffff80407e4a:	97ba                	add	a5,a5,a4
ffffffff80407e4c:	439c                	lw	a5,0(a5)
ffffffff80407e4e:	00f7d79b          	srliw	a5,a5,0xf
ffffffff80407e52:	8b85                	andi	a5,a5,1
ffffffff80407e54:	0ff7ff13          	andi	t5,a5,255
ffffffff80407e58:	00006717          	auipc	a4,0x6
ffffffff80407e5c:	c1870713          	addi	a4,a4,-1000 # ffffffff8040da70 <function_config>
ffffffff80407e60:	fe846783          	lwu	a5,-24(s0)
ffffffff80407e64:	078a                	slli	a5,a5,0x2
ffffffff80407e66:	97ba                	add	a5,a5,a4
ffffffff80407e68:	439c                	lw	a5,0(a5)
ffffffff80407e6a:	0107d79b          	srliw	a5,a5,0x10
ffffffff80407e6e:	8b85                	andi	a5,a5,1
ffffffff80407e70:	0ff7fe93          	andi	t4,a5,255
ffffffff80407e74:	00006717          	auipc	a4,0x6
ffffffff80407e78:	bfc70713          	addi	a4,a4,-1028 # ffffffff8040da70 <function_config>
ffffffff80407e7c:	fe846783          	lwu	a5,-24(s0)
ffffffff80407e80:	078a                	slli	a5,a5,0x2
ffffffff80407e82:	97ba                	add	a5,a5,a4
ffffffff80407e84:	439c                	lw	a5,0(a5)
ffffffff80407e86:	0117d79b          	srliw	a5,a5,0x11
ffffffff80407e8a:	8b85                	andi	a5,a5,1
ffffffff80407e8c:	0ff7fe13          	andi	t3,a5,255
ffffffff80407e90:	00006717          	auipc	a4,0x6
ffffffff80407e94:	be070713          	addi	a4,a4,-1056 # ffffffff8040da70 <function_config>
ffffffff80407e98:	fe846783          	lwu	a5,-24(s0)
ffffffff80407e9c:	078a                	slli	a5,a5,0x2
ffffffff80407e9e:	97ba                	add	a5,a5,a4
ffffffff80407ea0:	439c                	lw	a5,0(a5)
ffffffff80407ea2:	0137d79b          	srliw	a5,a5,0x13
ffffffff80407ea6:	8b85                	andi	a5,a5,1
ffffffff80407ea8:	0ff7f313          	andi	t1,a5,255
ffffffff80407eac:	00006717          	auipc	a4,0x6
ffffffff80407eb0:	bc470713          	addi	a4,a4,-1084 # ffffffff8040da70 <function_config>
ffffffff80407eb4:	fe846783          	lwu	a5,-24(s0)
ffffffff80407eb8:	078a                	slli	a5,a5,0x2
ffffffff80407eba:	97ba                	add	a5,a5,a4
ffffffff80407ebc:	439c                	lw	a5,0(a5)
ffffffff80407ebe:	0147d79b          	srliw	a5,a5,0x14
ffffffff80407ec2:	8b85                	andi	a5,a5,1
ffffffff80407ec4:	0ff7f893          	andi	a7,a5,255
ffffffff80407ec8:	00006717          	auipc	a4,0x6
ffffffff80407ecc:	ba870713          	addi	a4,a4,-1112 # ffffffff8040da70 <function_config>
ffffffff80407ed0:	fe846783          	lwu	a5,-24(s0)
ffffffff80407ed4:	078a                	slli	a5,a5,0x2
ffffffff80407ed6:	97ba                	add	a5,a5,a4
ffffffff80407ed8:	439c                	lw	a5,0(a5)
ffffffff80407eda:	0157d79b          	srliw	a5,a5,0x15
ffffffff80407ede:	8b85                	andi	a5,a5,1
ffffffff80407ee0:	0ff7f813          	andi	a6,a5,255
ffffffff80407ee4:	00006717          	auipc	a4,0x6
ffffffff80407ee8:	b8c70713          	addi	a4,a4,-1140 # ffffffff8040da70 <function_config>
ffffffff80407eec:	fe846783          	lwu	a5,-24(s0)
ffffffff80407ef0:	078a                	slli	a5,a5,0x2
ffffffff80407ef2:	97ba                	add	a5,a5,a4
ffffffff80407ef4:	439c                	lw	a5,0(a5)
ffffffff80407ef6:	0167d79b          	srliw	a5,a5,0x16
ffffffff80407efa:	8b85                	andi	a5,a5,1
ffffffff80407efc:	0ff7f513          	andi	a0,a5,255
ffffffff80407f00:	00006717          	auipc	a4,0x6
ffffffff80407f04:	b7070713          	addi	a4,a4,-1168 # ffffffff8040da70 <function_config>
ffffffff80407f08:	fe846783          	lwu	a5,-24(s0)
ffffffff80407f0c:	078a                	slli	a5,a5,0x2
ffffffff80407f0e:	97ba                	add	a5,a5,a4
ffffffff80407f10:	439c                	lw	a5,0(a5)
ffffffff80407f12:	0177d79b          	srliw	a5,a5,0x17
ffffffff80407f16:	8b85                	andi	a5,a5,1
ffffffff80407f18:	0ff7f593          	andi	a1,a5,255
ffffffff80407f1c:	4781                	li	a5,0
ffffffff80407f1e:	f007f793          	andi	a5,a5,-256
ffffffff80407f22:	873e                	mv	a4,a5
ffffffff80407f24:	87a6                	mv	a5,s1
ffffffff80407f26:	8fd9                	or	a5,a5,a4
ffffffff80407f28:	8732                	mv	a4,a2
ffffffff80407f2a:	8b3d                	andi	a4,a4,15
ffffffff80407f2c:	0087171b          	slliw	a4,a4,0x8
ffffffff80407f30:	767d                	lui	a2,0xfffff
ffffffff80407f32:	0ff60613          	addi	a2,a2,255 # fffffffffffff0ff <__BSS_END__+0x7fbd799f>
ffffffff80407f36:	8ff1                	and	a5,a5,a2
ffffffff80407f38:	8fd9                	or	a5,a5,a4
ffffffff80407f3a:	871e                	mv	a4,t2
ffffffff80407f3c:	8b05                	andi	a4,a4,1
ffffffff80407f3e:	00c7171b          	slliw	a4,a4,0xc
ffffffff80407f42:	767d                	lui	a2,0xfffff
ffffffff80407f44:	167d                	addi	a2,a2,-1
ffffffff80407f46:	8ff1                	and	a5,a5,a2
ffffffff80407f48:	8fd9                	or	a5,a5,a4
ffffffff80407f4a:	8716                	mv	a4,t0
ffffffff80407f4c:	8b05                	andi	a4,a4,1
ffffffff80407f4e:	00d7171b          	slliw	a4,a4,0xd
ffffffff80407f52:	7679                	lui	a2,0xffffe
ffffffff80407f54:	167d                	addi	a2,a2,-1
ffffffff80407f56:	8ff1                	and	a5,a5,a2
ffffffff80407f58:	8fd9                	or	a5,a5,a4
ffffffff80407f5a:	877e                	mv	a4,t6
ffffffff80407f5c:	8b05                	andi	a4,a4,1
ffffffff80407f5e:	00e7171b          	slliw	a4,a4,0xe
ffffffff80407f62:	7671                	lui	a2,0xffffc
ffffffff80407f64:	167d                	addi	a2,a2,-1
ffffffff80407f66:	8ff1                	and	a5,a5,a2
ffffffff80407f68:	8fd9                	or	a5,a5,a4
ffffffff80407f6a:	877a                	mv	a4,t5
ffffffff80407f6c:	8b05                	andi	a4,a4,1
ffffffff80407f6e:	00f7171b          	slliw	a4,a4,0xf
ffffffff80407f72:	7661                	lui	a2,0xffff8
ffffffff80407f74:	167d                	addi	a2,a2,-1
ffffffff80407f76:	8ff1                	and	a5,a5,a2
ffffffff80407f78:	8fd9                	or	a5,a5,a4
ffffffff80407f7a:	8776                	mv	a4,t4
ffffffff80407f7c:	8b05                	andi	a4,a4,1
ffffffff80407f7e:	0107171b          	slliw	a4,a4,0x10
ffffffff80407f82:	7641                	lui	a2,0xffff0
ffffffff80407f84:	167d                	addi	a2,a2,-1
ffffffff80407f86:	8ff1                	and	a5,a5,a2
ffffffff80407f88:	8fd9                	or	a5,a5,a4
ffffffff80407f8a:	8772                	mv	a4,t3
ffffffff80407f8c:	8b05                	andi	a4,a4,1
ffffffff80407f8e:	0117171b          	slliw	a4,a4,0x11
ffffffff80407f92:	7601                	lui	a2,0xfffe0
ffffffff80407f94:	167d                	addi	a2,a2,-1
ffffffff80407f96:	8ff1                	and	a5,a5,a2
ffffffff80407f98:	8fd9                	or	a5,a5,a4
ffffffff80407f9a:	871a                	mv	a4,t1
ffffffff80407f9c:	8b05                	andi	a4,a4,1
ffffffff80407f9e:	0137171b          	slliw	a4,a4,0x13
ffffffff80407fa2:	fff80637          	lui	a2,0xfff80
ffffffff80407fa6:	167d                	addi	a2,a2,-1
ffffffff80407fa8:	8ff1                	and	a5,a5,a2
ffffffff80407faa:	8fd9                	or	a5,a5,a4
ffffffff80407fac:	8746                	mv	a4,a7
ffffffff80407fae:	8b05                	andi	a4,a4,1
ffffffff80407fb0:	0147171b          	slliw	a4,a4,0x14
ffffffff80407fb4:	fff00637          	lui	a2,0xfff00
ffffffff80407fb8:	167d                	addi	a2,a2,-1
ffffffff80407fba:	8ff1                	and	a5,a5,a2
ffffffff80407fbc:	8fd9                	or	a5,a5,a4
ffffffff80407fbe:	8742                	mv	a4,a6
ffffffff80407fc0:	8b05                	andi	a4,a4,1
ffffffff80407fc2:	0157171b          	slliw	a4,a4,0x15
ffffffff80407fc6:	ffe00637          	lui	a2,0xffe00
ffffffff80407fca:	167d                	addi	a2,a2,-1
ffffffff80407fcc:	8ff1                	and	a5,a5,a2
ffffffff80407fce:	8fd9                	or	a5,a5,a4
ffffffff80407fd0:	872a                	mv	a4,a0
ffffffff80407fd2:	8b05                	andi	a4,a4,1
ffffffff80407fd4:	0167171b          	slliw	a4,a4,0x16
ffffffff80407fd8:	ffc00637          	lui	a2,0xffc00
ffffffff80407fdc:	167d                	addi	a2,a2,-1
ffffffff80407fde:	8ff1                	and	a5,a5,a2
ffffffff80407fe0:	8fd9                	or	a5,a5,a4
ffffffff80407fe2:	872e                	mv	a4,a1
ffffffff80407fe4:	8b05                	andi	a4,a4,1
ffffffff80407fe6:	0177171b          	slliw	a4,a4,0x17
ffffffff80407fea:	ff800637          	lui	a2,0xff800
ffffffff80407fee:	167d                	addi	a2,a2,-1
ffffffff80407ff0:	8ff1                	and	a5,a5,a2
ffffffff80407ff2:	8fd9                	or	a5,a5,a4
ffffffff80407ff4:	fec42703          	lw	a4,-20(s0)
ffffffff80407ff8:	070a                	slli	a4,a4,0x2
ffffffff80407ffa:	9736                	add	a4,a4,a3
ffffffff80407ffc:	c31c                	sw	a5,0(a4)
ffffffff80407ffe:	4781                	li	a5,0
ffffffff80408000:	853e                	mv	a0,a5
ffffffff80408002:	6462                	ld	s0,24(sp)
ffffffff80408004:	64c2                	ld	s1,16(sp)
ffffffff80408006:	6105                	addi	sp,sp,32
ffffffff80408008:	8082                	ret

ffffffff8040800a <fpioa_set_function>:
ffffffff8040800a:	7179                	addi	sp,sp,-48
ffffffff8040800c:	f406                	sd	ra,40(sp)
ffffffff8040800e:	f022                	sd	s0,32(sp)
ffffffff80408010:	1800                	addi	s0,sp,48
ffffffff80408012:	87aa                	mv	a5,a0
ffffffff80408014:	872e                	mv	a4,a1
ffffffff80408016:	fcf42e23          	sw	a5,-36(s0)
ffffffff8040801a:	87ba                	mv	a5,a4
ffffffff8040801c:	fcf42c23          	sw	a5,-40(s0)
ffffffff80408020:	fe0407a3          	sb	zero,-17(s0)
ffffffff80408024:	fdc42783          	lw	a5,-36(s0)
ffffffff80408028:	2781                	sext.w	a5,a5
ffffffff8040802a:	0207c263          	bltz	a5,ffffffff8040804e <fpioa_set_function+0x44>
ffffffff8040802e:	fdc42783          	lw	a5,-36(s0)
ffffffff80408032:	0007871b          	sext.w	a4,a5
ffffffff80408036:	02f00793          	li	a5,47
ffffffff8040803a:	00e7ca63          	blt	a5,a4,ffffffff8040804e <fpioa_set_function+0x44>
ffffffff8040803e:	fd842783          	lw	a5,-40(s0)
ffffffff80408042:	0007871b          	sext.w	a4,a5
ffffffff80408046:	0ff00793          	li	a5,255
ffffffff8040804a:	00e7f463          	bgeu	a5,a4,ffffffff80408052 <fpioa_set_function+0x48>
ffffffff8040804e:	57fd                	li	a5,-1
ffffffff80408050:	a045                	j	ffffffff804080f0 <fpioa_set_function+0xe6>
ffffffff80408052:	fd842783          	lw	a5,-40(s0)
ffffffff80408056:	0007871b          	sext.w	a4,a5
ffffffff8040805a:	07800793          	li	a5,120
ffffffff8040805e:	00f71b63          	bne	a4,a5,ffffffff80408074 <fpioa_set_function+0x6a>
ffffffff80408062:	fdc42783          	lw	a5,-36(s0)
ffffffff80408066:	07800593          	li	a1,120
ffffffff8040806a:	853e                	mv	a0,a5
ffffffff8040806c:	d01ff0ef          	jal	ra,ffffffff80407d6c <fpioa_set_function_raw>
ffffffff80408070:	4781                	li	a5,0
ffffffff80408072:	a8bd                	j	ffffffff804080f0 <fpioa_set_function+0xe6>
ffffffff80408074:	fe0407a3          	sb	zero,-17(s0)
ffffffff80408078:	a899                	j	ffffffff804080ce <fpioa_set_function+0xc4>
ffffffff8040807a:	f502b7b7          	lui	a5,0xf502b
ffffffff8040807e:	00479713          	slli	a4,a5,0x4
ffffffff80408082:	fef44783          	lbu	a5,-17(s0)
ffffffff80408086:	2781                	sext.w	a5,a5
ffffffff80408088:	078a                	slli	a5,a5,0x2
ffffffff8040808a:	97ba                	add	a5,a5,a4
ffffffff8040808c:	0007c783          	lbu	a5,0(a5) # fffffffff502b000 <__BSS_END__+0x74c038a0>
ffffffff80408090:	0ff7f793          	andi	a5,a5,255
ffffffff80408094:	0007871b          	sext.w	a4,a5
ffffffff80408098:	fd842783          	lw	a5,-40(s0)
ffffffff8040809c:	2781                	sext.w	a5,a5
ffffffff8040809e:	02e79363          	bne	a5,a4,ffffffff804080c4 <fpioa_set_function+0xba>
ffffffff804080a2:	fef44783          	lbu	a5,-17(s0)
ffffffff804080a6:	0007871b          	sext.w	a4,a5
ffffffff804080aa:	fdc42783          	lw	a5,-36(s0)
ffffffff804080ae:	2781                	sext.w	a5,a5
ffffffff804080b0:	00e78a63          	beq	a5,a4,ffffffff804080c4 <fpioa_set_function+0xba>
ffffffff804080b4:	fef44783          	lbu	a5,-17(s0)
ffffffff804080b8:	2781                	sext.w	a5,a5
ffffffff804080ba:	07800593          	li	a1,120
ffffffff804080be:	853e                	mv	a0,a5
ffffffff804080c0:	cadff0ef          	jal	ra,ffffffff80407d6c <fpioa_set_function_raw>
ffffffff804080c4:	fef44783          	lbu	a5,-17(s0)
ffffffff804080c8:	2785                	addiw	a5,a5,1
ffffffff804080ca:	fef407a3          	sb	a5,-17(s0)
ffffffff804080ce:	fef44783          	lbu	a5,-17(s0)
ffffffff804080d2:	0ff7f713          	andi	a4,a5,255
ffffffff804080d6:	02f00793          	li	a5,47
ffffffff804080da:	fae7f0e3          	bgeu	a5,a4,ffffffff8040807a <fpioa_set_function+0x70>
ffffffff804080de:	fd842703          	lw	a4,-40(s0)
ffffffff804080e2:	fdc42783          	lw	a5,-36(s0)
ffffffff804080e6:	85ba                	mv	a1,a4
ffffffff804080e8:	853e                	mv	a0,a5
ffffffff804080ea:	c83ff0ef          	jal	ra,ffffffff80407d6c <fpioa_set_function_raw>
ffffffff804080ee:	4781                	li	a5,0
ffffffff804080f0:	853e                	mv	a0,a5
ffffffff804080f2:	70a2                	ld	ra,40(sp)
ffffffff804080f4:	7402                	ld	s0,32(sp)
ffffffff804080f6:	6145                	addi	sp,sp,48
ffffffff804080f8:	8082                	ret

ffffffff804080fa <fpioa_set_tie_enable>:
ffffffff804080fa:	1101                	addi	sp,sp,-32
ffffffff804080fc:	ec22                	sd	s0,24(sp)
ffffffff804080fe:	1000                	addi	s0,sp,32
ffffffff80408100:	87aa                	mv	a5,a0
ffffffff80408102:	872e                	mv	a4,a1
ffffffff80408104:	fef42623          	sw	a5,-20(s0)
ffffffff80408108:	87ba                	mv	a5,a4
ffffffff8040810a:	fef42423          	sw	a5,-24(s0)
ffffffff8040810e:	fec42783          	lw	a5,-20(s0)
ffffffff80408112:	0007871b          	sext.w	a4,a5
ffffffff80408116:	0ff00793          	li	a5,255
ffffffff8040811a:	00e7f463          	bgeu	a5,a4,ffffffff80408122 <fpioa_set_tie_enable+0x28>
ffffffff8040811e:	57fd                	li	a5,-1
ffffffff80408120:	a0f1                	j	ffffffff804081ec <fpioa_set_tie_enable+0xf2>
ffffffff80408122:	fe842783          	lw	a5,-24(s0)
ffffffff80408126:	2781                	sext.w	a5,a5
ffffffff80408128:	c3a5                	beqz	a5,ffffffff80408188 <fpioa_set_tie_enable+0x8e>
ffffffff8040812a:	f502b7b7          	lui	a5,0xf502b
ffffffff8040812e:	00479713          	slli	a4,a5,0x4
ffffffff80408132:	fec42783          	lw	a5,-20(s0)
ffffffff80408136:	0057d79b          	srliw	a5,a5,0x5
ffffffff8040813a:	0007861b          	sext.w	a2,a5
ffffffff8040813e:	02061793          	slli	a5,a2,0x20
ffffffff80408142:	9381                	srli	a5,a5,0x20
ffffffff80408144:	03078793          	addi	a5,a5,48 # fffffffff502b030 <__BSS_END__+0x74c038d0>
ffffffff80408148:	078a                	slli	a5,a5,0x2
ffffffff8040814a:	97ba                	add	a5,a5,a4
ffffffff8040814c:	439c                	lw	a5,0(a5)
ffffffff8040814e:	0007871b          	sext.w	a4,a5
ffffffff80408152:	fec42783          	lw	a5,-20(s0)
ffffffff80408156:	8bfd                	andi	a5,a5,31
ffffffff80408158:	2781                	sext.w	a5,a5
ffffffff8040815a:	86be                	mv	a3,a5
ffffffff8040815c:	4785                	li	a5,1
ffffffff8040815e:	00d797b3          	sll	a5,a5,a3
ffffffff80408162:	0007859b          	sext.w	a1,a5
ffffffff80408166:	f502b7b7          	lui	a5,0xf502b
ffffffff8040816a:	00479693          	slli	a3,a5,0x4
ffffffff8040816e:	87ae                	mv	a5,a1
ffffffff80408170:	8fd9                	or	a5,a5,a4
ffffffff80408172:	0007871b          	sext.w	a4,a5
ffffffff80408176:	02061793          	slli	a5,a2,0x20
ffffffff8040817a:	9381                	srli	a5,a5,0x20
ffffffff8040817c:	03078793          	addi	a5,a5,48 # fffffffff502b030 <__BSS_END__+0x74c038d0>
ffffffff80408180:	078a                	slli	a5,a5,0x2
ffffffff80408182:	97b6                	add	a5,a5,a3
ffffffff80408184:	c398                	sw	a4,0(a5)
ffffffff80408186:	a095                	j	ffffffff804081ea <fpioa_set_tie_enable+0xf0>
ffffffff80408188:	f502b7b7          	lui	a5,0xf502b
ffffffff8040818c:	00479713          	slli	a4,a5,0x4
ffffffff80408190:	fec42783          	lw	a5,-20(s0)
ffffffff80408194:	0057d79b          	srliw	a5,a5,0x5
ffffffff80408198:	0007861b          	sext.w	a2,a5
ffffffff8040819c:	02061793          	slli	a5,a2,0x20
ffffffff804081a0:	9381                	srli	a5,a5,0x20
ffffffff804081a2:	03078793          	addi	a5,a5,48 # fffffffff502b030 <__BSS_END__+0x74c038d0>
ffffffff804081a6:	078a                	slli	a5,a5,0x2
ffffffff804081a8:	97ba                	add	a5,a5,a4
ffffffff804081aa:	439c                	lw	a5,0(a5)
ffffffff804081ac:	0007871b          	sext.w	a4,a5
ffffffff804081b0:	fec42783          	lw	a5,-20(s0)
ffffffff804081b4:	8bfd                	andi	a5,a5,31
ffffffff804081b6:	2781                	sext.w	a5,a5
ffffffff804081b8:	86be                	mv	a3,a5
ffffffff804081ba:	4785                	li	a5,1
ffffffff804081bc:	00d797b3          	sll	a5,a5,a3
ffffffff804081c0:	2781                	sext.w	a5,a5
ffffffff804081c2:	fff7c793          	not	a5,a5
ffffffff804081c6:	0007859b          	sext.w	a1,a5
ffffffff804081ca:	f502b7b7          	lui	a5,0xf502b
ffffffff804081ce:	00479693          	slli	a3,a5,0x4
ffffffff804081d2:	87ae                	mv	a5,a1
ffffffff804081d4:	8ff9                	and	a5,a5,a4
ffffffff804081d6:	0007871b          	sext.w	a4,a5
ffffffff804081da:	02061793          	slli	a5,a2,0x20
ffffffff804081de:	9381                	srli	a5,a5,0x20
ffffffff804081e0:	03078793          	addi	a5,a5,48 # fffffffff502b030 <__BSS_END__+0x74c038d0>
ffffffff804081e4:	078a                	slli	a5,a5,0x2
ffffffff804081e6:	97b6                	add	a5,a5,a3
ffffffff804081e8:	c398                	sw	a4,0(a5)
ffffffff804081ea:	4781                	li	a5,0
ffffffff804081ec:	853e                	mv	a0,a5
ffffffff804081ee:	6462                	ld	s0,24(sp)
ffffffff804081f0:	6105                	addi	sp,sp,32
ffffffff804081f2:	8082                	ret

ffffffff804081f4 <fpioa_set_tie_value>:
ffffffff804081f4:	1101                	addi	sp,sp,-32
ffffffff804081f6:	ec22                	sd	s0,24(sp)
ffffffff804081f8:	1000                	addi	s0,sp,32
ffffffff804081fa:	87aa                	mv	a5,a0
ffffffff804081fc:	872e                	mv	a4,a1
ffffffff804081fe:	fef42623          	sw	a5,-20(s0)
ffffffff80408202:	87ba                	mv	a5,a4
ffffffff80408204:	fef42423          	sw	a5,-24(s0)
ffffffff80408208:	fec42783          	lw	a5,-20(s0)
ffffffff8040820c:	0007871b          	sext.w	a4,a5
ffffffff80408210:	0ff00793          	li	a5,255
ffffffff80408214:	00e7f463          	bgeu	a5,a4,ffffffff8040821c <fpioa_set_tie_value+0x28>
ffffffff80408218:	57fd                	li	a5,-1
ffffffff8040821a:	a0f1                	j	ffffffff804082e6 <fpioa_set_tie_value+0xf2>
ffffffff8040821c:	fe842783          	lw	a5,-24(s0)
ffffffff80408220:	2781                	sext.w	a5,a5
ffffffff80408222:	c3a5                	beqz	a5,ffffffff80408282 <fpioa_set_tie_value+0x8e>
ffffffff80408224:	f502b7b7          	lui	a5,0xf502b
ffffffff80408228:	00479713          	slli	a4,a5,0x4
ffffffff8040822c:	fec42783          	lw	a5,-20(s0)
ffffffff80408230:	0057d79b          	srliw	a5,a5,0x5
ffffffff80408234:	0007861b          	sext.w	a2,a5
ffffffff80408238:	02061793          	slli	a5,a2,0x20
ffffffff8040823c:	9381                	srli	a5,a5,0x20
ffffffff8040823e:	03878793          	addi	a5,a5,56 # fffffffff502b038 <__BSS_END__+0x74c038d8>
ffffffff80408242:	078a                	slli	a5,a5,0x2
ffffffff80408244:	97ba                	add	a5,a5,a4
ffffffff80408246:	439c                	lw	a5,0(a5)
ffffffff80408248:	0007871b          	sext.w	a4,a5
ffffffff8040824c:	fec42783          	lw	a5,-20(s0)
ffffffff80408250:	8bfd                	andi	a5,a5,31
ffffffff80408252:	2781                	sext.w	a5,a5
ffffffff80408254:	86be                	mv	a3,a5
ffffffff80408256:	4785                	li	a5,1
ffffffff80408258:	00d797b3          	sll	a5,a5,a3
ffffffff8040825c:	0007859b          	sext.w	a1,a5
ffffffff80408260:	f502b7b7          	lui	a5,0xf502b
ffffffff80408264:	00479693          	slli	a3,a5,0x4
ffffffff80408268:	87ae                	mv	a5,a1
ffffffff8040826a:	8fd9                	or	a5,a5,a4
ffffffff8040826c:	0007871b          	sext.w	a4,a5
ffffffff80408270:	02061793          	slli	a5,a2,0x20
ffffffff80408274:	9381                	srli	a5,a5,0x20
ffffffff80408276:	03878793          	addi	a5,a5,56 # fffffffff502b038 <__BSS_END__+0x74c038d8>
ffffffff8040827a:	078a                	slli	a5,a5,0x2
ffffffff8040827c:	97b6                	add	a5,a5,a3
ffffffff8040827e:	c398                	sw	a4,0(a5)
ffffffff80408280:	a095                	j	ffffffff804082e4 <fpioa_set_tie_value+0xf0>
ffffffff80408282:	f502b7b7          	lui	a5,0xf502b
ffffffff80408286:	00479713          	slli	a4,a5,0x4
ffffffff8040828a:	fec42783          	lw	a5,-20(s0)
ffffffff8040828e:	0057d79b          	srliw	a5,a5,0x5
ffffffff80408292:	0007861b          	sext.w	a2,a5
ffffffff80408296:	02061793          	slli	a5,a2,0x20
ffffffff8040829a:	9381                	srli	a5,a5,0x20
ffffffff8040829c:	03878793          	addi	a5,a5,56 # fffffffff502b038 <__BSS_END__+0x74c038d8>
ffffffff804082a0:	078a                	slli	a5,a5,0x2
ffffffff804082a2:	97ba                	add	a5,a5,a4
ffffffff804082a4:	439c                	lw	a5,0(a5)
ffffffff804082a6:	0007871b          	sext.w	a4,a5
ffffffff804082aa:	fec42783          	lw	a5,-20(s0)
ffffffff804082ae:	8bfd                	andi	a5,a5,31
ffffffff804082b0:	2781                	sext.w	a5,a5
ffffffff804082b2:	86be                	mv	a3,a5
ffffffff804082b4:	4785                	li	a5,1
ffffffff804082b6:	00d797b3          	sll	a5,a5,a3
ffffffff804082ba:	2781                	sext.w	a5,a5
ffffffff804082bc:	fff7c793          	not	a5,a5
ffffffff804082c0:	0007859b          	sext.w	a1,a5
ffffffff804082c4:	f502b7b7          	lui	a5,0xf502b
ffffffff804082c8:	00479693          	slli	a3,a5,0x4
ffffffff804082cc:	87ae                	mv	a5,a1
ffffffff804082ce:	8ff9                	and	a5,a5,a4
ffffffff804082d0:	0007871b          	sext.w	a4,a5
ffffffff804082d4:	02061793          	slli	a5,a2,0x20
ffffffff804082d8:	9381                	srli	a5,a5,0x20
ffffffff804082da:	03878793          	addi	a5,a5,56 # fffffffff502b038 <__BSS_END__+0x74c038d8>
ffffffff804082de:	078a                	slli	a5,a5,0x2
ffffffff804082e0:	97b6                	add	a5,a5,a3
ffffffff804082e2:	c398                	sw	a4,0(a5)
ffffffff804082e4:	4781                	li	a5,0
ffffffff804082e6:	853e                	mv	a0,a5
ffffffff804082e8:	6462                	ld	s0,24(sp)
ffffffff804082ea:	6105                	addi	sp,sp,32
ffffffff804082ec:	8082                	ret

ffffffff804082ee <fpioa_get_io_by_function>:
ffffffff804082ee:	7179                	addi	sp,sp,-48
ffffffff804082f0:	f422                	sd	s0,40(sp)
ffffffff804082f2:	1800                	addi	s0,sp,48
ffffffff804082f4:	87aa                	mv	a5,a0
ffffffff804082f6:	fcf42e23          	sw	a5,-36(s0)
ffffffff804082fa:	fe042623          	sw	zero,-20(s0)
ffffffff804082fe:	fe042623          	sw	zero,-20(s0)
ffffffff80408302:	a825                	j	ffffffff8040833a <fpioa_get_io_by_function+0x4c>
ffffffff80408304:	f502b7b7          	lui	a5,0xf502b
ffffffff80408308:	00479713          	slli	a4,a5,0x4
ffffffff8040830c:	fec42783          	lw	a5,-20(s0)
ffffffff80408310:	078a                	slli	a5,a5,0x2
ffffffff80408312:	97ba                	add	a5,a5,a4
ffffffff80408314:	0007c783          	lbu	a5,0(a5) # fffffffff502b000 <__BSS_END__+0x74c038a0>
ffffffff80408318:	0ff7f793          	andi	a5,a5,255
ffffffff8040831c:	0007871b          	sext.w	a4,a5
ffffffff80408320:	fdc42783          	lw	a5,-36(s0)
ffffffff80408324:	2781                	sext.w	a5,a5
ffffffff80408326:	00e79563          	bne	a5,a4,ffffffff80408330 <fpioa_get_io_by_function+0x42>
ffffffff8040832a:	fec42783          	lw	a5,-20(s0)
ffffffff8040832e:	a839                	j	ffffffff8040834c <fpioa_get_io_by_function+0x5e>
ffffffff80408330:	fec42783          	lw	a5,-20(s0)
ffffffff80408334:	2785                	addiw	a5,a5,1
ffffffff80408336:	fef42623          	sw	a5,-20(s0)
ffffffff8040833a:	fec42783          	lw	a5,-20(s0)
ffffffff8040833e:	0007871b          	sext.w	a4,a5
ffffffff80408342:	02f00793          	li	a5,47
ffffffff80408346:	fae7dfe3          	bge	a5,a4,ffffffff80408304 <fpioa_get_io_by_function+0x16>
ffffffff8040834a:	57fd                	li	a5,-1
ffffffff8040834c:	853e                	mv	a0,a5
ffffffff8040834e:	7422                	ld	s0,40(sp)
ffffffff80408350:	6145                	addi	sp,sp,48
ffffffff80408352:	8082                	ret

ffffffff80408354 <fpioa_pin_init>:
ffffffff80408354:	1141                	addi	sp,sp,-16
ffffffff80408356:	e406                	sd	ra,8(sp)
ffffffff80408358:	e022                	sd	s0,0(sp)
ffffffff8040835a:	0800                	addi	s0,sp,16
ffffffff8040835c:	6585                	lui	a1,0x1
ffffffff8040835e:	f502b7b7          	lui	a5,0xf502b
ffffffff80408362:	00479513          	slli	a0,a5,0x4
ffffffff80408366:	ec8fd0ef          	jal	ra,ffffffff80405a2e <ioremap>
ffffffff8040836a:	45c5                	li	a1,17
ffffffff8040836c:	456d                	li	a0,27
ffffffff8040836e:	c9dff0ef          	jal	ra,ffffffff8040800a <fpioa_set_function>
ffffffff80408372:	4591                	li	a1,4
ffffffff80408374:	4571                	li	a0,28
ffffffff80408376:	c95ff0ef          	jal	ra,ffffffff8040800a <fpioa_set_function>
ffffffff8040837a:	4595                	li	a1,5
ffffffff8040837c:	4569                	li	a0,26
ffffffff8040837e:	c8dff0ef          	jal	ra,ffffffff8040800a <fpioa_set_function>
ffffffff80408382:	45fd                	li	a1,31
ffffffff80408384:	02000513          	li	a0,32
ffffffff80408388:	c83ff0ef          	jal	ra,ffffffff8040800a <fpioa_set_function>
ffffffff8040838c:	45b1                	li	a1,12
ffffffff8040838e:	4575                	li	a0,29
ffffffff80408390:	c7bff0ef          	jal	ra,ffffffff8040800a <fpioa_set_function>
ffffffff80408394:	0001                	nop
ffffffff80408396:	60a2                	ld	ra,8(sp)
ffffffff80408398:	6402                	ld	s0,0(sp)
ffffffff8040839a:	0141                	addi	sp,sp,16
ffffffff8040839c:	8082                	ret

ffffffff8040839e <gpiohs_init>:
ffffffff8040839e:	1141                	addi	sp,sp,-16
ffffffff804083a0:	e406                	sd	ra,8(sp)
ffffffff804083a2:	e022                	sd	s0,0(sp)
ffffffff804083a4:	0800                	addi	s0,sp,16
ffffffff804083a6:	6605                	lui	a2,0x1
ffffffff804083a8:	fff387b7          	lui	a5,0xfff38
ffffffff804083ac:	0785                	addi	a5,a5,1
ffffffff804083ae:	00c79593          	slli	a1,a5,0xc
ffffffff804083b2:	fff387b7          	lui	a5,0xfff38
ffffffff804083b6:	0785                	addi	a5,a5,1
ffffffff804083b8:	00c79513          	slli	a0,a5,0xc
ffffffff804083bc:	e72fd0ef          	jal	ra,ffffffff80405a2e <ioremap>
ffffffff804083c0:	0001                	nop
ffffffff804083c2:	60a2                	ld	ra,8(sp)
ffffffff804083c4:	6402                	ld	s0,0(sp)
ffffffff804083c6:	0141                	addi	sp,sp,16
ffffffff804083c8:	8082                	ret

ffffffff804083ca <gpiohs_set_drive_mode>:
ffffffff804083ca:	7139                	addi	sp,sp,-64
ffffffff804083cc:	fc06                	sd	ra,56(sp)
ffffffff804083ce:	f822                	sd	s0,48(sp)
ffffffff804083d0:	0080                	addi	s0,sp,64
ffffffff804083d2:	87aa                	mv	a5,a0
ffffffff804083d4:	872e                	mv	a4,a1
ffffffff804083d6:	fcf407a3          	sb	a5,-49(s0)
ffffffff804083da:	87ba                	mv	a5,a4
ffffffff804083dc:	fcf42423          	sw	a5,-56(s0)
ffffffff804083e0:	fcf44783          	lbu	a5,-49(s0)
ffffffff804083e4:	2781                	sext.w	a5,a5
ffffffff804083e6:	27e1                	addiw	a5,a5,24
ffffffff804083e8:	2781                	sext.w	a5,a5
ffffffff804083ea:	2781                	sext.w	a5,a5
ffffffff804083ec:	853e                	mv	a0,a5
ffffffff804083ee:	f01ff0ef          	jal	ra,ffffffff804082ee <fpioa_get_io_by_function>
ffffffff804083f2:	87aa                	mv	a5,a0
ffffffff804083f4:	fef42223          	sw	a5,-28(s0)
ffffffff804083f8:	fe042623          	sw	zero,-20(s0)
ffffffff804083fc:	fe042423          	sw	zero,-24(s0)
ffffffff80408400:	fc842783          	lw	a5,-56(s0)
ffffffff80408404:	0007871b          	sext.w	a4,a5
ffffffff80408408:	4785                	li	a5,1
ffffffff8040840a:	02f70a63          	beq	a4,a5,ffffffff8040843e <gpiohs_set_drive_mode+0x74>
ffffffff8040840e:	fc842783          	lw	a5,-56(s0)
ffffffff80408412:	2781                	sext.w	a5,a5
ffffffff80408414:	c385                	beqz	a5,ffffffff80408434 <gpiohs_set_drive_mode+0x6a>
ffffffff80408416:	fc842783          	lw	a5,-56(s0)
ffffffff8040841a:	0007871b          	sext.w	a4,a5
ffffffff8040841e:	4789                	li	a5,2
ffffffff80408420:	02f70563          	beq	a4,a5,ffffffff8040844a <gpiohs_set_drive_mode+0x80>
ffffffff80408424:	fc842783          	lw	a5,-56(s0)
ffffffff80408428:	0007871b          	sext.w	a4,a5
ffffffff8040842c:	478d                	li	a5,3
ffffffff8040842e:	02f70463          	beq	a4,a5,ffffffff80408456 <gpiohs_set_drive_mode+0x8c>
ffffffff80408432:	a80d                	j	ffffffff80408464 <gpiohs_set_drive_mode+0x9a>
ffffffff80408434:	fe042623          	sw	zero,-20(s0)
ffffffff80408438:	fe042423          	sw	zero,-24(s0)
ffffffff8040843c:	a025                	j	ffffffff80408464 <gpiohs_set_drive_mode+0x9a>
ffffffff8040843e:	4785                	li	a5,1
ffffffff80408440:	fef42623          	sw	a5,-20(s0)
ffffffff80408444:	fe042423          	sw	zero,-24(s0)
ffffffff80408448:	a831                	j	ffffffff80408464 <gpiohs_set_drive_mode+0x9a>
ffffffff8040844a:	4789                	li	a5,2
ffffffff8040844c:	fef42623          	sw	a5,-20(s0)
ffffffff80408450:	fe042423          	sw	zero,-24(s0)
ffffffff80408454:	a801                	j	ffffffff80408464 <gpiohs_set_drive_mode+0x9a>
ffffffff80408456:	4785                	li	a5,1
ffffffff80408458:	fef42623          	sw	a5,-20(s0)
ffffffff8040845c:	4785                	li	a5,1
ffffffff8040845e:	fef42423          	sw	a5,-24(s0)
ffffffff80408462:	0001                	nop
ffffffff80408464:	fec42703          	lw	a4,-20(s0)
ffffffff80408468:	fe442783          	lw	a5,-28(s0)
ffffffff8040846c:	85ba                	mv	a1,a4
ffffffff8040846e:	853e                	mv	a0,a5
ffffffff80408470:	ce8ff0ef          	jal	ra,ffffffff80407958 <fpioa_set_io_pull>
ffffffff80408474:	fe842783          	lw	a5,-24(s0)
ffffffff80408478:	2781                	sext.w	a5,a5
ffffffff8040847a:	c799                	beqz	a5,ffffffff80408488 <gpiohs_set_drive_mode+0xbe>
ffffffff8040847c:	fff387b7          	lui	a5,0xfff38
ffffffff80408480:	0785                	addi	a5,a5,1
ffffffff80408482:	07b2                	slli	a5,a5,0xc
ffffffff80408484:	07a1                	addi	a5,a5,8
ffffffff80408486:	a031                	j	ffffffff80408492 <gpiohs_set_drive_mode+0xc8>
ffffffff80408488:	fff387b7          	lui	a5,0xfff38
ffffffff8040848c:	0785                	addi	a5,a5,1
ffffffff8040848e:	07b2                	slli	a5,a5,0xc
ffffffff80408490:	0791                	addi	a5,a5,4
ffffffff80408492:	fcf43c23          	sd	a5,-40(s0)
ffffffff80408496:	fe842783          	lw	a5,-24(s0)
ffffffff8040849a:	2781                	sext.w	a5,a5
ffffffff8040849c:	e799                	bnez	a5,ffffffff804084aa <gpiohs_set_drive_mode+0xe0>
ffffffff8040849e:	fff387b7          	lui	a5,0xfff38
ffffffff804084a2:	0785                	addi	a5,a5,1
ffffffff804084a4:	07b2                	slli	a5,a5,0xc
ffffffff804084a6:	07a1                	addi	a5,a5,8
ffffffff804084a8:	a031                	j	ffffffff804084b4 <gpiohs_set_drive_mode+0xea>
ffffffff804084aa:	fff387b7          	lui	a5,0xfff38
ffffffff804084ae:	0785                	addi	a5,a5,1
ffffffff804084b0:	07b2                	slli	a5,a5,0xc
ffffffff804084b2:	0791                	addi	a5,a5,4
ffffffff804084b4:	fcf43823          	sd	a5,-48(s0)
ffffffff804084b8:	fcf44783          	lbu	a5,-49(s0)
ffffffff804084bc:	4601                	li	a2,0
ffffffff804084be:	85be                	mv	a1,a5
ffffffff804084c0:	fd043503          	ld	a0,-48(s0)
ffffffff804084c4:	7ed000ef          	jal	ra,ffffffff804094b0 <set_gpio_bit>
ffffffff804084c8:	fcf44783          	lbu	a5,-49(s0)
ffffffff804084cc:	4605                	li	a2,1
ffffffff804084ce:	85be                	mv	a1,a5
ffffffff804084d0:	fd843503          	ld	a0,-40(s0)
ffffffff804084d4:	7dd000ef          	jal	ra,ffffffff804094b0 <set_gpio_bit>
ffffffff804084d8:	0001                	nop
ffffffff804084da:	70e2                	ld	ra,56(sp)
ffffffff804084dc:	7442                	ld	s0,48(sp)
ffffffff804084de:	6121                	addi	sp,sp,64
ffffffff804084e0:	8082                	ret

ffffffff804084e2 <gpiohs_get_pin>:
ffffffff804084e2:	1101                	addi	sp,sp,-32
ffffffff804084e4:	ec06                	sd	ra,24(sp)
ffffffff804084e6:	e822                	sd	s0,16(sp)
ffffffff804084e8:	1000                	addi	s0,sp,32
ffffffff804084ea:	87aa                	mv	a5,a0
ffffffff804084ec:	fef407a3          	sb	a5,-17(s0)
ffffffff804084f0:	fff387b7          	lui	a5,0xfff38
ffffffff804084f4:	0785                	addi	a5,a5,1
ffffffff804084f6:	07b2                	slli	a5,a5,0xc
ffffffff804084f8:	873e                	mv	a4,a5
ffffffff804084fa:	fef44783          	lbu	a5,-17(s0)
ffffffff804084fe:	85be                	mv	a1,a5
ffffffff80408500:	853a                	mv	a0,a4
ffffffff80408502:	02a010ef          	jal	ra,ffffffff8040952c <get_gpio_bit>
ffffffff80408506:	87aa                	mv	a5,a0
ffffffff80408508:	2781                	sext.w	a5,a5
ffffffff8040850a:	853e                	mv	a0,a5
ffffffff8040850c:	60e2                	ld	ra,24(sp)
ffffffff8040850e:	6442                	ld	s0,16(sp)
ffffffff80408510:	6105                	addi	sp,sp,32
ffffffff80408512:	8082                	ret

ffffffff80408514 <gpiohs_set_pin>:
ffffffff80408514:	1101                	addi	sp,sp,-32
ffffffff80408516:	ec06                	sd	ra,24(sp)
ffffffff80408518:	e822                	sd	s0,16(sp)
ffffffff8040851a:	1000                	addi	s0,sp,32
ffffffff8040851c:	87aa                	mv	a5,a0
ffffffff8040851e:	872e                	mv	a4,a1
ffffffff80408520:	fef407a3          	sb	a5,-17(s0)
ffffffff80408524:	87ba                	mv	a5,a4
ffffffff80408526:	fef42423          	sw	a5,-24(s0)
ffffffff8040852a:	fff387b7          	lui	a5,0xfff38
ffffffff8040852e:	0785                	addi	a5,a5,1
ffffffff80408530:	07b2                	slli	a5,a5,0xc
ffffffff80408532:	07b1                	addi	a5,a5,12
ffffffff80408534:	fef44703          	lbu	a4,-17(s0)
ffffffff80408538:	fe842683          	lw	a3,-24(s0)
ffffffff8040853c:	8636                	mv	a2,a3
ffffffff8040853e:	85ba                	mv	a1,a4
ffffffff80408540:	853e                	mv	a0,a5
ffffffff80408542:	76f000ef          	jal	ra,ffffffff804094b0 <set_gpio_bit>
ffffffff80408546:	0001                	nop
ffffffff80408548:	60e2                	ld	ra,24(sp)
ffffffff8040854a:	6442                	ld	s0,16(sp)
ffffffff8040854c:	6105                	addi	sp,sp,32
ffffffff8040854e:	8082                	ret

ffffffff80408550 <gpiohs_set_pin_edge>:
ffffffff80408550:	1101                	addi	sp,sp,-32
ffffffff80408552:	ec06                	sd	ra,24(sp)
ffffffff80408554:	e822                	sd	s0,16(sp)
ffffffff80408556:	1000                	addi	s0,sp,32
ffffffff80408558:	87aa                	mv	a5,a0
ffffffff8040855a:	872e                	mv	a4,a1
ffffffff8040855c:	fef407a3          	sb	a5,-17(s0)
ffffffff80408560:	87ba                	mv	a5,a4
ffffffff80408562:	fef42423          	sw	a5,-24(s0)
ffffffff80408566:	fff387b7          	lui	a5,0xfff38
ffffffff8040856a:	0785                	addi	a5,a5,1
ffffffff8040856c:	07b2                	slli	a5,a5,0xc
ffffffff8040856e:	07e1                	addi	a5,a5,24
ffffffff80408570:	fef44703          	lbu	a4,-17(s0)
ffffffff80408574:	4601                	li	a2,0
ffffffff80408576:	85ba                	mv	a1,a4
ffffffff80408578:	853e                	mv	a0,a5
ffffffff8040857a:	737000ef          	jal	ra,ffffffff804094b0 <set_gpio_bit>
ffffffff8040857e:	fff387b7          	lui	a5,0xfff38
ffffffff80408582:	0785                	addi	a5,a5,1
ffffffff80408584:	07b2                	slli	a5,a5,0xc
ffffffff80408586:	07f1                	addi	a5,a5,28
ffffffff80408588:	fef44703          	lbu	a4,-17(s0)
ffffffff8040858c:	4605                	li	a2,1
ffffffff8040858e:	85ba                	mv	a1,a4
ffffffff80408590:	853e                	mv	a0,a5
ffffffff80408592:	71f000ef          	jal	ra,ffffffff804094b0 <set_gpio_bit>
ffffffff80408596:	fff387b7          	lui	a5,0xfff38
ffffffff8040859a:	0785                	addi	a5,a5,1
ffffffff8040859c:	07b2                	slli	a5,a5,0xc
ffffffff8040859e:	02078793          	addi	a5,a5,32 # fffffffffff38020 <__BSS_END__+0x7fb108c0>
ffffffff804085a2:	fef44703          	lbu	a4,-17(s0)
ffffffff804085a6:	4601                	li	a2,0
ffffffff804085a8:	85ba                	mv	a1,a4
ffffffff804085aa:	853e                	mv	a0,a5
ffffffff804085ac:	705000ef          	jal	ra,ffffffff804094b0 <set_gpio_bit>
ffffffff804085b0:	fff387b7          	lui	a5,0xfff38
ffffffff804085b4:	0785                	addi	a5,a5,1
ffffffff804085b6:	07b2                	slli	a5,a5,0xc
ffffffff804085b8:	02478793          	addi	a5,a5,36 # fffffffffff38024 <__BSS_END__+0x7fb108c4>
ffffffff804085bc:	fef44703          	lbu	a4,-17(s0)
ffffffff804085c0:	4605                	li	a2,1
ffffffff804085c2:	85ba                	mv	a1,a4
ffffffff804085c4:	853e                	mv	a0,a5
ffffffff804085c6:	6eb000ef          	jal	ra,ffffffff804094b0 <set_gpio_bit>
ffffffff804085ca:	fff387b7          	lui	a5,0xfff38
ffffffff804085ce:	0785                	addi	a5,a5,1
ffffffff804085d0:	07b2                	slli	a5,a5,0xc
ffffffff804085d2:	03078793          	addi	a5,a5,48 # fffffffffff38030 <__BSS_END__+0x7fb108d0>
ffffffff804085d6:	fef44703          	lbu	a4,-17(s0)
ffffffff804085da:	4601                	li	a2,0
ffffffff804085dc:	85ba                	mv	a1,a4
ffffffff804085de:	853e                	mv	a0,a5
ffffffff804085e0:	6d1000ef          	jal	ra,ffffffff804094b0 <set_gpio_bit>
ffffffff804085e4:	fff387b7          	lui	a5,0xfff38
ffffffff804085e8:	0785                	addi	a5,a5,1
ffffffff804085ea:	07b2                	slli	a5,a5,0xc
ffffffff804085ec:	03478793          	addi	a5,a5,52 # fffffffffff38034 <__BSS_END__+0x7fb108d4>
ffffffff804085f0:	fef44703          	lbu	a4,-17(s0)
ffffffff804085f4:	4605                	li	a2,1
ffffffff804085f6:	85ba                	mv	a1,a4
ffffffff804085f8:	853e                	mv	a0,a5
ffffffff804085fa:	6b7000ef          	jal	ra,ffffffff804094b0 <set_gpio_bit>
ffffffff804085fe:	fff387b7          	lui	a5,0xfff38
ffffffff80408602:	0785                	addi	a5,a5,1
ffffffff80408604:	07b2                	slli	a5,a5,0xc
ffffffff80408606:	02878793          	addi	a5,a5,40 # fffffffffff38028 <__BSS_END__+0x7fb108c8>
ffffffff8040860a:	fef44703          	lbu	a4,-17(s0)
ffffffff8040860e:	4601                	li	a2,0
ffffffff80408610:	85ba                	mv	a1,a4
ffffffff80408612:	853e                	mv	a0,a5
ffffffff80408614:	69d000ef          	jal	ra,ffffffff804094b0 <set_gpio_bit>
ffffffff80408618:	fff387b7          	lui	a5,0xfff38
ffffffff8040861c:	0785                	addi	a5,a5,1
ffffffff8040861e:	07b2                	slli	a5,a5,0xc
ffffffff80408620:	02c78793          	addi	a5,a5,44 # fffffffffff3802c <__BSS_END__+0x7fb108cc>
ffffffff80408624:	fef44703          	lbu	a4,-17(s0)
ffffffff80408628:	4605                	li	a2,1
ffffffff8040862a:	85ba                	mv	a1,a4
ffffffff8040862c:	853e                	mv	a0,a5
ffffffff8040862e:	683000ef          	jal	ra,ffffffff804094b0 <set_gpio_bit>
ffffffff80408632:	fe842783          	lw	a5,-24(s0)
ffffffff80408636:	8b85                	andi	a5,a5,1
ffffffff80408638:	2781                	sext.w	a5,a5
ffffffff8040863a:	cf99                	beqz	a5,ffffffff80408658 <gpiohs_set_pin_edge+0x108>
ffffffff8040863c:	fff387b7          	lui	a5,0xfff38
ffffffff80408640:	0785                	addi	a5,a5,1
ffffffff80408642:	07b2                	slli	a5,a5,0xc
ffffffff80408644:	02078793          	addi	a5,a5,32 # fffffffffff38020 <__BSS_END__+0x7fb108c0>
ffffffff80408648:	fef44703          	lbu	a4,-17(s0)
ffffffff8040864c:	4605                	li	a2,1
ffffffff8040864e:	85ba                	mv	a1,a4
ffffffff80408650:	853e                	mv	a0,a5
ffffffff80408652:	65f000ef          	jal	ra,ffffffff804094b0 <set_gpio_bit>
ffffffff80408656:	a831                	j	ffffffff80408672 <gpiohs_set_pin_edge+0x122>
ffffffff80408658:	fff387b7          	lui	a5,0xfff38
ffffffff8040865c:	0785                	addi	a5,a5,1
ffffffff8040865e:	07b2                	slli	a5,a5,0xc
ffffffff80408660:	02078793          	addi	a5,a5,32 # fffffffffff38020 <__BSS_END__+0x7fb108c0>
ffffffff80408664:	fef44703          	lbu	a4,-17(s0)
ffffffff80408668:	4601                	li	a2,0
ffffffff8040866a:	85ba                	mv	a1,a4
ffffffff8040866c:	853e                	mv	a0,a5
ffffffff8040866e:	643000ef          	jal	ra,ffffffff804094b0 <set_gpio_bit>
ffffffff80408672:	fe842783          	lw	a5,-24(s0)
ffffffff80408676:	8b89                	andi	a5,a5,2
ffffffff80408678:	2781                	sext.w	a5,a5
ffffffff8040867a:	cf91                	beqz	a5,ffffffff80408696 <gpiohs_set_pin_edge+0x146>
ffffffff8040867c:	fff387b7          	lui	a5,0xfff38
ffffffff80408680:	0785                	addi	a5,a5,1
ffffffff80408682:	07b2                	slli	a5,a5,0xc
ffffffff80408684:	07e1                	addi	a5,a5,24
ffffffff80408686:	fef44703          	lbu	a4,-17(s0)
ffffffff8040868a:	4605                	li	a2,1
ffffffff8040868c:	85ba                	mv	a1,a4
ffffffff8040868e:	853e                	mv	a0,a5
ffffffff80408690:	621000ef          	jal	ra,ffffffff804094b0 <set_gpio_bit>
ffffffff80408694:	a829                	j	ffffffff804086ae <gpiohs_set_pin_edge+0x15e>
ffffffff80408696:	fff387b7          	lui	a5,0xfff38
ffffffff8040869a:	0785                	addi	a5,a5,1
ffffffff8040869c:	07b2                	slli	a5,a5,0xc
ffffffff8040869e:	07e1                	addi	a5,a5,24
ffffffff804086a0:	fef44703          	lbu	a4,-17(s0)
ffffffff804086a4:	4601                	li	a2,0
ffffffff804086a6:	85ba                	mv	a1,a4
ffffffff804086a8:	853e                	mv	a0,a5
ffffffff804086aa:	607000ef          	jal	ra,ffffffff804094b0 <set_gpio_bit>
ffffffff804086ae:	fe842783          	lw	a5,-24(s0)
ffffffff804086b2:	8b91                	andi	a5,a5,4
ffffffff804086b4:	2781                	sext.w	a5,a5
ffffffff804086b6:	cf99                	beqz	a5,ffffffff804086d4 <gpiohs_set_pin_edge+0x184>
ffffffff804086b8:	fff387b7          	lui	a5,0xfff38
ffffffff804086bc:	0785                	addi	a5,a5,1
ffffffff804086be:	07b2                	slli	a5,a5,0xc
ffffffff804086c0:	03078793          	addi	a5,a5,48 # fffffffffff38030 <__BSS_END__+0x7fb108d0>
ffffffff804086c4:	fef44703          	lbu	a4,-17(s0)
ffffffff804086c8:	4605                	li	a2,1
ffffffff804086ca:	85ba                	mv	a1,a4
ffffffff804086cc:	853e                	mv	a0,a5
ffffffff804086ce:	5e3000ef          	jal	ra,ffffffff804094b0 <set_gpio_bit>
ffffffff804086d2:	a831                	j	ffffffff804086ee <gpiohs_set_pin_edge+0x19e>
ffffffff804086d4:	fff387b7          	lui	a5,0xfff38
ffffffff804086d8:	0785                	addi	a5,a5,1
ffffffff804086da:	07b2                	slli	a5,a5,0xc
ffffffff804086dc:	03078793          	addi	a5,a5,48 # fffffffffff38030 <__BSS_END__+0x7fb108d0>
ffffffff804086e0:	fef44703          	lbu	a4,-17(s0)
ffffffff804086e4:	4601                	li	a2,0
ffffffff804086e6:	85ba                	mv	a1,a4
ffffffff804086e8:	853e                	mv	a0,a5
ffffffff804086ea:	5c7000ef          	jal	ra,ffffffff804094b0 <set_gpio_bit>
ffffffff804086ee:	fe842783          	lw	a5,-24(s0)
ffffffff804086f2:	8ba1                	andi	a5,a5,8
ffffffff804086f4:	2781                	sext.w	a5,a5
ffffffff804086f6:	cf99                	beqz	a5,ffffffff80408714 <gpiohs_set_pin_edge+0x1c4>
ffffffff804086f8:	fff387b7          	lui	a5,0xfff38
ffffffff804086fc:	0785                	addi	a5,a5,1
ffffffff804086fe:	07b2                	slli	a5,a5,0xc
ffffffff80408700:	02878793          	addi	a5,a5,40 # fffffffffff38028 <__BSS_END__+0x7fb108c8>
ffffffff80408704:	fef44703          	lbu	a4,-17(s0)
ffffffff80408708:	4605                	li	a2,1
ffffffff8040870a:	85ba                	mv	a1,a4
ffffffff8040870c:	853e                	mv	a0,a5
ffffffff8040870e:	5a3000ef          	jal	ra,ffffffff804094b0 <set_gpio_bit>
ffffffff80408712:	a831                	j	ffffffff8040872e <gpiohs_set_pin_edge+0x1de>
ffffffff80408714:	fff387b7          	lui	a5,0xfff38
ffffffff80408718:	0785                	addi	a5,a5,1
ffffffff8040871a:	07b2                	slli	a5,a5,0xc
ffffffff8040871c:	02878793          	addi	a5,a5,40 # fffffffffff38028 <__BSS_END__+0x7fb108c8>
ffffffff80408720:	fef44703          	lbu	a4,-17(s0)
ffffffff80408724:	4601                	li	a2,0
ffffffff80408726:	85ba                	mv	a1,a4
ffffffff80408728:	853e                	mv	a0,a5
ffffffff8040872a:	587000ef          	jal	ra,ffffffff804094b0 <set_gpio_bit>
ffffffff8040872e:	fef44783          	lbu	a5,-17(s0)
ffffffff80408732:	0007871b          	sext.w	a4,a5
ffffffff80408736:	00013697          	auipc	a3,0x13
ffffffff8040873a:	81a68693          	addi	a3,a3,-2022 # ffffffff8041af50 <pin_instance>
ffffffff8040873e:	87ba                	mv	a5,a4
ffffffff80408740:	078a                	slli	a5,a5,0x2
ffffffff80408742:	97ba                	add	a5,a5,a4
ffffffff80408744:	078e                	slli	a5,a5,0x3
ffffffff80408746:	97b6                	add	a5,a5,a3
ffffffff80408748:	fe842703          	lw	a4,-24(s0)
ffffffff8040874c:	c798                	sw	a4,8(a5)
ffffffff8040874e:	0001                	nop
ffffffff80408750:	60e2                	ld	ra,24(sp)
ffffffff80408752:	6442                	ld	s0,16(sp)
ffffffff80408754:	6105                	addi	sp,sp,32
ffffffff80408756:	8082                	ret

ffffffff80408758 <gpiohs_pin_onchange_isr>:
ffffffff80408758:	7179                	addi	sp,sp,-48
ffffffff8040875a:	f406                	sd	ra,40(sp)
ffffffff8040875c:	f022                	sd	s0,32(sp)
ffffffff8040875e:	1800                	addi	s0,sp,48
ffffffff80408760:	fca43c23          	sd	a0,-40(s0)
ffffffff80408764:	fd843783          	ld	a5,-40(s0)
ffffffff80408768:	fef43423          	sd	a5,-24(s0)
ffffffff8040876c:	fe843783          	ld	a5,-24(s0)
ffffffff80408770:	639c                	ld	a5,0(a5)
ffffffff80408772:	fef43023          	sd	a5,-32(s0)
ffffffff80408776:	fe843783          	ld	a5,-24(s0)
ffffffff8040877a:	479c                	lw	a5,8(a5)
ffffffff8040877c:	8b85                	andi	a5,a5,1
ffffffff8040877e:	2781                	sext.w	a5,a5
ffffffff80408780:	c7a9                	beqz	a5,ffffffff804087ca <gpiohs_pin_onchange_isr+0x72>
ffffffff80408782:	fff387b7          	lui	a5,0xfff38
ffffffff80408786:	0785                	addi	a5,a5,1
ffffffff80408788:	07b2                	slli	a5,a5,0xc
ffffffff8040878a:	02078793          	addi	a5,a5,32 # fffffffffff38020 <__BSS_END__+0x7fb108c0>
ffffffff8040878e:	4601                	li	a2,0
ffffffff80408790:	fe043583          	ld	a1,-32(s0)
ffffffff80408794:	853e                	mv	a0,a5
ffffffff80408796:	51b000ef          	jal	ra,ffffffff804094b0 <set_gpio_bit>
ffffffff8040879a:	fff387b7          	lui	a5,0xfff38
ffffffff8040879e:	0785                	addi	a5,a5,1
ffffffff804087a0:	07b2                	slli	a5,a5,0xc
ffffffff804087a2:	02478793          	addi	a5,a5,36 # fffffffffff38024 <__BSS_END__+0x7fb108c4>
ffffffff804087a6:	4605                	li	a2,1
ffffffff804087a8:	fe043583          	ld	a1,-32(s0)
ffffffff804087ac:	853e                	mv	a0,a5
ffffffff804087ae:	503000ef          	jal	ra,ffffffff804094b0 <set_gpio_bit>
ffffffff804087b2:	fff387b7          	lui	a5,0xfff38
ffffffff804087b6:	0785                	addi	a5,a5,1
ffffffff804087b8:	07b2                	slli	a5,a5,0xc
ffffffff804087ba:	02078793          	addi	a5,a5,32 # fffffffffff38020 <__BSS_END__+0x7fb108c0>
ffffffff804087be:	4605                	li	a2,1
ffffffff804087c0:	fe043583          	ld	a1,-32(s0)
ffffffff804087c4:	853e                	mv	a0,a5
ffffffff804087c6:	4eb000ef          	jal	ra,ffffffff804094b0 <set_gpio_bit>
ffffffff804087ca:	fe843783          	ld	a5,-24(s0)
ffffffff804087ce:	479c                	lw	a5,8(a5)
ffffffff804087d0:	8b89                	andi	a5,a5,2
ffffffff804087d2:	2781                	sext.w	a5,a5
ffffffff804087d4:	c3b1                	beqz	a5,ffffffff80408818 <gpiohs_pin_onchange_isr+0xc0>
ffffffff804087d6:	fff387b7          	lui	a5,0xfff38
ffffffff804087da:	0785                	addi	a5,a5,1
ffffffff804087dc:	07b2                	slli	a5,a5,0xc
ffffffff804087de:	07e1                	addi	a5,a5,24
ffffffff804087e0:	4601                	li	a2,0
ffffffff804087e2:	fe043583          	ld	a1,-32(s0)
ffffffff804087e6:	853e                	mv	a0,a5
ffffffff804087e8:	4c9000ef          	jal	ra,ffffffff804094b0 <set_gpio_bit>
ffffffff804087ec:	fff387b7          	lui	a5,0xfff38
ffffffff804087f0:	0785                	addi	a5,a5,1
ffffffff804087f2:	07b2                	slli	a5,a5,0xc
ffffffff804087f4:	07f1                	addi	a5,a5,28
ffffffff804087f6:	4605                	li	a2,1
ffffffff804087f8:	fe043583          	ld	a1,-32(s0)
ffffffff804087fc:	853e                	mv	a0,a5
ffffffff804087fe:	4b3000ef          	jal	ra,ffffffff804094b0 <set_gpio_bit>
ffffffff80408802:	fff387b7          	lui	a5,0xfff38
ffffffff80408806:	0785                	addi	a5,a5,1
ffffffff80408808:	07b2                	slli	a5,a5,0xc
ffffffff8040880a:	07e1                	addi	a5,a5,24
ffffffff8040880c:	4605                	li	a2,1
ffffffff8040880e:	fe043583          	ld	a1,-32(s0)
ffffffff80408812:	853e                	mv	a0,a5
ffffffff80408814:	49d000ef          	jal	ra,ffffffff804094b0 <set_gpio_bit>
ffffffff80408818:	fe843783          	ld	a5,-24(s0)
ffffffff8040881c:	479c                	lw	a5,8(a5)
ffffffff8040881e:	8b91                	andi	a5,a5,4
ffffffff80408820:	2781                	sext.w	a5,a5
ffffffff80408822:	c7a9                	beqz	a5,ffffffff8040886c <gpiohs_pin_onchange_isr+0x114>
ffffffff80408824:	fff387b7          	lui	a5,0xfff38
ffffffff80408828:	0785                	addi	a5,a5,1
ffffffff8040882a:	07b2                	slli	a5,a5,0xc
ffffffff8040882c:	03078793          	addi	a5,a5,48 # fffffffffff38030 <__BSS_END__+0x7fb108d0>
ffffffff80408830:	4601                	li	a2,0
ffffffff80408832:	fe043583          	ld	a1,-32(s0)
ffffffff80408836:	853e                	mv	a0,a5
ffffffff80408838:	479000ef          	jal	ra,ffffffff804094b0 <set_gpio_bit>
ffffffff8040883c:	fff387b7          	lui	a5,0xfff38
ffffffff80408840:	0785                	addi	a5,a5,1
ffffffff80408842:	07b2                	slli	a5,a5,0xc
ffffffff80408844:	03478793          	addi	a5,a5,52 # fffffffffff38034 <__BSS_END__+0x7fb108d4>
ffffffff80408848:	4605                	li	a2,1
ffffffff8040884a:	fe043583          	ld	a1,-32(s0)
ffffffff8040884e:	853e                	mv	a0,a5
ffffffff80408850:	461000ef          	jal	ra,ffffffff804094b0 <set_gpio_bit>
ffffffff80408854:	fff387b7          	lui	a5,0xfff38
ffffffff80408858:	0785                	addi	a5,a5,1
ffffffff8040885a:	07b2                	slli	a5,a5,0xc
ffffffff8040885c:	03078793          	addi	a5,a5,48 # fffffffffff38030 <__BSS_END__+0x7fb108d0>
ffffffff80408860:	4605                	li	a2,1
ffffffff80408862:	fe043583          	ld	a1,-32(s0)
ffffffff80408866:	853e                	mv	a0,a5
ffffffff80408868:	449000ef          	jal	ra,ffffffff804094b0 <set_gpio_bit>
ffffffff8040886c:	fe843783          	ld	a5,-24(s0)
ffffffff80408870:	479c                	lw	a5,8(a5)
ffffffff80408872:	8ba1                	andi	a5,a5,8
ffffffff80408874:	2781                	sext.w	a5,a5
ffffffff80408876:	c7a9                	beqz	a5,ffffffff804088c0 <gpiohs_pin_onchange_isr+0x168>
ffffffff80408878:	fff387b7          	lui	a5,0xfff38
ffffffff8040887c:	0785                	addi	a5,a5,1
ffffffff8040887e:	07b2                	slli	a5,a5,0xc
ffffffff80408880:	02878793          	addi	a5,a5,40 # fffffffffff38028 <__BSS_END__+0x7fb108c8>
ffffffff80408884:	4601                	li	a2,0
ffffffff80408886:	fe043583          	ld	a1,-32(s0)
ffffffff8040888a:	853e                	mv	a0,a5
ffffffff8040888c:	425000ef          	jal	ra,ffffffff804094b0 <set_gpio_bit>
ffffffff80408890:	fff387b7          	lui	a5,0xfff38
ffffffff80408894:	0785                	addi	a5,a5,1
ffffffff80408896:	07b2                	slli	a5,a5,0xc
ffffffff80408898:	02c78793          	addi	a5,a5,44 # fffffffffff3802c <__BSS_END__+0x7fb108cc>
ffffffff8040889c:	4605                	li	a2,1
ffffffff8040889e:	fe043583          	ld	a1,-32(s0)
ffffffff804088a2:	853e                	mv	a0,a5
ffffffff804088a4:	40d000ef          	jal	ra,ffffffff804094b0 <set_gpio_bit>
ffffffff804088a8:	fff387b7          	lui	a5,0xfff38
ffffffff804088ac:	0785                	addi	a5,a5,1
ffffffff804088ae:	07b2                	slli	a5,a5,0xc
ffffffff804088b0:	02878793          	addi	a5,a5,40 # fffffffffff38028 <__BSS_END__+0x7fb108c8>
ffffffff804088b4:	4605                	li	a2,1
ffffffff804088b6:	fe043583          	ld	a1,-32(s0)
ffffffff804088ba:	853e                	mv	a0,a5
ffffffff804088bc:	3f5000ef          	jal	ra,ffffffff804094b0 <set_gpio_bit>
ffffffff804088c0:	fe843783          	ld	a5,-24(s0)
ffffffff804088c4:	6b9c                	ld	a5,16(a5)
ffffffff804088c6:	c789                	beqz	a5,ffffffff804088d0 <gpiohs_pin_onchange_isr+0x178>
ffffffff804088c8:	fe843783          	ld	a5,-24(s0)
ffffffff804088cc:	6b9c                	ld	a5,16(a5)
ffffffff804088ce:	9782                	jalr	a5
ffffffff804088d0:	fe843783          	ld	a5,-24(s0)
ffffffff804088d4:	6f9c                	ld	a5,24(a5)
ffffffff804088d6:	cb89                	beqz	a5,ffffffff804088e8 <gpiohs_pin_onchange_isr+0x190>
ffffffff804088d8:	fe843783          	ld	a5,-24(s0)
ffffffff804088dc:	6f98                	ld	a4,24(a5)
ffffffff804088de:	fe843783          	ld	a5,-24(s0)
ffffffff804088e2:	739c                	ld	a5,32(a5)
ffffffff804088e4:	853e                	mv	a0,a5
ffffffff804088e6:	9702                	jalr	a4
ffffffff804088e8:	4781                	li	a5,0
ffffffff804088ea:	853e                	mv	a0,a5
ffffffff804088ec:	70a2                	ld	ra,40(sp)
ffffffff804088ee:	7402                	ld	s0,32(sp)
ffffffff804088f0:	6145                	addi	sp,sp,48
ffffffff804088f2:	8082                	ret

ffffffff804088f4 <gpiohs_set_irq>:
ffffffff804088f4:	1101                	addi	sp,sp,-32
ffffffff804088f6:	ec22                	sd	s0,24(sp)
ffffffff804088f8:	1000                	addi	s0,sp,32
ffffffff804088fa:	87aa                	mv	a5,a0
ffffffff804088fc:	872e                	mv	a4,a1
ffffffff804088fe:	fec43023          	sd	a2,-32(s0)
ffffffff80408902:	fef407a3          	sb	a5,-17(s0)
ffffffff80408906:	87ba                	mv	a5,a4
ffffffff80408908:	fef42423          	sw	a5,-24(s0)
ffffffff8040890c:	fef44783          	lbu	a5,-17(s0)
ffffffff80408910:	0007871b          	sext.w	a4,a5
ffffffff80408914:	fef44683          	lbu	a3,-17(s0)
ffffffff80408918:	00012617          	auipc	a2,0x12
ffffffff8040891c:	63860613          	addi	a2,a2,1592 # ffffffff8041af50 <pin_instance>
ffffffff80408920:	87ba                	mv	a5,a4
ffffffff80408922:	078a                	slli	a5,a5,0x2
ffffffff80408924:	97ba                	add	a5,a5,a4
ffffffff80408926:	078e                	slli	a5,a5,0x3
ffffffff80408928:	97b2                	add	a5,a5,a2
ffffffff8040892a:	e394                	sd	a3,0(a5)
ffffffff8040892c:	fef44783          	lbu	a5,-17(s0)
ffffffff80408930:	0007871b          	sext.w	a4,a5
ffffffff80408934:	00012697          	auipc	a3,0x12
ffffffff80408938:	61c68693          	addi	a3,a3,1564 # ffffffff8041af50 <pin_instance>
ffffffff8040893c:	87ba                	mv	a5,a4
ffffffff8040893e:	078a                	slli	a5,a5,0x2
ffffffff80408940:	97ba                	add	a5,a5,a4
ffffffff80408942:	078e                	slli	a5,a5,0x3
ffffffff80408944:	97b6                	add	a5,a5,a3
ffffffff80408946:	fe043703          	ld	a4,-32(s0)
ffffffff8040894a:	eb98                	sd	a4,16(a5)
ffffffff8040894c:	0001                	nop
ffffffff8040894e:	6462                	ld	s0,24(sp)
ffffffff80408950:	6105                	addi	sp,sp,32
ffffffff80408952:	8082                	ret

ffffffff80408954 <gpiohs_irq_register>:
ffffffff80408954:	7179                	addi	sp,sp,-48
ffffffff80408956:	f422                	sd	s0,40(sp)
ffffffff80408958:	1800                	addi	s0,sp,48
ffffffff8040895a:	87aa                	mv	a5,a0
ffffffff8040895c:	872e                	mv	a4,a1
ffffffff8040895e:	fec43023          	sd	a2,-32(s0)
ffffffff80408962:	fcd43c23          	sd	a3,-40(s0)
ffffffff80408966:	fef407a3          	sb	a5,-17(s0)
ffffffff8040896a:	87ba                	mv	a5,a4
ffffffff8040896c:	fef42423          	sw	a5,-24(s0)
ffffffff80408970:	fef44783          	lbu	a5,-17(s0)
ffffffff80408974:	0007871b          	sext.w	a4,a5
ffffffff80408978:	fef44683          	lbu	a3,-17(s0)
ffffffff8040897c:	00012617          	auipc	a2,0x12
ffffffff80408980:	5d460613          	addi	a2,a2,1492 # ffffffff8041af50 <pin_instance>
ffffffff80408984:	87ba                	mv	a5,a4
ffffffff80408986:	078a                	slli	a5,a5,0x2
ffffffff80408988:	97ba                	add	a5,a5,a4
ffffffff8040898a:	078e                	slli	a5,a5,0x3
ffffffff8040898c:	97b2                	add	a5,a5,a2
ffffffff8040898e:	e394                	sd	a3,0(a5)
ffffffff80408990:	fef44783          	lbu	a5,-17(s0)
ffffffff80408994:	0007871b          	sext.w	a4,a5
ffffffff80408998:	00012697          	auipc	a3,0x12
ffffffff8040899c:	5b868693          	addi	a3,a3,1464 # ffffffff8041af50 <pin_instance>
ffffffff804089a0:	87ba                	mv	a5,a4
ffffffff804089a2:	078a                	slli	a5,a5,0x2
ffffffff804089a4:	97ba                	add	a5,a5,a4
ffffffff804089a6:	078e                	slli	a5,a5,0x3
ffffffff804089a8:	97b6                	add	a5,a5,a3
ffffffff804089aa:	fe043703          	ld	a4,-32(s0)
ffffffff804089ae:	ef98                	sd	a4,24(a5)
ffffffff804089b0:	fef44783          	lbu	a5,-17(s0)
ffffffff804089b4:	0007871b          	sext.w	a4,a5
ffffffff804089b8:	00012697          	auipc	a3,0x12
ffffffff804089bc:	59868693          	addi	a3,a3,1432 # ffffffff8041af50 <pin_instance>
ffffffff804089c0:	87ba                	mv	a5,a4
ffffffff804089c2:	078a                	slli	a5,a5,0x2
ffffffff804089c4:	97ba                	add	a5,a5,a4
ffffffff804089c6:	078e                	slli	a5,a5,0x3
ffffffff804089c8:	97b6                	add	a5,a5,a3
ffffffff804089ca:	fd843703          	ld	a4,-40(s0)
ffffffff804089ce:	f398                	sd	a4,32(a5)
ffffffff804089d0:	0001                	nop
ffffffff804089d2:	7422                	ld	s0,40(sp)
ffffffff804089d4:	6145                	addi	sp,sp,48
ffffffff804089d6:	8082                	ret

ffffffff804089d8 <gpiohs_irq_unregister>:
ffffffff804089d8:	1101                	addi	sp,sp,-32
ffffffff804089da:	ec06                	sd	ra,24(sp)
ffffffff804089dc:	e822                	sd	s0,16(sp)
ffffffff804089de:	1000                	addi	s0,sp,32
ffffffff804089e0:	87aa                	mv	a5,a0
ffffffff804089e2:	fef407a3          	sb	a5,-17(s0)
ffffffff804089e6:	fef44783          	lbu	a5,-17(s0)
ffffffff804089ea:	0007871b          	sext.w	a4,a5
ffffffff804089ee:	00012697          	auipc	a3,0x12
ffffffff804089f2:	56268693          	addi	a3,a3,1378 # ffffffff8041af50 <pin_instance>
ffffffff804089f6:	87ba                	mv	a5,a4
ffffffff804089f8:	078a                	slli	a5,a5,0x2
ffffffff804089fa:	97ba                	add	a5,a5,a4
ffffffff804089fc:	078e                	slli	a5,a5,0x3
ffffffff804089fe:	97b6                	add	a5,a5,a3
ffffffff80408a00:	0007b023          	sd	zero,0(a5)
ffffffff80408a04:	0007b423          	sd	zero,8(a5)
ffffffff80408a08:	0007b823          	sd	zero,16(a5)
ffffffff80408a0c:	0007bc23          	sd	zero,24(a5)
ffffffff80408a10:	0207b023          	sd	zero,32(a5)
ffffffff80408a14:	fff387b7          	lui	a5,0xfff38
ffffffff80408a18:	0785                	addi	a5,a5,1
ffffffff80408a1a:	07b2                	slli	a5,a5,0xc
ffffffff80408a1c:	07e1                	addi	a5,a5,24
ffffffff80408a1e:	fef44703          	lbu	a4,-17(s0)
ffffffff80408a22:	4601                	li	a2,0
ffffffff80408a24:	85ba                	mv	a1,a4
ffffffff80408a26:	853e                	mv	a0,a5
ffffffff80408a28:	289000ef          	jal	ra,ffffffff804094b0 <set_gpio_bit>
ffffffff80408a2c:	fff387b7          	lui	a5,0xfff38
ffffffff80408a30:	0785                	addi	a5,a5,1
ffffffff80408a32:	07b2                	slli	a5,a5,0xc
ffffffff80408a34:	02078793          	addi	a5,a5,32 # fffffffffff38020 <__BSS_END__+0x7fb108c0>
ffffffff80408a38:	fef44703          	lbu	a4,-17(s0)
ffffffff80408a3c:	4601                	li	a2,0
ffffffff80408a3e:	85ba                	mv	a1,a4
ffffffff80408a40:	853e                	mv	a0,a5
ffffffff80408a42:	26f000ef          	jal	ra,ffffffff804094b0 <set_gpio_bit>
ffffffff80408a46:	fff387b7          	lui	a5,0xfff38
ffffffff80408a4a:	0785                	addi	a5,a5,1
ffffffff80408a4c:	07b2                	slli	a5,a5,0xc
ffffffff80408a4e:	03078793          	addi	a5,a5,48 # fffffffffff38030 <__BSS_END__+0x7fb108d0>
ffffffff80408a52:	fef44703          	lbu	a4,-17(s0)
ffffffff80408a56:	4601                	li	a2,0
ffffffff80408a58:	85ba                	mv	a1,a4
ffffffff80408a5a:	853e                	mv	a0,a5
ffffffff80408a5c:	255000ef          	jal	ra,ffffffff804094b0 <set_gpio_bit>
ffffffff80408a60:	fff387b7          	lui	a5,0xfff38
ffffffff80408a64:	0785                	addi	a5,a5,1
ffffffff80408a66:	07b2                	slli	a5,a5,0xc
ffffffff80408a68:	02878793          	addi	a5,a5,40 # fffffffffff38028 <__BSS_END__+0x7fb108c8>
ffffffff80408a6c:	fef44703          	lbu	a4,-17(s0)
ffffffff80408a70:	4601                	li	a2,0
ffffffff80408a72:	85ba                	mv	a1,a4
ffffffff80408a74:	853e                	mv	a0,a5
ffffffff80408a76:	23b000ef          	jal	ra,ffffffff804094b0 <set_gpio_bit>
ffffffff80408a7a:	0001                	nop
ffffffff80408a7c:	60e2                	ld	ra,24(sp)
ffffffff80408a7e:	6442                	ld	s0,16(sp)
ffffffff80408a80:	6105                	addi	sp,sp,32
ffffffff80408a82:	8082                	ret

ffffffff80408a84 <gpiohs_irq_disable>:
ffffffff80408a84:	1101                	addi	sp,sp,-32
ffffffff80408a86:	ec22                	sd	s0,24(sp)
ffffffff80408a88:	1000                	addi	s0,sp,32
ffffffff80408a8a:	fea43423          	sd	a0,-24(s0)
ffffffff80408a8e:	0001                	nop
ffffffff80408a90:	6462                	ld	s0,24(sp)
ffffffff80408a92:	6105                	addi	sp,sp,32
ffffffff80408a94:	8082                	ret

ffffffff80408a96 <spi_init>:
ffffffff80408a96:	7139                	addi	sp,sp,-64
ffffffff80408a98:	fc22                	sd	s0,56(sp)
ffffffff80408a9a:	0080                	addi	s0,sp,64
ffffffff80408a9c:	87aa                	mv	a5,a0
ffffffff80408a9e:	fcd43423          	sd	a3,-56(s0)
ffffffff80408aa2:	fcf42e23          	sw	a5,-36(s0)
ffffffff80408aa6:	87ae                	mv	a5,a1
ffffffff80408aa8:	fcf42c23          	sw	a5,-40(s0)
ffffffff80408aac:	87b2                	mv	a5,a2
ffffffff80408aae:	fcf42a23          	sw	a5,-44(s0)
ffffffff80408ab2:	87ba                	mv	a5,a4
ffffffff80408ab4:	fcf42823          	sw	a5,-48(s0)
ffffffff80408ab8:	fe0407a3          	sb	zero,-17(s0)
ffffffff80408abc:	fe040723          	sb	zero,-18(s0)
ffffffff80408ac0:	fe0406a3          	sb	zero,-19(s0)
ffffffff80408ac4:	fdc42783          	lw	a5,-36(s0)
ffffffff80408ac8:	0007871b          	sext.w	a4,a5
ffffffff80408acc:	4785                	li	a5,1
ffffffff80408ace:	00e7fa63          	bgeu	a5,a4,ffffffff80408ae2 <spi_init+0x4c>
ffffffff80408ad2:	fdc42783          	lw	a5,-36(s0)
ffffffff80408ad6:	0007871b          	sext.w	a4,a5
ffffffff80408ada:	4789                	li	a5,2
ffffffff80408adc:	02f70663          	beq	a4,a5,ffffffff80408b08 <spi_init+0x72>
ffffffff80408ae0:	a819                	j	ffffffff80408af6 <spi_init+0x60>
ffffffff80408ae2:	47c1                	li	a5,16
ffffffff80408ae4:	fef407a3          	sb	a5,-17(s0)
ffffffff80408ae8:	47d5                	li	a5,21
ffffffff80408aea:	fef40723          	sb	a5,-18(s0)
ffffffff80408aee:	4799                	li	a5,6
ffffffff80408af0:	fef406a3          	sb	a5,-19(s0)
ffffffff80408af4:	a819                	j	ffffffff80408b0a <spi_init+0x74>
ffffffff80408af6:	fe0407a3          	sb	zero,-17(s0)
ffffffff80408afa:	47d9                	li	a5,22
ffffffff80408afc:	fef40723          	sb	a5,-18(s0)
ffffffff80408b00:	47a1                	li	a5,8
ffffffff80408b02:	fef406a3          	sb	a5,-19(s0)
ffffffff80408b06:	a011                	j	ffffffff80408b0a <spi_init+0x74>
ffffffff80408b08:	0001                	nop
ffffffff80408b0a:	fd442783          	lw	a5,-44(s0)
ffffffff80408b0e:	0007871b          	sext.w	a4,a5
ffffffff80408b12:	4789                	li	a5,2
ffffffff80408b14:	00f70363          	beq	a4,a5,ffffffff80408b1a <spi_init+0x84>
ffffffff80408b18:	a011                	j	ffffffff80408b1c <spi_init+0x86>
ffffffff80408b1a:	0001                	nop
ffffffff80408b1c:	00005717          	auipc	a4,0x5
ffffffff80408b20:	35470713          	addi	a4,a4,852 # ffffffff8040de70 <spi>
ffffffff80408b24:	fdc46783          	lwu	a5,-36(s0)
ffffffff80408b28:	078e                	slli	a5,a5,0x3
ffffffff80408b2a:	97ba                	add	a5,a5,a4
ffffffff80408b2c:	639c                	ld	a5,0(a5)
ffffffff80408b2e:	fef43023          	sd	a5,-32(s0)
ffffffff80408b32:	fe043783          	ld	a5,-32(s0)
ffffffff80408b36:	4bdc                	lw	a5,20(a5)
ffffffff80408b38:	2781                	sext.w	a5,a5
ffffffff80408b3a:	e789                	bnez	a5,ffffffff80408b44 <spi_init+0xae>
ffffffff80408b3c:	fe043783          	ld	a5,-32(s0)
ffffffff80408b40:	4751                	li	a4,20
ffffffff80408b42:	cbd8                	sw	a4,20(a5)
ffffffff80408b44:	fe043783          	ld	a5,-32(s0)
ffffffff80408b48:	0207a623          	sw	zero,44(a5)
ffffffff80408b4c:	fe043783          	ld	a5,-32(s0)
ffffffff80408b50:	0407a623          	sw	zero,76(a5)
ffffffff80408b54:	fe043783          	ld	a5,-32(s0)
ffffffff80408b58:	4741                	li	a4,16
ffffffff80408b5a:	cbb8                	sw	a4,80(a5)
ffffffff80408b5c:	fe043783          	ld	a5,-32(s0)
ffffffff80408b60:	0407aa23          	sw	zero,84(a5)
ffffffff80408b64:	fe043783          	ld	a5,-32(s0)
ffffffff80408b68:	0007a823          	sw	zero,16(a5)
ffffffff80408b6c:	fe043783          	ld	a5,-32(s0)
ffffffff80408b70:	0007a423          	sw	zero,8(a5)
ffffffff80408b74:	fed44783          	lbu	a5,-19(s0)
ffffffff80408b78:	2781                	sext.w	a5,a5
ffffffff80408b7a:	873e                	mv	a4,a5
ffffffff80408b7c:	fd842783          	lw	a5,-40(s0)
ffffffff80408b80:	00e797bb          	sllw	a5,a5,a4
ffffffff80408b84:	0007871b          	sext.w	a4,a5
ffffffff80408b88:	fee44783          	lbu	a5,-18(s0)
ffffffff80408b8c:	2781                	sext.w	a5,a5
ffffffff80408b8e:	86be                	mv	a3,a5
ffffffff80408b90:	fd442783          	lw	a5,-44(s0)
ffffffff80408b94:	00d797bb          	sllw	a5,a5,a3
ffffffff80408b98:	2781                	sext.w	a5,a5
ffffffff80408b9a:	8fd9                	or	a5,a5,a4
ffffffff80408b9c:	0007871b          	sext.w	a4,a5
ffffffff80408ba0:	fc843783          	ld	a5,-56(s0)
ffffffff80408ba4:	17fd                	addi	a5,a5,-1
ffffffff80408ba6:	fef44683          	lbu	a3,-17(s0)
ffffffff80408baa:	2681                	sext.w	a3,a3
ffffffff80408bac:	00d797b3          	sll	a5,a5,a3
ffffffff80408bb0:	2781                	sext.w	a5,a5
ffffffff80408bb2:	8fd9                	or	a5,a5,a4
ffffffff80408bb4:	0007871b          	sext.w	a4,a5
ffffffff80408bb8:	fe043783          	ld	a5,-32(s0)
ffffffff80408bbc:	c398                	sw	a4,0(a5)
ffffffff80408bbe:	fe043783          	ld	a5,-32(s0)
ffffffff80408bc2:	0e07aa23          	sw	zero,244(a5)
ffffffff80408bc6:	fe043783          	ld	a5,-32(s0)
ffffffff80408bca:	fd042703          	lw	a4,-48(s0)
ffffffff80408bce:	10e7ac23          	sw	a4,280(a5)
ffffffff80408bd2:	0001                	nop
ffffffff80408bd4:	7462                	ld	s0,56(sp)
ffffffff80408bd6:	6121                	addi	sp,sp,64
ffffffff80408bd8:	8082                	ret

ffffffff80408bda <spi_set_tmod>:
ffffffff80408bda:	7179                	addi	sp,sp,-48
ffffffff80408bdc:	f406                	sd	ra,40(sp)
ffffffff80408bde:	f022                	sd	s0,32(sp)
ffffffff80408be0:	1800                	addi	s0,sp,48
ffffffff80408be2:	87aa                	mv	a5,a0
ffffffff80408be4:	872e                	mv	a4,a1
ffffffff80408be6:	fcf40fa3          	sb	a5,-33(s0)
ffffffff80408bea:	87ba                	mv	a5,a4
ffffffff80408bec:	fcf42c23          	sw	a5,-40(s0)
ffffffff80408bf0:	fdf44783          	lbu	a5,-33(s0)
ffffffff80408bf4:	2781                	sext.w	a5,a5
ffffffff80408bf6:	00005717          	auipc	a4,0x5
ffffffff80408bfa:	27a70713          	addi	a4,a4,634 # ffffffff8040de70 <spi>
ffffffff80408bfe:	078e                	slli	a5,a5,0x3
ffffffff80408c00:	97ba                	add	a5,a5,a4
ffffffff80408c02:	639c                	ld	a5,0(a5)
ffffffff80408c04:	fef43023          	sd	a5,-32(s0)
ffffffff80408c08:	fe0407a3          	sb	zero,-17(s0)
ffffffff80408c0c:	fdf44783          	lbu	a5,-33(s0)
ffffffff80408c10:	2781                	sext.w	a5,a5
ffffffff80408c12:	2781                	sext.w	a5,a5
ffffffff80408c14:	873e                	mv	a4,a5
ffffffff80408c16:	4789                	li	a5,2
ffffffff80408c18:	00e7e663          	bltu	a5,a4,ffffffff80408c24 <spi_set_tmod+0x4a>
ffffffff80408c1c:	47a1                	li	a5,8
ffffffff80408c1e:	fef407a3          	sb	a5,-17(s0)
ffffffff80408c22:	a029                	j	ffffffff80408c2c <spi_set_tmod+0x52>
ffffffff80408c24:	47a9                	li	a5,10
ffffffff80408c26:	fef407a3          	sb	a5,-17(s0)
ffffffff80408c2a:	0001                	nop
ffffffff80408c2c:	fe043683          	ld	a3,-32(s0)
ffffffff80408c30:	fef44783          	lbu	a5,-17(s0)
ffffffff80408c34:	2781                	sext.w	a5,a5
ffffffff80408c36:	470d                	li	a4,3
ffffffff80408c38:	00f717bb          	sllw	a5,a4,a5
ffffffff80408c3c:	2781                	sext.w	a5,a5
ffffffff80408c3e:	0007871b          	sext.w	a4,a5
ffffffff80408c42:	fef44783          	lbu	a5,-17(s0)
ffffffff80408c46:	2781                	sext.w	a5,a5
ffffffff80408c48:	863e                	mv	a2,a5
ffffffff80408c4a:	fd842783          	lw	a5,-40(s0)
ffffffff80408c4e:	00c797bb          	sllw	a5,a5,a2
ffffffff80408c52:	2781                	sext.w	a5,a5
ffffffff80408c54:	863e                	mv	a2,a5
ffffffff80408c56:	85ba                	mv	a1,a4
ffffffff80408c58:	8536                	mv	a0,a3
ffffffff80408c5a:	7a4000ef          	jal	ra,ffffffff804093fe <set_bit>
ffffffff80408c5e:	0001                	nop
ffffffff80408c60:	70a2                	ld	ra,40(sp)
ffffffff80408c62:	7402                	ld	s0,32(sp)
ffffffff80408c64:	6145                	addi	sp,sp,48
ffffffff80408c66:	8082                	ret

ffffffff80408c68 <spi_get_frame_size>:
ffffffff80408c68:	1101                	addi	sp,sp,-32
ffffffff80408c6a:	ec22                	sd	s0,24(sp)
ffffffff80408c6c:	1000                	addi	s0,sp,32
ffffffff80408c6e:	fea43423          	sd	a0,-24(s0)
ffffffff80408c72:	fe843703          	ld	a4,-24(s0)
ffffffff80408c76:	479d                	li	a5,7
ffffffff80408c78:	00e7e463          	bltu	a5,a4,ffffffff80408c80 <spi_get_frame_size+0x18>
ffffffff80408c7c:	4785                	li	a5,1
ffffffff80408c7e:	a809                	j	ffffffff80408c90 <spi_get_frame_size+0x28>
ffffffff80408c80:	fe843703          	ld	a4,-24(s0)
ffffffff80408c84:	47bd                	li	a5,15
ffffffff80408c86:	00e7e463          	bltu	a5,a4,ffffffff80408c8e <spi_get_frame_size+0x26>
ffffffff80408c8a:	4789                	li	a5,2
ffffffff80408c8c:	a011                	j	ffffffff80408c90 <spi_get_frame_size+0x28>
ffffffff80408c8e:	4791                	li	a5,4
ffffffff80408c90:	853e                	mv	a0,a5
ffffffff80408c92:	6462                	ld	s0,24(sp)
ffffffff80408c94:	6105                	addi	sp,sp,32
ffffffff80408c96:	8082                	ret

ffffffff80408c98 <spi_send_data_normal>:
ffffffff80408c98:	711d                	addi	sp,sp,-96
ffffffff80408c9a:	ec86                	sd	ra,88(sp)
ffffffff80408c9c:	e8a2                	sd	s0,80(sp)
ffffffff80408c9e:	1080                	addi	s0,sp,96
ffffffff80408ca0:	87aa                	mv	a5,a0
ffffffff80408ca2:	872e                	mv	a4,a1
ffffffff80408ca4:	fac43823          	sd	a2,-80(s0)
ffffffff80408ca8:	fad43423          	sd	a3,-88(s0)
ffffffff80408cac:	faf42e23          	sw	a5,-68(s0)
ffffffff80408cb0:	87ba                	mv	a5,a4
ffffffff80408cb2:	faf42c23          	sw	a5,-72(s0)
ffffffff80408cb6:	fbc42783          	lw	a5,-68(s0)
ffffffff80408cba:	0ff7f793          	andi	a5,a5,255
ffffffff80408cbe:	4585                	li	a1,1
ffffffff80408cc0:	853e                	mv	a0,a5
ffffffff80408cc2:	f19ff0ef          	jal	ra,ffffffff80408bda <spi_set_tmod>
ffffffff80408cc6:	00005717          	auipc	a4,0x5
ffffffff80408cca:	1aa70713          	addi	a4,a4,426 # ffffffff8040de70 <spi>
ffffffff80408cce:	fbc46783          	lwu	a5,-68(s0)
ffffffff80408cd2:	078e                	slli	a5,a5,0x3
ffffffff80408cd4:	97ba                	add	a5,a5,a4
ffffffff80408cd6:	639c                	ld	a5,0(a5)
ffffffff80408cd8:	fcf43823          	sd	a5,-48(s0)
ffffffff80408cdc:	fc040fa3          	sb	zero,-33(s0)
ffffffff80408ce0:	fbc42783          	lw	a5,-68(s0)
ffffffff80408ce4:	0007871b          	sext.w	a4,a5
ffffffff80408ce8:	4785                	li	a5,1
ffffffff80408cea:	00e7fa63          	bgeu	a5,a4,ffffffff80408cfe <spi_send_data_normal+0x66>
ffffffff80408cee:	fbc42783          	lw	a5,-68(s0)
ffffffff80408cf2:	0007871b          	sext.w	a4,a5
ffffffff80408cf6:	4789                	li	a5,2
ffffffff80408cf8:	00f70a63          	beq	a4,a5,ffffffff80408d0c <spi_send_data_normal+0x74>
ffffffff80408cfc:	a029                	j	ffffffff80408d06 <spi_send_data_normal+0x6e>
ffffffff80408cfe:	47c1                	li	a5,16
ffffffff80408d00:	fcf40fa3          	sb	a5,-33(s0)
ffffffff80408d04:	a029                	j	ffffffff80408d0e <spi_send_data_normal+0x76>
ffffffff80408d06:	fc040fa3          	sb	zero,-33(s0)
ffffffff80408d0a:	a011                	j	ffffffff80408d0e <spi_send_data_normal+0x76>
ffffffff80408d0c:	0001                	nop
ffffffff80408d0e:	fd043783          	ld	a5,-48(s0)
ffffffff80408d12:	439c                	lw	a5,0(a5)
ffffffff80408d14:	2781                	sext.w	a5,a5
ffffffff80408d16:	fdf44703          	lbu	a4,-33(s0)
ffffffff80408d1a:	2701                	sext.w	a4,a4
ffffffff80408d1c:	00e7d7bb          	srlw	a5,a5,a4
ffffffff80408d20:	2781                	sext.w	a5,a5
ffffffff80408d22:	8bfd                	andi	a5,a5,31
ffffffff80408d24:	fcf42623          	sw	a5,-52(s0)
ffffffff80408d28:	fcc46783          	lwu	a5,-52(s0)
ffffffff80408d2c:	853e                	mv	a0,a5
ffffffff80408d2e:	f3bff0ef          	jal	ra,ffffffff80408c68 <spi_get_frame_size>
ffffffff80408d32:	87aa                	mv	a5,a0
ffffffff80408d34:	fcf42423          	sw	a5,-56(s0)
ffffffff80408d38:	fc040f23          	sb	zero,-34(s0)
ffffffff80408d3c:	fb043703          	ld	a4,-80(s0)
ffffffff80408d40:	fc846783          	lwu	a5,-56(s0)
ffffffff80408d44:	02f777b3          	remu	a5,a4,a5
ffffffff80408d48:	c781                	beqz	a5,ffffffff80408d50 <spi_send_data_normal+0xb8>
ffffffff80408d4a:	4785                	li	a5,1
ffffffff80408d4c:	fcf40f23          	sb	a5,-34(s0)
ffffffff80408d50:	fd043783          	ld	a5,-48(s0)
ffffffff80408d54:	4705                	li	a4,1
ffffffff80408d56:	c798                	sw	a4,8(a5)
ffffffff80408d58:	fb842783          	lw	a5,-72(s0)
ffffffff80408d5c:	4705                	li	a4,1
ffffffff80408d5e:	00f717bb          	sllw	a5,a4,a5
ffffffff80408d62:	0007871b          	sext.w	a4,a5
ffffffff80408d66:	fd043783          	ld	a5,-48(s0)
ffffffff80408d6a:	cb98                	sw	a4,16(a5)
ffffffff80408d6c:	fc042c23          	sw	zero,-40(s0)
ffffffff80408d70:	aaf9                	j	ffffffff80408f4e <spi_send_data_normal+0x2b6>
ffffffff80408d72:	fd043783          	ld	a5,-48(s0)
ffffffff80408d76:	539c                	lw	a5,32(a5)
ffffffff80408d78:	2781                	sext.w	a5,a5
ffffffff80408d7a:	02000713          	li	a4,32
ffffffff80408d7e:	40f707bb          	subw	a5,a4,a5
ffffffff80408d82:	2781                	sext.w	a5,a5
ffffffff80408d84:	1782                	slli	a5,a5,0x20
ffffffff80408d86:	9381                	srli	a5,a5,0x20
ffffffff80408d88:	fef43023          	sd	a5,-32(s0)
ffffffff80408d8c:	fe043703          	ld	a4,-32(s0)
ffffffff80408d90:	fa843783          	ld	a5,-88(s0)
ffffffff80408d94:	00f77363          	bgeu	a4,a5,ffffffff80408d9a <spi_send_data_normal+0x102>
ffffffff80408d98:	87ba                	mv	a5,a4
ffffffff80408d9a:	fef43023          	sd	a5,-32(s0)
ffffffff80408d9e:	fc842783          	lw	a5,-56(s0)
ffffffff80408da2:	0007871b          	sext.w	a4,a5
ffffffff80408da6:	4789                	li	a5,2
ffffffff80408da8:	0af70863          	beq	a4,a5,ffffffff80408e58 <spi_send_data_normal+0x1c0>
ffffffff80408dac:	fc842783          	lw	a5,-56(s0)
ffffffff80408db0:	0007871b          	sext.w	a4,a5
ffffffff80408db4:	4791                	li	a5,4
ffffffff80408db6:	14f71363          	bne	a4,a5,ffffffff80408efc <spi_send_data_normal+0x264>
ffffffff80408dba:	fe043783          	ld	a5,-32(s0)
ffffffff80408dbe:	9bf1                	andi	a5,a5,-4
ffffffff80408dc0:	fef43023          	sd	a5,-32(s0)
ffffffff80408dc4:	fde44783          	lbu	a5,-34(s0)
ffffffff80408dc8:	0ff7f793          	andi	a5,a5,255
ffffffff80408dcc:	c7b1                	beqz	a5,ffffffff80408e18 <spi_send_data_normal+0x180>
ffffffff80408dce:	fe043423          	sd	zero,-24(s0)
ffffffff80408dd2:	a825                	j	ffffffff80408e0a <spi_send_data_normal+0x172>
ffffffff80408dd4:	fd846783          	lwu	a5,-40(s0)
ffffffff80408dd8:	fb043703          	ld	a4,-80(s0)
ffffffff80408ddc:	973e                	add	a4,a4,a5
ffffffff80408dde:	fc440793          	addi	a5,s0,-60
ffffffff80408de2:	4611                	li	a2,4
ffffffff80408de4:	85ba                	mv	a1,a4
ffffffff80408de6:	853e                	mv	a0,a5
ffffffff80408de8:	e65fc0ef          	jal	ra,ffffffff80405c4c <memmove>
ffffffff80408dec:	fc442703          	lw	a4,-60(s0)
ffffffff80408df0:	fd043783          	ld	a5,-48(s0)
ffffffff80408df4:	d3b8                	sw	a4,96(a5)
ffffffff80408df6:	fd842783          	lw	a5,-40(s0)
ffffffff80408dfa:	2791                	addiw	a5,a5,4
ffffffff80408dfc:	fcf42c23          	sw	a5,-40(s0)
ffffffff80408e00:	fe843783          	ld	a5,-24(s0)
ffffffff80408e04:	0791                	addi	a5,a5,4
ffffffff80408e06:	fef43423          	sd	a5,-24(s0)
ffffffff80408e0a:	fe843703          	ld	a4,-24(s0)
ffffffff80408e0e:	fe043783          	ld	a5,-32(s0)
ffffffff80408e12:	fcf761e3          	bltu	a4,a5,ffffffff80408dd4 <spi_send_data_normal+0x13c>
ffffffff80408e16:	a225                	j	ffffffff80408f3e <spi_send_data_normal+0x2a6>
ffffffff80408e18:	fe043423          	sd	zero,-24(s0)
ffffffff80408e1c:	a035                	j	ffffffff80408e48 <spi_send_data_normal+0x1b0>
ffffffff80408e1e:	fd842783          	lw	a5,-40(s0)
ffffffff80408e22:	0017871b          	addiw	a4,a5,1
ffffffff80408e26:	fce42c23          	sw	a4,-40(s0)
ffffffff80408e2a:	1782                	slli	a5,a5,0x20
ffffffff80408e2c:	9381                	srli	a5,a5,0x20
ffffffff80408e2e:	078a                	slli	a5,a5,0x2
ffffffff80408e30:	fb043703          	ld	a4,-80(s0)
ffffffff80408e34:	97ba                	add	a5,a5,a4
ffffffff80408e36:	4398                	lw	a4,0(a5)
ffffffff80408e38:	fd043783          	ld	a5,-48(s0)
ffffffff80408e3c:	d3b8                	sw	a4,96(a5)
ffffffff80408e3e:	fe843783          	ld	a5,-24(s0)
ffffffff80408e42:	0785                	addi	a5,a5,1
ffffffff80408e44:	fef43423          	sd	a5,-24(s0)
ffffffff80408e48:	fe043783          	ld	a5,-32(s0)
ffffffff80408e4c:	8389                	srli	a5,a5,0x2
ffffffff80408e4e:	fe843703          	ld	a4,-24(s0)
ffffffff80408e52:	fcf766e3          	bltu	a4,a5,ffffffff80408e1e <spi_send_data_normal+0x186>
ffffffff80408e56:	a0e5                	j	ffffffff80408f3e <spi_send_data_normal+0x2a6>
ffffffff80408e58:	fe043783          	ld	a5,-32(s0)
ffffffff80408e5c:	9bf9                	andi	a5,a5,-2
ffffffff80408e5e:	fef43023          	sd	a5,-32(s0)
ffffffff80408e62:	fde44783          	lbu	a5,-34(s0)
ffffffff80408e66:	0ff7f793          	andi	a5,a5,255
ffffffff80408e6a:	c7b1                	beqz	a5,ffffffff80408eb6 <spi_send_data_normal+0x21e>
ffffffff80408e6c:	fe043423          	sd	zero,-24(s0)
ffffffff80408e70:	a825                	j	ffffffff80408ea8 <spi_send_data_normal+0x210>
ffffffff80408e72:	fd846783          	lwu	a5,-40(s0)
ffffffff80408e76:	fb043703          	ld	a4,-80(s0)
ffffffff80408e7a:	973e                	add	a4,a4,a5
ffffffff80408e7c:	fc440793          	addi	a5,s0,-60
ffffffff80408e80:	4609                	li	a2,2
ffffffff80408e82:	85ba                	mv	a1,a4
ffffffff80408e84:	853e                	mv	a0,a5
ffffffff80408e86:	dc7fc0ef          	jal	ra,ffffffff80405c4c <memmove>
ffffffff80408e8a:	fc442703          	lw	a4,-60(s0)
ffffffff80408e8e:	fd043783          	ld	a5,-48(s0)
ffffffff80408e92:	d3b8                	sw	a4,96(a5)
ffffffff80408e94:	fd842783          	lw	a5,-40(s0)
ffffffff80408e98:	2789                	addiw	a5,a5,2
ffffffff80408e9a:	fcf42c23          	sw	a5,-40(s0)
ffffffff80408e9e:	fe843783          	ld	a5,-24(s0)
ffffffff80408ea2:	0789                	addi	a5,a5,2
ffffffff80408ea4:	fef43423          	sd	a5,-24(s0)
ffffffff80408ea8:	fe843703          	ld	a4,-24(s0)
ffffffff80408eac:	fe043783          	ld	a5,-32(s0)
ffffffff80408eb0:	fcf761e3          	bltu	a4,a5,ffffffff80408e72 <spi_send_data_normal+0x1da>
ffffffff80408eb4:	a069                	j	ffffffff80408f3e <spi_send_data_normal+0x2a6>
ffffffff80408eb6:	fe043423          	sd	zero,-24(s0)
ffffffff80408eba:	a80d                	j	ffffffff80408eec <spi_send_data_normal+0x254>
ffffffff80408ebc:	fd842783          	lw	a5,-40(s0)
ffffffff80408ec0:	0017871b          	addiw	a4,a5,1
ffffffff80408ec4:	fce42c23          	sw	a4,-40(s0)
ffffffff80408ec8:	1782                	slli	a5,a5,0x20
ffffffff80408eca:	9381                	srli	a5,a5,0x20
ffffffff80408ecc:	0786                	slli	a5,a5,0x1
ffffffff80408ece:	fb043703          	ld	a4,-80(s0)
ffffffff80408ed2:	97ba                	add	a5,a5,a4
ffffffff80408ed4:	0007d783          	lhu	a5,0(a5)
ffffffff80408ed8:	0007871b          	sext.w	a4,a5
ffffffff80408edc:	fd043783          	ld	a5,-48(s0)
ffffffff80408ee0:	d3b8                	sw	a4,96(a5)
ffffffff80408ee2:	fe843783          	ld	a5,-24(s0)
ffffffff80408ee6:	0785                	addi	a5,a5,1
ffffffff80408ee8:	fef43423          	sd	a5,-24(s0)
ffffffff80408eec:	fe043783          	ld	a5,-32(s0)
ffffffff80408ef0:	8385                	srli	a5,a5,0x1
ffffffff80408ef2:	fe843703          	ld	a4,-24(s0)
ffffffff80408ef6:	fcf763e3          	bltu	a4,a5,ffffffff80408ebc <spi_send_data_normal+0x224>
ffffffff80408efa:	a091                	j	ffffffff80408f3e <spi_send_data_normal+0x2a6>
ffffffff80408efc:	fe043423          	sd	zero,-24(s0)
ffffffff80408f00:	a805                	j	ffffffff80408f30 <spi_send_data_normal+0x298>
ffffffff80408f02:	fd842783          	lw	a5,-40(s0)
ffffffff80408f06:	0017871b          	addiw	a4,a5,1
ffffffff80408f0a:	fce42c23          	sw	a4,-40(s0)
ffffffff80408f0e:	1782                	slli	a5,a5,0x20
ffffffff80408f10:	9381                	srli	a5,a5,0x20
ffffffff80408f12:	fb043703          	ld	a4,-80(s0)
ffffffff80408f16:	97ba                	add	a5,a5,a4
ffffffff80408f18:	0007c783          	lbu	a5,0(a5)
ffffffff80408f1c:	0007871b          	sext.w	a4,a5
ffffffff80408f20:	fd043783          	ld	a5,-48(s0)
ffffffff80408f24:	d3b8                	sw	a4,96(a5)
ffffffff80408f26:	fe843783          	ld	a5,-24(s0)
ffffffff80408f2a:	0785                	addi	a5,a5,1
ffffffff80408f2c:	fef43423          	sd	a5,-24(s0)
ffffffff80408f30:	fe843703          	ld	a4,-24(s0)
ffffffff80408f34:	fe043783          	ld	a5,-32(s0)
ffffffff80408f38:	fcf765e3          	bltu	a4,a5,ffffffff80408f02 <spi_send_data_normal+0x26a>
ffffffff80408f3c:	0001                	nop
ffffffff80408f3e:	fa843703          	ld	a4,-88(s0)
ffffffff80408f42:	fe043783          	ld	a5,-32(s0)
ffffffff80408f46:	40f707b3          	sub	a5,a4,a5
ffffffff80408f4a:	faf43423          	sd	a5,-88(s0)
ffffffff80408f4e:	fa843783          	ld	a5,-88(s0)
ffffffff80408f52:	e20790e3          	bnez	a5,ffffffff80408d72 <spi_send_data_normal+0xda>
ffffffff80408f56:	0001                	nop
ffffffff80408f58:	fd043783          	ld	a5,-48(s0)
ffffffff80408f5c:	579c                	lw	a5,40(a5)
ffffffff80408f5e:	2781                	sext.w	a5,a5
ffffffff80408f60:	8b95                	andi	a5,a5,5
ffffffff80408f62:	2781                	sext.w	a5,a5
ffffffff80408f64:	873e                	mv	a4,a5
ffffffff80408f66:	4791                	li	a5,4
ffffffff80408f68:	fef718e3          	bne	a4,a5,ffffffff80408f58 <spi_send_data_normal+0x2c0>
ffffffff80408f6c:	fd043783          	ld	a5,-48(s0)
ffffffff80408f70:	0007a823          	sw	zero,16(a5)
ffffffff80408f74:	fd043783          	ld	a5,-48(s0)
ffffffff80408f78:	0007a423          	sw	zero,8(a5)
ffffffff80408f7c:	0001                	nop
ffffffff80408f7e:	60e6                	ld	ra,88(sp)
ffffffff80408f80:	6446                	ld	s0,80(sp)
ffffffff80408f82:	6125                	addi	sp,sp,96
ffffffff80408f84:	8082                	ret

ffffffff80408f86 <spi_send_data_standard>:
ffffffff80408f86:	715d                	addi	sp,sp,-80
ffffffff80408f88:	e486                	sd	ra,72(sp)
ffffffff80408f8a:	e0a2                	sd	s0,64(sp)
ffffffff80408f8c:	0880                	addi	s0,sp,80
ffffffff80408f8e:	fcc43823          	sd	a2,-48(s0)
ffffffff80408f92:	fcd43423          	sd	a3,-56(s0)
ffffffff80408f96:	fce43023          	sd	a4,-64(s0)
ffffffff80408f9a:	faf43c23          	sd	a5,-72(s0)
ffffffff80408f9e:	87aa                	mv	a5,a0
ffffffff80408fa0:	fcf42e23          	sw	a5,-36(s0)
ffffffff80408fa4:	87ae                	mv	a5,a1
ffffffff80408fa6:	fcf42c23          	sw	a5,-40(s0)
ffffffff80408faa:	fd6fc0ef          	jal	ra,ffffffff80405780 <kalloc>
ffffffff80408fae:	87aa                	mv	a5,a0
ffffffff80408fb0:	fef43023          	sd	a5,-32(s0)
ffffffff80408fb4:	fe043423          	sd	zero,-24(s0)
ffffffff80408fb8:	a025                	j	ffffffff80408fe0 <spi_send_data_standard+0x5a>
ffffffff80408fba:	fd043703          	ld	a4,-48(s0)
ffffffff80408fbe:	fe843783          	ld	a5,-24(s0)
ffffffff80408fc2:	973e                	add	a4,a4,a5
ffffffff80408fc4:	fe043683          	ld	a3,-32(s0)
ffffffff80408fc8:	fe843783          	ld	a5,-24(s0)
ffffffff80408fcc:	97b6                	add	a5,a5,a3
ffffffff80408fce:	00074703          	lbu	a4,0(a4)
ffffffff80408fd2:	00e78023          	sb	a4,0(a5)
ffffffff80408fd6:	fe843783          	ld	a5,-24(s0)
ffffffff80408fda:	0785                	addi	a5,a5,1
ffffffff80408fdc:	fef43423          	sd	a5,-24(s0)
ffffffff80408fe0:	fe843703          	ld	a4,-24(s0)
ffffffff80408fe4:	fc843783          	ld	a5,-56(s0)
ffffffff80408fe8:	fcf769e3          	bltu	a4,a5,ffffffff80408fba <spi_send_data_standard+0x34>
ffffffff80408fec:	fe043423          	sd	zero,-24(s0)
ffffffff80408ff0:	a03d                	j	ffffffff8040901e <spi_send_data_standard+0x98>
ffffffff80408ff2:	fc043703          	ld	a4,-64(s0)
ffffffff80408ff6:	fe843783          	ld	a5,-24(s0)
ffffffff80408ffa:	973e                	add	a4,a4,a5
ffffffff80408ffc:	fc843683          	ld	a3,-56(s0)
ffffffff80409000:	fe843783          	ld	a5,-24(s0)
ffffffff80409004:	97b6                	add	a5,a5,a3
ffffffff80409006:	fe043683          	ld	a3,-32(s0)
ffffffff8040900a:	97b6                	add	a5,a5,a3
ffffffff8040900c:	00074703          	lbu	a4,0(a4)
ffffffff80409010:	00e78023          	sb	a4,0(a5)
ffffffff80409014:	fe843783          	ld	a5,-24(s0)
ffffffff80409018:	0785                	addi	a5,a5,1
ffffffff8040901a:	fef43423          	sd	a5,-24(s0)
ffffffff8040901e:	fe843703          	ld	a4,-24(s0)
ffffffff80409022:	fb843783          	ld	a5,-72(s0)
ffffffff80409026:	fcf766e3          	bltu	a4,a5,ffffffff80408ff2 <spi_send_data_standard+0x6c>
ffffffff8040902a:	fc843703          	ld	a4,-56(s0)
ffffffff8040902e:	fb843783          	ld	a5,-72(s0)
ffffffff80409032:	00f706b3          	add	a3,a4,a5
ffffffff80409036:	fd842703          	lw	a4,-40(s0)
ffffffff8040903a:	fdc42783          	lw	a5,-36(s0)
ffffffff8040903e:	fe043603          	ld	a2,-32(s0)
ffffffff80409042:	85ba                	mv	a1,a4
ffffffff80409044:	853e                	mv	a0,a5
ffffffff80409046:	c53ff0ef          	jal	ra,ffffffff80408c98 <spi_send_data_normal>
ffffffff8040904a:	fe043503          	ld	a0,-32(s0)
ffffffff8040904e:	f4afc0ef          	jal	ra,ffffffff80405798 <kfree>
ffffffff80409052:	0001                	nop
ffffffff80409054:	60a6                	ld	ra,72(sp)
ffffffff80409056:	6406                	ld	s0,64(sp)
ffffffff80409058:	6161                	addi	sp,sp,80
ffffffff8040905a:	8082                	ret

ffffffff8040905c <spi_receive_data_standard>:
ffffffff8040905c:	7119                	addi	sp,sp,-128
ffffffff8040905e:	fc86                	sd	ra,120(sp)
ffffffff80409060:	f8a2                	sd	s0,112(sp)
ffffffff80409062:	0100                	addi	s0,sp,128
ffffffff80409064:	fac43023          	sd	a2,-96(s0)
ffffffff80409068:	f8d43c23          	sd	a3,-104(s0)
ffffffff8040906c:	f8e43823          	sd	a4,-112(s0)
ffffffff80409070:	f8f43423          	sd	a5,-120(s0)
ffffffff80409074:	87aa                	mv	a5,a0
ffffffff80409076:	faf42623          	sw	a5,-84(s0)
ffffffff8040907a:	87ae                	mv	a5,a1
ffffffff8040907c:	faf42423          	sw	a5,-88(s0)
ffffffff80409080:	f9843783          	ld	a5,-104(s0)
ffffffff80409084:	eb91                	bnez	a5,ffffffff80409098 <spi_receive_data_standard+0x3c>
ffffffff80409086:	fac42783          	lw	a5,-84(s0)
ffffffff8040908a:	0ff7f793          	andi	a5,a5,255
ffffffff8040908e:	4589                	li	a1,2
ffffffff80409090:	853e                	mv	a0,a5
ffffffff80409092:	b49ff0ef          	jal	ra,ffffffff80408bda <spi_set_tmod>
ffffffff80409096:	a809                	j	ffffffff804090a8 <spi_receive_data_standard+0x4c>
ffffffff80409098:	fac42783          	lw	a5,-84(s0)
ffffffff8040909c:	0ff7f793          	andi	a5,a5,255
ffffffff804090a0:	458d                	li	a1,3
ffffffff804090a2:	853e                	mv	a0,a5
ffffffff804090a4:	b37ff0ef          	jal	ra,ffffffff80408bda <spi_set_tmod>
ffffffff804090a8:	00005717          	auipc	a4,0x5
ffffffff804090ac:	dc870713          	addi	a4,a4,-568 # ffffffff8040de70 <spi>
ffffffff804090b0:	fac46783          	lwu	a5,-84(s0)
ffffffff804090b4:	078e                	slli	a5,a5,0x3
ffffffff804090b6:	97ba                	add	a5,a5,a4
ffffffff804090b8:	639c                	ld	a5,0(a5)
ffffffff804090ba:	fcf43423          	sd	a5,-56(s0)
ffffffff804090be:	fe0403a3          	sb	zero,-25(s0)
ffffffff804090c2:	fac42783          	lw	a5,-84(s0)
ffffffff804090c6:	0007871b          	sext.w	a4,a5
ffffffff804090ca:	4785                	li	a5,1
ffffffff804090cc:	00e7fa63          	bgeu	a5,a4,ffffffff804090e0 <spi_receive_data_standard+0x84>
ffffffff804090d0:	fac42783          	lw	a5,-84(s0)
ffffffff804090d4:	0007871b          	sext.w	a4,a5
ffffffff804090d8:	4789                	li	a5,2
ffffffff804090da:	00f70a63          	beq	a4,a5,ffffffff804090ee <spi_receive_data_standard+0x92>
ffffffff804090de:	a029                	j	ffffffff804090e8 <spi_receive_data_standard+0x8c>
ffffffff804090e0:	47c1                	li	a5,16
ffffffff804090e2:	fef403a3          	sb	a5,-25(s0)
ffffffff804090e6:	a029                	j	ffffffff804090f0 <spi_receive_data_standard+0x94>
ffffffff804090e8:	fe0403a3          	sb	zero,-25(s0)
ffffffff804090ec:	a011                	j	ffffffff804090f0 <spi_receive_data_standard+0x94>
ffffffff804090ee:	0001                	nop
ffffffff804090f0:	fc843783          	ld	a5,-56(s0)
ffffffff804090f4:	439c                	lw	a5,0(a5)
ffffffff804090f6:	2781                	sext.w	a5,a5
ffffffff804090f8:	fe744703          	lbu	a4,-25(s0)
ffffffff804090fc:	2701                	sext.w	a4,a4
ffffffff804090fe:	00e7d7bb          	srlw	a5,a5,a4
ffffffff80409102:	2781                	sext.w	a5,a5
ffffffff80409104:	8bfd                	andi	a5,a5,31
ffffffff80409106:	fcf42223          	sw	a5,-60(s0)
ffffffff8040910a:	fc446783          	lwu	a5,-60(s0)
ffffffff8040910e:	853e                	mv	a0,a5
ffffffff80409110:	b59ff0ef          	jal	ra,ffffffff80408c68 <spi_get_frame_size>
ffffffff80409114:	87aa                	mv	a5,a0
ffffffff80409116:	fcf42023          	sw	a5,-64(s0)
ffffffff8040911a:	fe042023          	sw	zero,-32(s0)
ffffffff8040911e:	fc046783          	lwu	a5,-64(s0)
ffffffff80409122:	f9843703          	ld	a4,-104(s0)
ffffffff80409126:	02f757b3          	divu	a5,a4,a5
ffffffff8040912a:	fcf43c23          	sd	a5,-40(s0)
ffffffff8040912e:	fc046783          	lwu	a5,-64(s0)
ffffffff80409132:	f8843703          	ld	a4,-120(s0)
ffffffff80409136:	02f757b3          	divu	a5,a4,a5
ffffffff8040913a:	fcf42a23          	sw	a5,-44(s0)
ffffffff8040913e:	fd442783          	lw	a5,-44(s0)
ffffffff80409142:	37fd                	addiw	a5,a5,-1
ffffffff80409144:	0007871b          	sext.w	a4,a5
ffffffff80409148:	fc843783          	ld	a5,-56(s0)
ffffffff8040914c:	c3d8                	sw	a4,4(a5)
ffffffff8040914e:	fc843783          	ld	a5,-56(s0)
ffffffff80409152:	4705                	li	a4,1
ffffffff80409154:	c798                	sw	a4,8(a5)
ffffffff80409156:	aa0d                	j	ffffffff80409288 <spi_receive_data_standard+0x22c>
ffffffff80409158:	fc843783          	ld	a5,-56(s0)
ffffffff8040915c:	539c                	lw	a5,32(a5)
ffffffff8040915e:	2781                	sext.w	a5,a5
ffffffff80409160:	02000713          	li	a4,32
ffffffff80409164:	40f707bb          	subw	a5,a4,a5
ffffffff80409168:	2781                	sext.w	a5,a5
ffffffff8040916a:	1782                	slli	a5,a5,0x20
ffffffff8040916c:	9381                	srli	a5,a5,0x20
ffffffff8040916e:	faf43c23          	sd	a5,-72(s0)
ffffffff80409172:	fb843703          	ld	a4,-72(s0)
ffffffff80409176:	fd843783          	ld	a5,-40(s0)
ffffffff8040917a:	00f77363          	bgeu	a4,a5,ffffffff80409180 <spi_receive_data_standard+0x124>
ffffffff8040917e:	87ba                	mv	a5,a4
ffffffff80409180:	faf43c23          	sd	a5,-72(s0)
ffffffff80409184:	fc042783          	lw	a5,-64(s0)
ffffffff80409188:	0007871b          	sext.w	a4,a5
ffffffff8040918c:	4789                	li	a5,2
ffffffff8040918e:	04f70863          	beq	a4,a5,ffffffff804091de <spi_receive_data_standard+0x182>
ffffffff80409192:	fc042783          	lw	a5,-64(s0)
ffffffff80409196:	0007871b          	sext.w	a4,a5
ffffffff8040919a:	4791                	li	a5,4
ffffffff8040919c:	08f71363          	bne	a4,a5,ffffffff80409222 <spi_receive_data_standard+0x1c6>
ffffffff804091a0:	fe043423          	sd	zero,-24(s0)
ffffffff804091a4:	a035                	j	ffffffff804091d0 <spi_receive_data_standard+0x174>
ffffffff804091a6:	fe042783          	lw	a5,-32(s0)
ffffffff804091aa:	0017871b          	addiw	a4,a5,1
ffffffff804091ae:	fee42023          	sw	a4,-32(s0)
ffffffff804091b2:	1782                	slli	a5,a5,0x20
ffffffff804091b4:	9381                	srli	a5,a5,0x20
ffffffff804091b6:	078a                	slli	a5,a5,0x2
ffffffff804091b8:	fa043703          	ld	a4,-96(s0)
ffffffff804091bc:	97ba                	add	a5,a5,a4
ffffffff804091be:	4398                	lw	a4,0(a5)
ffffffff804091c0:	fc843783          	ld	a5,-56(s0)
ffffffff804091c4:	d3b8                	sw	a4,96(a5)
ffffffff804091c6:	fe843783          	ld	a5,-24(s0)
ffffffff804091ca:	0785                	addi	a5,a5,1
ffffffff804091cc:	fef43423          	sd	a5,-24(s0)
ffffffff804091d0:	fe843703          	ld	a4,-24(s0)
ffffffff804091d4:	fb843783          	ld	a5,-72(s0)
ffffffff804091d8:	fcf767e3          	bltu	a4,a5,ffffffff804091a6 <spi_receive_data_standard+0x14a>
ffffffff804091dc:	a061                	j	ffffffff80409264 <spi_receive_data_standard+0x208>
ffffffff804091de:	fe043423          	sd	zero,-24(s0)
ffffffff804091e2:	a80d                	j	ffffffff80409214 <spi_receive_data_standard+0x1b8>
ffffffff804091e4:	fe042783          	lw	a5,-32(s0)
ffffffff804091e8:	0017871b          	addiw	a4,a5,1
ffffffff804091ec:	fee42023          	sw	a4,-32(s0)
ffffffff804091f0:	1782                	slli	a5,a5,0x20
ffffffff804091f2:	9381                	srli	a5,a5,0x20
ffffffff804091f4:	0786                	slli	a5,a5,0x1
ffffffff804091f6:	fa043703          	ld	a4,-96(s0)
ffffffff804091fa:	97ba                	add	a5,a5,a4
ffffffff804091fc:	0007d783          	lhu	a5,0(a5)
ffffffff80409200:	0007871b          	sext.w	a4,a5
ffffffff80409204:	fc843783          	ld	a5,-56(s0)
ffffffff80409208:	d3b8                	sw	a4,96(a5)
ffffffff8040920a:	fe843783          	ld	a5,-24(s0)
ffffffff8040920e:	0785                	addi	a5,a5,1
ffffffff80409210:	fef43423          	sd	a5,-24(s0)
ffffffff80409214:	fe843703          	ld	a4,-24(s0)
ffffffff80409218:	fb843783          	ld	a5,-72(s0)
ffffffff8040921c:	fcf764e3          	bltu	a4,a5,ffffffff804091e4 <spi_receive_data_standard+0x188>
ffffffff80409220:	a091                	j	ffffffff80409264 <spi_receive_data_standard+0x208>
ffffffff80409222:	fe043423          	sd	zero,-24(s0)
ffffffff80409226:	a805                	j	ffffffff80409256 <spi_receive_data_standard+0x1fa>
ffffffff80409228:	fe042783          	lw	a5,-32(s0)
ffffffff8040922c:	0017871b          	addiw	a4,a5,1
ffffffff80409230:	fee42023          	sw	a4,-32(s0)
ffffffff80409234:	1782                	slli	a5,a5,0x20
ffffffff80409236:	9381                	srli	a5,a5,0x20
ffffffff80409238:	fa043703          	ld	a4,-96(s0)
ffffffff8040923c:	97ba                	add	a5,a5,a4
ffffffff8040923e:	0007c783          	lbu	a5,0(a5)
ffffffff80409242:	0007871b          	sext.w	a4,a5
ffffffff80409246:	fc843783          	ld	a5,-56(s0)
ffffffff8040924a:	d3b8                	sw	a4,96(a5)
ffffffff8040924c:	fe843783          	ld	a5,-24(s0)
ffffffff80409250:	0785                	addi	a5,a5,1
ffffffff80409252:	fef43423          	sd	a5,-24(s0)
ffffffff80409256:	fe843703          	ld	a4,-24(s0)
ffffffff8040925a:	fb843783          	ld	a5,-72(s0)
ffffffff8040925e:	fcf765e3          	bltu	a4,a5,ffffffff80409228 <spi_receive_data_standard+0x1cc>
ffffffff80409262:	0001                	nop
ffffffff80409264:	fa842783          	lw	a5,-88(s0)
ffffffff80409268:	4705                	li	a4,1
ffffffff8040926a:	00f717bb          	sllw	a5,a4,a5
ffffffff8040926e:	0007871b          	sext.w	a4,a5
ffffffff80409272:	fc843783          	ld	a5,-56(s0)
ffffffff80409276:	cb98                	sw	a4,16(a5)
ffffffff80409278:	fd843703          	ld	a4,-40(s0)
ffffffff8040927c:	fb843783          	ld	a5,-72(s0)
ffffffff80409280:	40f707b3          	sub	a5,a4,a5
ffffffff80409284:	fcf43c23          	sd	a5,-40(s0)
ffffffff80409288:	fd843783          	ld	a5,-40(s0)
ffffffff8040928c:	ec0796e3          	bnez	a5,ffffffff80409158 <spi_receive_data_standard+0xfc>
ffffffff80409290:	f9843783          	ld	a5,-104(s0)
ffffffff80409294:	ef99                	bnez	a5,ffffffff804092b2 <spi_receive_data_standard+0x256>
ffffffff80409296:	fc843783          	ld	a5,-56(s0)
ffffffff8040929a:	577d                	li	a4,-1
ffffffff8040929c:	d3b8                	sw	a4,96(a5)
ffffffff8040929e:	fa842783          	lw	a5,-88(s0)
ffffffff804092a2:	4705                	li	a4,1
ffffffff804092a4:	00f717bb          	sllw	a5,a4,a5
ffffffff804092a8:	0007871b          	sext.w	a4,a5
ffffffff804092ac:	fc843783          	ld	a5,-56(s0)
ffffffff804092b0:	cb98                	sw	a4,16(a5)
ffffffff804092b2:	fe042023          	sw	zero,-32(s0)
ffffffff804092b6:	a215                	j	ffffffff804093da <spi_receive_data_standard+0x37e>
ffffffff804092b8:	fc843783          	ld	a5,-56(s0)
ffffffff804092bc:	53dc                	lw	a5,36(a5)
ffffffff804092be:	2781                	sext.w	a5,a5
ffffffff804092c0:	1782                	slli	a5,a5,0x20
ffffffff804092c2:	9381                	srli	a5,a5,0x20
ffffffff804092c4:	faf43c23          	sd	a5,-72(s0)
ffffffff804092c8:	fd446703          	lwu	a4,-44(s0)
ffffffff804092cc:	fb843783          	ld	a5,-72(s0)
ffffffff804092d0:	00f77363          	bgeu	a4,a5,ffffffff804092d6 <spi_receive_data_standard+0x27a>
ffffffff804092d4:	87ba                	mv	a5,a4
ffffffff804092d6:	faf43c23          	sd	a5,-72(s0)
ffffffff804092da:	fc042783          	lw	a5,-64(s0)
ffffffff804092de:	0007871b          	sext.w	a4,a5
ffffffff804092e2:	4789                	li	a5,2
ffffffff804092e4:	04f70963          	beq	a4,a5,ffffffff80409336 <spi_receive_data_standard+0x2da>
ffffffff804092e8:	fc042783          	lw	a5,-64(s0)
ffffffff804092ec:	0007871b          	sext.w	a4,a5
ffffffff804092f0:	4791                	li	a5,4
ffffffff804092f2:	08f71763          	bne	a4,a5,ffffffff80409380 <spi_receive_data_standard+0x324>
ffffffff804092f6:	fe043423          	sd	zero,-24(s0)
ffffffff804092fa:	a03d                	j	ffffffff80409328 <spi_receive_data_standard+0x2cc>
ffffffff804092fc:	fe042783          	lw	a5,-32(s0)
ffffffff80409300:	0017871b          	addiw	a4,a5,1
ffffffff80409304:	fee42023          	sw	a4,-32(s0)
ffffffff80409308:	1782                	slli	a5,a5,0x20
ffffffff8040930a:	9381                	srli	a5,a5,0x20
ffffffff8040930c:	078a                	slli	a5,a5,0x2
ffffffff8040930e:	f9043703          	ld	a4,-112(s0)
ffffffff80409312:	97ba                	add	a5,a5,a4
ffffffff80409314:	fc843703          	ld	a4,-56(s0)
ffffffff80409318:	5338                	lw	a4,96(a4)
ffffffff8040931a:	2701                	sext.w	a4,a4
ffffffff8040931c:	c398                	sw	a4,0(a5)
ffffffff8040931e:	fe843783          	ld	a5,-24(s0)
ffffffff80409322:	0785                	addi	a5,a5,1
ffffffff80409324:	fef43423          	sd	a5,-24(s0)
ffffffff80409328:	fe843703          	ld	a4,-24(s0)
ffffffff8040932c:	fb843783          	ld	a5,-72(s0)
ffffffff80409330:	fcf766e3          	bltu	a4,a5,ffffffff804092fc <spi_receive_data_standard+0x2a0>
ffffffff80409334:	a851                	j	ffffffff804093c8 <spi_receive_data_standard+0x36c>
ffffffff80409336:	fe043423          	sd	zero,-24(s0)
ffffffff8040933a:	a825                	j	ffffffff80409372 <spi_receive_data_standard+0x316>
ffffffff8040933c:	fc843783          	ld	a5,-56(s0)
ffffffff80409340:	53bc                	lw	a5,96(a5)
ffffffff80409342:	0007869b          	sext.w	a3,a5
ffffffff80409346:	fe042783          	lw	a5,-32(s0)
ffffffff8040934a:	0017871b          	addiw	a4,a5,1
ffffffff8040934e:	fee42023          	sw	a4,-32(s0)
ffffffff80409352:	1782                	slli	a5,a5,0x20
ffffffff80409354:	9381                	srli	a5,a5,0x20
ffffffff80409356:	0786                	slli	a5,a5,0x1
ffffffff80409358:	f9043703          	ld	a4,-112(s0)
ffffffff8040935c:	97ba                	add	a5,a5,a4
ffffffff8040935e:	8736                	mv	a4,a3
ffffffff80409360:	1742                	slli	a4,a4,0x30
ffffffff80409362:	9341                	srli	a4,a4,0x30
ffffffff80409364:	00e79023          	sh	a4,0(a5)
ffffffff80409368:	fe843783          	ld	a5,-24(s0)
ffffffff8040936c:	0785                	addi	a5,a5,1
ffffffff8040936e:	fef43423          	sd	a5,-24(s0)
ffffffff80409372:	fe843703          	ld	a4,-24(s0)
ffffffff80409376:	fb843783          	ld	a5,-72(s0)
ffffffff8040937a:	fcf761e3          	bltu	a4,a5,ffffffff8040933c <spi_receive_data_standard+0x2e0>
ffffffff8040937e:	a0a9                	j	ffffffff804093c8 <spi_receive_data_standard+0x36c>
ffffffff80409380:	fe043423          	sd	zero,-24(s0)
ffffffff80409384:	a81d                	j	ffffffff804093ba <spi_receive_data_standard+0x35e>
ffffffff80409386:	fc843783          	ld	a5,-56(s0)
ffffffff8040938a:	53bc                	lw	a5,96(a5)
ffffffff8040938c:	0007869b          	sext.w	a3,a5
ffffffff80409390:	fe042783          	lw	a5,-32(s0)
ffffffff80409394:	0017871b          	addiw	a4,a5,1
ffffffff80409398:	fee42023          	sw	a4,-32(s0)
ffffffff8040939c:	1782                	slli	a5,a5,0x20
ffffffff8040939e:	9381                	srli	a5,a5,0x20
ffffffff804093a0:	f9043703          	ld	a4,-112(s0)
ffffffff804093a4:	97ba                	add	a5,a5,a4
ffffffff804093a6:	8736                	mv	a4,a3
ffffffff804093a8:	0ff77713          	andi	a4,a4,255
ffffffff804093ac:	00e78023          	sb	a4,0(a5)
ffffffff804093b0:	fe843783          	ld	a5,-24(s0)
ffffffff804093b4:	0785                	addi	a5,a5,1
ffffffff804093b6:	fef43423          	sd	a5,-24(s0)
ffffffff804093ba:	fe843703          	ld	a4,-24(s0)
ffffffff804093be:	fb843783          	ld	a5,-72(s0)
ffffffff804093c2:	fcf762e3          	bltu	a4,a5,ffffffff80409386 <spi_receive_data_standard+0x32a>
ffffffff804093c6:	0001                	nop
ffffffff804093c8:	fb843783          	ld	a5,-72(s0)
ffffffff804093cc:	2781                	sext.w	a5,a5
ffffffff804093ce:	fd442703          	lw	a4,-44(s0)
ffffffff804093d2:	40f707bb          	subw	a5,a4,a5
ffffffff804093d6:	fcf42a23          	sw	a5,-44(s0)
ffffffff804093da:	fd442783          	lw	a5,-44(s0)
ffffffff804093de:	2781                	sext.w	a5,a5
ffffffff804093e0:	ec079ce3          	bnez	a5,ffffffff804092b8 <spi_receive_data_standard+0x25c>
ffffffff804093e4:	fc843783          	ld	a5,-56(s0)
ffffffff804093e8:	0007a823          	sw	zero,16(a5)
ffffffff804093ec:	fc843783          	ld	a5,-56(s0)
ffffffff804093f0:	0007a423          	sw	zero,8(a5)
ffffffff804093f4:	0001                	nop
ffffffff804093f6:	70e6                	ld	ra,120(sp)
ffffffff804093f8:	7446                	ld	s0,112(sp)
ffffffff804093fa:	6109                	addi	sp,sp,128
ffffffff804093fc:	8082                	ret

ffffffff804093fe <set_bit>:
ffffffff804093fe:	7179                	addi	sp,sp,-48
ffffffff80409400:	f422                	sd	s0,40(sp)
ffffffff80409402:	1800                	addi	s0,sp,48
ffffffff80409404:	fca43c23          	sd	a0,-40(s0)
ffffffff80409408:	87ae                	mv	a5,a1
ffffffff8040940a:	8732                	mv	a4,a2
ffffffff8040940c:	fcf42a23          	sw	a5,-44(s0)
ffffffff80409410:	87ba                	mv	a5,a4
ffffffff80409412:	fcf42823          	sw	a5,-48(s0)
ffffffff80409416:	fd843783          	ld	a5,-40(s0)
ffffffff8040941a:	439c                	lw	a5,0(a5)
ffffffff8040941c:	0007871b          	sext.w	a4,a5
ffffffff80409420:	fd442783          	lw	a5,-44(s0)
ffffffff80409424:	fff7c793          	not	a5,a5
ffffffff80409428:	2781                	sext.w	a5,a5
ffffffff8040942a:	8ff9                	and	a5,a5,a4
ffffffff8040942c:	fef42623          	sw	a5,-20(s0)
ffffffff80409430:	fd042703          	lw	a4,-48(s0)
ffffffff80409434:	fd442783          	lw	a5,-44(s0)
ffffffff80409438:	8ff9                	and	a5,a5,a4
ffffffff8040943a:	0007871b          	sext.w	a4,a5
ffffffff8040943e:	fec42783          	lw	a5,-20(s0)
ffffffff80409442:	8fd9                	or	a5,a5,a4
ffffffff80409444:	0007871b          	sext.w	a4,a5
ffffffff80409448:	fd843783          	ld	a5,-40(s0)
ffffffff8040944c:	c398                	sw	a4,0(a5)
ffffffff8040944e:	0001                	nop
ffffffff80409450:	7422                	ld	s0,40(sp)
ffffffff80409452:	6145                	addi	sp,sp,48
ffffffff80409454:	8082                	ret

ffffffff80409456 <set_bit_offset>:
ffffffff80409456:	7179                	addi	sp,sp,-48
ffffffff80409458:	f406                	sd	ra,40(sp)
ffffffff8040945a:	f022                	sd	s0,32(sp)
ffffffff8040945c:	1800                	addi	s0,sp,48
ffffffff8040945e:	fea43423          	sd	a0,-24(s0)
ffffffff80409462:	87ae                	mv	a5,a1
ffffffff80409464:	fcc43c23          	sd	a2,-40(s0)
ffffffff80409468:	8736                	mv	a4,a3
ffffffff8040946a:	fef42223          	sw	a5,-28(s0)
ffffffff8040946e:	87ba                	mv	a5,a4
ffffffff80409470:	fef42023          	sw	a5,-32(s0)
ffffffff80409474:	fd843783          	ld	a5,-40(s0)
ffffffff80409478:	2781                	sext.w	a5,a5
ffffffff8040947a:	873e                	mv	a4,a5
ffffffff8040947c:	fe442783          	lw	a5,-28(s0)
ffffffff80409480:	00e797bb          	sllw	a5,a5,a4
ffffffff80409484:	0007871b          	sext.w	a4,a5
ffffffff80409488:	fd843783          	ld	a5,-40(s0)
ffffffff8040948c:	2781                	sext.w	a5,a5
ffffffff8040948e:	86be                	mv	a3,a5
ffffffff80409490:	fe042783          	lw	a5,-32(s0)
ffffffff80409494:	00d797bb          	sllw	a5,a5,a3
ffffffff80409498:	2781                	sext.w	a5,a5
ffffffff8040949a:	863e                	mv	a2,a5
ffffffff8040949c:	85ba                	mv	a1,a4
ffffffff8040949e:	fe843503          	ld	a0,-24(s0)
ffffffff804094a2:	f5dff0ef          	jal	ra,ffffffff804093fe <set_bit>
ffffffff804094a6:	0001                	nop
ffffffff804094a8:	70a2                	ld	ra,40(sp)
ffffffff804094aa:	7402                	ld	s0,32(sp)
ffffffff804094ac:	6145                	addi	sp,sp,48
ffffffff804094ae:	8082                	ret

ffffffff804094b0 <set_gpio_bit>:
ffffffff804094b0:	7179                	addi	sp,sp,-48
ffffffff804094b2:	f406                	sd	ra,40(sp)
ffffffff804094b4:	f022                	sd	s0,32(sp)
ffffffff804094b6:	1800                	addi	s0,sp,48
ffffffff804094b8:	fea43423          	sd	a0,-24(s0)
ffffffff804094bc:	feb43023          	sd	a1,-32(s0)
ffffffff804094c0:	87b2                	mv	a5,a2
ffffffff804094c2:	fcf42e23          	sw	a5,-36(s0)
ffffffff804094c6:	fdc42783          	lw	a5,-36(s0)
ffffffff804094ca:	86be                	mv	a3,a5
ffffffff804094cc:	fe043603          	ld	a2,-32(s0)
ffffffff804094d0:	4585                	li	a1,1
ffffffff804094d2:	fe843503          	ld	a0,-24(s0)
ffffffff804094d6:	f81ff0ef          	jal	ra,ffffffff80409456 <set_bit_offset>
ffffffff804094da:	0001                	nop
ffffffff804094dc:	70a2                	ld	ra,40(sp)
ffffffff804094de:	7402                	ld	s0,32(sp)
ffffffff804094e0:	6145                	addi	sp,sp,48
ffffffff804094e2:	8082                	ret

ffffffff804094e4 <get_bit>:
ffffffff804094e4:	7179                	addi	sp,sp,-48
ffffffff804094e6:	f422                	sd	s0,40(sp)
ffffffff804094e8:	1800                	addi	s0,sp,48
ffffffff804094ea:	fea43423          	sd	a0,-24(s0)
ffffffff804094ee:	87ae                	mv	a5,a1
ffffffff804094f0:	fcc43c23          	sd	a2,-40(s0)
ffffffff804094f4:	fef42223          	sw	a5,-28(s0)
ffffffff804094f8:	fe843783          	ld	a5,-24(s0)
ffffffff804094fc:	439c                	lw	a5,0(a5)
ffffffff804094fe:	0007871b          	sext.w	a4,a5
ffffffff80409502:	fd843783          	ld	a5,-40(s0)
ffffffff80409506:	2781                	sext.w	a5,a5
ffffffff80409508:	86be                	mv	a3,a5
ffffffff8040950a:	fe442783          	lw	a5,-28(s0)
ffffffff8040950e:	00d797bb          	sllw	a5,a5,a3
ffffffff80409512:	2781                	sext.w	a5,a5
ffffffff80409514:	8ff9                	and	a5,a5,a4
ffffffff80409516:	2781                	sext.w	a5,a5
ffffffff80409518:	fd843703          	ld	a4,-40(s0)
ffffffff8040951c:	2701                	sext.w	a4,a4
ffffffff8040951e:	00e7d7bb          	srlw	a5,a5,a4
ffffffff80409522:	2781                	sext.w	a5,a5
ffffffff80409524:	853e                	mv	a0,a5
ffffffff80409526:	7422                	ld	s0,40(sp)
ffffffff80409528:	6145                	addi	sp,sp,48
ffffffff8040952a:	8082                	ret

ffffffff8040952c <get_gpio_bit>:
ffffffff8040952c:	1101                	addi	sp,sp,-32
ffffffff8040952e:	ec06                	sd	ra,24(sp)
ffffffff80409530:	e822                	sd	s0,16(sp)
ffffffff80409532:	1000                	addi	s0,sp,32
ffffffff80409534:	fea43423          	sd	a0,-24(s0)
ffffffff80409538:	feb43023          	sd	a1,-32(s0)
ffffffff8040953c:	fe043603          	ld	a2,-32(s0)
ffffffff80409540:	4585                	li	a1,1
ffffffff80409542:	fe843503          	ld	a0,-24(s0)
ffffffff80409546:	f9fff0ef          	jal	ra,ffffffff804094e4 <get_bit>
ffffffff8040954a:	87aa                	mv	a5,a0
ffffffff8040954c:	2781                	sext.w	a5,a5
ffffffff8040954e:	853e                	mv	a0,a5
ffffffff80409550:	60e2                	ld	ra,24(sp)
ffffffff80409552:	6442                	ld	s0,16(sp)
ffffffff80409554:	6105                	addi	sp,sp,32
ffffffff80409556:	8082                	ret

ffffffff80409558 <disk_init>:
ffffffff80409558:	1141                	addi	sp,sp,-16
ffffffff8040955a:	e422                	sd	s0,8(sp)
ffffffff8040955c:	0800                	addi	s0,sp,16
ffffffff8040955e:	0001                	nop
ffffffff80409560:	6422                	ld	s0,8(sp)
ffffffff80409562:	0141                	addi	sp,sp,16
ffffffff80409564:	8082                	ret

ffffffff80409566 <disk_read>:
ffffffff80409566:	1101                	addi	sp,sp,-32
ffffffff80409568:	ec22                	sd	s0,24(sp)
ffffffff8040956a:	1000                	addi	s0,sp,32
ffffffff8040956c:	fea43423          	sd	a0,-24(s0)
ffffffff80409570:	0001                	nop
ffffffff80409572:	6462                	ld	s0,24(sp)
ffffffff80409574:	6105                	addi	sp,sp,32
ffffffff80409576:	8082                	ret

ffffffff80409578 <disk_write>:
ffffffff80409578:	1101                	addi	sp,sp,-32
ffffffff8040957a:	ec22                	sd	s0,24(sp)
ffffffff8040957c:	1000                	addi	s0,sp,32
ffffffff8040957e:	fea43423          	sd	a0,-24(s0)
ffffffff80409582:	0001                	nop
ffffffff80409584:	6462                	ld	s0,24(sp)
ffffffff80409586:	6105                	addi	sp,sp,32
ffffffff80409588:	8082                	ret

ffffffff8040958a <disk_intr>:
ffffffff8040958a:	1141                	addi	sp,sp,-16
ffffffff8040958c:	e422                	sd	s0,8(sp)
ffffffff8040958e:	0800                	addi	s0,sp,16
ffffffff80409590:	0001                	nop
ffffffff80409592:	6422                	ld	s0,8(sp)
ffffffff80409594:	0141                	addi	sp,sp,16
ffffffff80409596:	8082                	ret

ffffffff80409598 <do_testdisk>:
ffffffff80409598:	d9010113          	addi	sp,sp,-624
ffffffff8040959c:	26113423          	sd	ra,616(sp)
ffffffff804095a0:	26813023          	sd	s0,608(sp)
ffffffff804095a4:	1c80                	addi	s0,sp,624
ffffffff804095a6:	d9840793          	addi	a5,s0,-616
ffffffff804095aa:	853e                	mv	a0,a5
ffffffff804095ac:	fbbff0ef          	jal	ra,ffffffff80409566 <disk_read>
ffffffff804095b0:	0001                	nop
ffffffff804095b2:	26813083          	ld	ra,616(sp)
ffffffff804095b6:	26013403          	ld	s0,608(sp)
ffffffff804095ba:	27010113          	addi	sp,sp,624
ffffffff804095be:	8082                	ret

ffffffff804095c0 <plicinit>:
ffffffff804095c0:	1141                	addi	sp,sp,-16
ffffffff804095c2:	e422                	sd	s0,8(sp)
ffffffff804095c4:	0800                	addi	s0,sp,16
ffffffff804095c6:	86100793          	li	a5,-1951
ffffffff804095ca:	07d6                	slli	a5,a5,0x15
ffffffff804095cc:	02878793          	addi	a5,a5,40
ffffffff804095d0:	4705                	li	a4,1
ffffffff804095d2:	c398                	sw	a4,0(a5)
ffffffff804095d4:	86100793          	li	a5,-1951
ffffffff804095d8:	07d6                	slli	a5,a5,0x15
ffffffff804095da:	0791                	addi	a5,a5,4
ffffffff804095dc:	4705                	li	a4,1
ffffffff804095de:	c398                	sw	a4,0(a5)
ffffffff804095e0:	0001                	nop
ffffffff804095e2:	6422                	ld	s0,8(sp)
ffffffff804095e4:	0141                	addi	sp,sp,16
ffffffff804095e6:	8082                	ret

ffffffff804095e8 <plicinithart>:
ffffffff804095e8:	1101                	addi	sp,sp,-32
ffffffff804095ea:	ec06                	sd	ra,24(sp)
ffffffff804095ec:	e822                	sd	s0,16(sp)
ffffffff804095ee:	1000                	addi	s0,sp,32
ffffffff804095f0:	0d0000ef          	jal	ra,ffffffff804096c0 <cpuid>
ffffffff804095f4:	87aa                	mv	a5,a0
ffffffff804095f6:	fef42623          	sw	a5,-20(s0)
ffffffff804095fa:	fec42783          	lw	a5,-20(s0)
ffffffff804095fe:	0087979b          	slliw	a5,a5,0x8
ffffffff80409602:	2781                	sext.w	a5,a5
ffffffff80409604:	873e                	mv	a4,a5
ffffffff80409606:	861017b7          	lui	a5,0x86101
ffffffff8040960a:	0786                	slli	a5,a5,0x1
ffffffff8040960c:	08078793          	addi	a5,a5,128 # ffffffff86101080 <__BSS_END__+0x5cd9920>
ffffffff80409610:	97ba                	add	a5,a5,a4
ffffffff80409612:	873e                	mv	a4,a5
ffffffff80409614:	40200793          	li	a5,1026
ffffffff80409618:	c31c                	sw	a5,0(a4)
ffffffff8040961a:	fec42783          	lw	a5,-20(s0)
ffffffff8040961e:	00d7979b          	slliw	a5,a5,0xd
ffffffff80409622:	2781                	sext.w	a5,a5
ffffffff80409624:	873e                	mv	a4,a5
ffffffff80409626:	fff0c7b7          	lui	a5,0xfff0c
ffffffff8040962a:	40178793          	addi	a5,a5,1025 # fffffffffff0c401 <__BSS_END__+0x7fae4ca1>
ffffffff8040962e:	07b2                	slli	a5,a5,0xc
ffffffff80409630:	97ba                	add	a5,a5,a4
ffffffff80409632:	0007a023          	sw	zero,0(a5)
ffffffff80409636:	0001                	nop
ffffffff80409638:	60e2                	ld	ra,24(sp)
ffffffff8040963a:	6442                	ld	s0,16(sp)
ffffffff8040963c:	6105                	addi	sp,sp,32
ffffffff8040963e:	8082                	ret

ffffffff80409640 <plic_claim>:
ffffffff80409640:	1101                	addi	sp,sp,-32
ffffffff80409642:	ec06                	sd	ra,24(sp)
ffffffff80409644:	e822                	sd	s0,16(sp)
ffffffff80409646:	1000                	addi	s0,sp,32
ffffffff80409648:	078000ef          	jal	ra,ffffffff804096c0 <cpuid>
ffffffff8040964c:	87aa                	mv	a5,a0
ffffffff8040964e:	fef42623          	sw	a5,-20(s0)
ffffffff80409652:	fec42783          	lw	a5,-20(s0)
ffffffff80409656:	00d7979b          	slliw	a5,a5,0xd
ffffffff8040965a:	2781                	sext.w	a5,a5
ffffffff8040965c:	873e                	mv	a4,a5
ffffffff8040965e:	c31007b7          	lui	a5,0xc3100
ffffffff80409662:	40178793          	addi	a5,a5,1025 # ffffffffc3100401 <__BSS_END__+0x42cd8ca1>
ffffffff80409666:	078a                	slli	a5,a5,0x2
ffffffff80409668:	97ba                	add	a5,a5,a4
ffffffff8040966a:	439c                	lw	a5,0(a5)
ffffffff8040966c:	fef42423          	sw	a5,-24(s0)
ffffffff80409670:	fe842783          	lw	a5,-24(s0)
ffffffff80409674:	853e                	mv	a0,a5
ffffffff80409676:	60e2                	ld	ra,24(sp)
ffffffff80409678:	6442                	ld	s0,16(sp)
ffffffff8040967a:	6105                	addi	sp,sp,32
ffffffff8040967c:	8082                	ret

ffffffff8040967e <plic_complete>:
ffffffff8040967e:	7179                	addi	sp,sp,-48
ffffffff80409680:	f406                	sd	ra,40(sp)
ffffffff80409682:	f022                	sd	s0,32(sp)
ffffffff80409684:	1800                	addi	s0,sp,48
ffffffff80409686:	87aa                	mv	a5,a0
ffffffff80409688:	fcf42e23          	sw	a5,-36(s0)
ffffffff8040968c:	034000ef          	jal	ra,ffffffff804096c0 <cpuid>
ffffffff80409690:	87aa                	mv	a5,a0
ffffffff80409692:	fef42623          	sw	a5,-20(s0)
ffffffff80409696:	fec42783          	lw	a5,-20(s0)
ffffffff8040969a:	00d7979b          	slliw	a5,a5,0xd
ffffffff8040969e:	2781                	sext.w	a5,a5
ffffffff804096a0:	873e                	mv	a4,a5
ffffffff804096a2:	c31007b7          	lui	a5,0xc3100
ffffffff804096a6:	40178793          	addi	a5,a5,1025 # ffffffffc3100401 <__BSS_END__+0x42cd8ca1>
ffffffff804096aa:	078a                	slli	a5,a5,0x2
ffffffff804096ac:	97ba                	add	a5,a5,a4
ffffffff804096ae:	873e                	mv	a4,a5
ffffffff804096b0:	fdc42783          	lw	a5,-36(s0)
ffffffff804096b4:	c31c                	sw	a5,0(a4)
ffffffff804096b6:	0001                	nop
ffffffff804096b8:	70a2                	ld	ra,40(sp)
ffffffff804096ba:	7402                	ld	s0,32(sp)
ffffffff804096bc:	6145                	addi	sp,sp,48
ffffffff804096be:	8082                	ret

ffffffff804096c0 <cpuid>:
ffffffff804096c0:	1141                	addi	sp,sp,-16
ffffffff804096c2:	e422                	sd	s0,8(sp)
ffffffff804096c4:	0800                	addi	s0,sp,16
ffffffff804096c6:	4781                	li	a5,0
ffffffff804096c8:	853e                	mv	a0,a5
ffffffff804096ca:	6422                	ld	s0,8(sp)
ffffffff804096cc:	0141                	addi	sp,sp,16
ffffffff804096ce:	8082                	ret

ffffffff804096d0 <_panic>:
ffffffff804096d0:	7179                	addi	sp,sp,-48
ffffffff804096d2:	f406                	sd	ra,40(sp)
ffffffff804096d4:	f022                	sd	s0,32(sp)
ffffffff804096d6:	1800                	addi	s0,sp,48
ffffffff804096d8:	fea43423          	sd	a0,-24(s0)
ffffffff804096dc:	87ae                	mv	a5,a1
ffffffff804096de:	fcc43c23          	sd	a2,-40(s0)
ffffffff804096e2:	fef42223          	sw	a5,-28(s0)
ffffffff804096e6:	fe442783          	lw	a5,-28(s0)
ffffffff804096ea:	86be                	mv	a3,a5
ffffffff804096ec:	fe843603          	ld	a2,-24(s0)
ffffffff804096f0:	fd843583          	ld	a1,-40(s0)
ffffffff804096f4:	00004517          	auipc	a0,0x4
ffffffff804096f8:	79c50513          	addi	a0,a0,1948 # ffffffff8040de90 <spi+0x20>
ffffffff804096fc:	860fd0ef          	jal	ra,ffffffff8040675c <printk>
ffffffff80409700:	a001                	j	ffffffff80409700 <_panic+0x30>

ffffffff80409702 <kva2pa>:
ffffffff80409702:	1101                	addi	sp,sp,-32
ffffffff80409704:	ec22                	sd	s0,24(sp)
ffffffff80409706:	1000                	addi	s0,sp,32
ffffffff80409708:	fea43423          	sd	a0,-24(s0)
ffffffff8040970c:	fe843703          	ld	a4,-24(s0)
ffffffff80409710:	4785                	li	a5,1
ffffffff80409712:	1782                	slli	a5,a5,0x20
ffffffff80409714:	97ba                	add	a5,a5,a4
ffffffff80409716:	853e                	mv	a0,a5
ffffffff80409718:	6462                	ld	s0,24(sp)
ffffffff8040971a:	6105                	addi	sp,sp,32
ffffffff8040971c:	8082                	ret

ffffffff8040971e <virtio_disk_init>:
ffffffff8040971e:	7179                	addi	sp,sp,-48
ffffffff80409720:	f406                	sd	ra,40(sp)
ffffffff80409722:	f022                	sd	s0,32(sp)
ffffffff80409724:	1800                	addi	s0,sp,48
ffffffff80409726:	fe042423          	sw	zero,-24(s0)
ffffffff8040972a:	fff107b7          	lui	a5,0xfff10
ffffffff8040972e:	0785                	addi	a5,a5,1
ffffffff80409730:	07b2                	slli	a5,a5,0xc
ffffffff80409732:	439c                	lw	a5,0(a5)
ffffffff80409734:	2781                	sext.w	a5,a5
ffffffff80409736:	873e                	mv	a4,a5
ffffffff80409738:	747277b7          	lui	a5,0x74727
ffffffff8040973c:	97678793          	addi	a5,a5,-1674 # 74726976 <_start-0xffffffff0bcd968a>
ffffffff80409740:	04f71663          	bne	a4,a5,ffffffff8040978c <virtio_disk_init+0x6e>
ffffffff80409744:	c40007b7          	lui	a5,0xc4000
ffffffff80409748:	40178793          	addi	a5,a5,1025 # ffffffffc4000401 <__BSS_END__+0x43bd8ca1>
ffffffff8040974c:	078a                	slli	a5,a5,0x2
ffffffff8040974e:	439c                	lw	a5,0(a5)
ffffffff80409750:	2781                	sext.w	a5,a5
ffffffff80409752:	873e                	mv	a4,a5
ffffffff80409754:	4785                	li	a5,1
ffffffff80409756:	02f71b63          	bne	a4,a5,ffffffff8040978c <virtio_disk_init+0x6e>
ffffffff8040975a:	e20007b7          	lui	a5,0xe2000
ffffffff8040975e:	20178793          	addi	a5,a5,513 # ffffffffe2000201 <__BSS_END__+0x61bd8aa1>
ffffffff80409762:	078e                	slli	a5,a5,0x3
ffffffff80409764:	439c                	lw	a5,0(a5)
ffffffff80409766:	2781                	sext.w	a5,a5
ffffffff80409768:	873e                	mv	a4,a5
ffffffff8040976a:	4789                	li	a5,2
ffffffff8040976c:	02f71063          	bne	a4,a5,ffffffff8040978c <virtio_disk_init+0x6e>
ffffffff80409770:	c40007b7          	lui	a5,0xc4000
ffffffff80409774:	40378793          	addi	a5,a5,1027 # ffffffffc4000403 <__BSS_END__+0x43bd8ca3>
ffffffff80409778:	078a                	slli	a5,a5,0x2
ffffffff8040977a:	439c                	lw	a5,0(a5)
ffffffff8040977c:	2781                	sext.w	a5,a5
ffffffff8040977e:	873e                	mv	a4,a5
ffffffff80409780:	554d47b7          	lui	a5,0x554d4
ffffffff80409784:	55178793          	addi	a5,a5,1361 # 554d4551 <_start-0xffffffff2af2baaf>
ffffffff80409788:	00f70e63          	beq	a4,a5,ffffffff804097a4 <virtio_disk_init+0x86>
ffffffff8040978c:	00004617          	auipc	a2,0x4
ffffffff80409790:	74c60613          	addi	a2,a2,1868 # ffffffff8040ded8 <__FUNCTION__.2252>
ffffffff80409794:	04100593          	li	a1,65
ffffffff80409798:	00004517          	auipc	a0,0x4
ffffffff8040979c:	72050513          	addi	a0,a0,1824 # ffffffff8040deb8 <spi+0x48>
ffffffff804097a0:	f31ff0ef          	jal	ra,ffffffff804096d0 <_panic>
ffffffff804097a4:	fe842783          	lw	a5,-24(s0)
ffffffff804097a8:	0017e793          	ori	a5,a5,1
ffffffff804097ac:	fef42423          	sw	a5,-24(s0)
ffffffff804097b0:	f10007b7          	lui	a5,0xf1000
ffffffff804097b4:	10778793          	addi	a5,a5,263 # fffffffff1000107 <__BSS_END__+0x70bd89a7>
ffffffff804097b8:	0792                	slli	a5,a5,0x4
ffffffff804097ba:	fe842703          	lw	a4,-24(s0)
ffffffff804097be:	c398                	sw	a4,0(a5)
ffffffff804097c0:	fe842783          	lw	a5,-24(s0)
ffffffff804097c4:	0027e793          	ori	a5,a5,2
ffffffff804097c8:	fef42423          	sw	a5,-24(s0)
ffffffff804097cc:	f10007b7          	lui	a5,0xf1000
ffffffff804097d0:	10778793          	addi	a5,a5,263 # fffffffff1000107 <__BSS_END__+0x70bd89a7>
ffffffff804097d4:	0792                	slli	a5,a5,0x4
ffffffff804097d6:	fe842703          	lw	a4,-24(s0)
ffffffff804097da:	c398                	sw	a4,0(a5)
ffffffff804097dc:	f10007b7          	lui	a5,0xf1000
ffffffff804097e0:	10178793          	addi	a5,a5,257 # fffffffff1000101 <__BSS_END__+0x70bd89a1>
ffffffff804097e4:	0792                	slli	a5,a5,0x4
ffffffff804097e6:	439c                	lw	a5,0(a5)
ffffffff804097e8:	2781                	sext.w	a5,a5
ffffffff804097ea:	1782                	slli	a5,a5,0x20
ffffffff804097ec:	9381                	srli	a5,a5,0x20
ffffffff804097ee:	fef43023          	sd	a5,-32(s0)
ffffffff804097f2:	fe043783          	ld	a5,-32(s0)
ffffffff804097f6:	fdf7f793          	andi	a5,a5,-33
ffffffff804097fa:	fef43023          	sd	a5,-32(s0)
ffffffff804097fe:	fe043783          	ld	a5,-32(s0)
ffffffff80409802:	f7f7f793          	andi	a5,a5,-129
ffffffff80409806:	fef43023          	sd	a5,-32(s0)
ffffffff8040980a:	fe043703          	ld	a4,-32(s0)
ffffffff8040980e:	77fd                	lui	a5,0xfffff
ffffffff80409810:	7ff78793          	addi	a5,a5,2047 # fffffffffffff7ff <__BSS_END__+0x7fbd809f>
ffffffff80409814:	8ff9                	and	a5,a5,a4
ffffffff80409816:	fef43023          	sd	a5,-32(s0)
ffffffff8040981a:	fe043703          	ld	a4,-32(s0)
ffffffff8040981e:	77fd                	lui	a5,0xfffff
ffffffff80409820:	17fd                	addi	a5,a5,-1
ffffffff80409822:	8ff9                	and	a5,a5,a4
ffffffff80409824:	fef43023          	sd	a5,-32(s0)
ffffffff80409828:	fe043703          	ld	a4,-32(s0)
ffffffff8040982c:	f80007b7          	lui	a5,0xf8000
ffffffff80409830:	17fd                	addi	a5,a5,-1
ffffffff80409832:	8ff9                	and	a5,a5,a4
ffffffff80409834:	fef43023          	sd	a5,-32(s0)
ffffffff80409838:	fe043703          	ld	a4,-32(s0)
ffffffff8040983c:	e00007b7          	lui	a5,0xe0000
ffffffff80409840:	17fd                	addi	a5,a5,-1
ffffffff80409842:	8ff9                	and	a5,a5,a4
ffffffff80409844:	fef43023          	sd	a5,-32(s0)
ffffffff80409848:	fe043703          	ld	a4,-32(s0)
ffffffff8040984c:	f00007b7          	lui	a5,0xf0000
ffffffff80409850:	17fd                	addi	a5,a5,-1
ffffffff80409852:	8ff9                	and	a5,a5,a4
ffffffff80409854:	fef43023          	sd	a5,-32(s0)
ffffffff80409858:	f88007b7          	lui	a5,0xf8800
ffffffff8040985c:	08178793          	addi	a5,a5,129 # fffffffff8800081 <__BSS_END__+0x783d8921>
ffffffff80409860:	0796                	slli	a5,a5,0x5
ffffffff80409862:	fe043703          	ld	a4,-32(s0)
ffffffff80409866:	2701                	sext.w	a4,a4
ffffffff80409868:	c398                	sw	a4,0(a5)
ffffffff8040986a:	fe842783          	lw	a5,-24(s0)
ffffffff8040986e:	0087e793          	ori	a5,a5,8
ffffffff80409872:	fef42423          	sw	a5,-24(s0)
ffffffff80409876:	f10007b7          	lui	a5,0xf1000
ffffffff8040987a:	10778793          	addi	a5,a5,263 # fffffffff1000107 <__BSS_END__+0x70bd89a7>
ffffffff8040987e:	0792                	slli	a5,a5,0x4
ffffffff80409880:	fe842703          	lw	a4,-24(s0)
ffffffff80409884:	c398                	sw	a4,0(a5)
ffffffff80409886:	fe842783          	lw	a5,-24(s0)
ffffffff8040988a:	0047e793          	ori	a5,a5,4
ffffffff8040988e:	fef42423          	sw	a5,-24(s0)
ffffffff80409892:	f10007b7          	lui	a5,0xf1000
ffffffff80409896:	10778793          	addi	a5,a5,263 # fffffffff1000107 <__BSS_END__+0x70bd89a7>
ffffffff8040989a:	0792                	slli	a5,a5,0x4
ffffffff8040989c:	fe842703          	lw	a4,-24(s0)
ffffffff804098a0:	c398                	sw	a4,0(a5)
ffffffff804098a2:	e20007b7          	lui	a5,0xe2000
ffffffff804098a6:	20578793          	addi	a5,a5,517 # ffffffffe2000205 <__BSS_END__+0x61bd8aa5>
ffffffff804098aa:	078e                	slli	a5,a5,0x3
ffffffff804098ac:	6705                	lui	a4,0x1
ffffffff804098ae:	c398                	sw	a4,0(a5)
ffffffff804098b0:	f10007b7          	lui	a5,0xf1000
ffffffff804098b4:	10378793          	addi	a5,a5,259 # fffffffff1000103 <__BSS_END__+0x70bd89a3>
ffffffff804098b8:	0792                	slli	a5,a5,0x4
ffffffff804098ba:	0007a023          	sw	zero,0(a5)
ffffffff804098be:	c40007b7          	lui	a5,0xc4000
ffffffff804098c2:	40d78793          	addi	a5,a5,1037 # ffffffffc400040d <__BSS_END__+0x43bd8cad>
ffffffff804098c6:	078a                	slli	a5,a5,0x2
ffffffff804098c8:	439c                	lw	a5,0(a5)
ffffffff804098ca:	fcf42e23          	sw	a5,-36(s0)
ffffffff804098ce:	fdc42783          	lw	a5,-36(s0)
ffffffff804098d2:	2781                	sext.w	a5,a5
ffffffff804098d4:	ef89                	bnez	a5,ffffffff804098ee <virtio_disk_init+0x1d0>
ffffffff804098d6:	00004617          	auipc	a2,0x4
ffffffff804098da:	60260613          	addi	a2,a2,1538 # ffffffff8040ded8 <__FUNCTION__.2252>
ffffffff804098de:	06400593          	li	a1,100
ffffffff804098e2:	00004517          	auipc	a0,0x4
ffffffff804098e6:	5d650513          	addi	a0,a0,1494 # ffffffff8040deb8 <spi+0x48>
ffffffff804098ea:	de7ff0ef          	jal	ra,ffffffff804096d0 <_panic>
ffffffff804098ee:	fdc42783          	lw	a5,-36(s0)
ffffffff804098f2:	0007871b          	sext.w	a4,a5
ffffffff804098f6:	479d                	li	a5,7
ffffffff804098f8:	00e7ee63          	bltu	a5,a4,ffffffff80409914 <virtio_disk_init+0x1f6>
ffffffff804098fc:	00004617          	auipc	a2,0x4
ffffffff80409900:	5dc60613          	addi	a2,a2,1500 # ffffffff8040ded8 <__FUNCTION__.2252>
ffffffff80409904:	06600593          	li	a1,102
ffffffff80409908:	00004517          	auipc	a0,0x4
ffffffff8040990c:	5b050513          	addi	a0,a0,1456 # ffffffff8040deb8 <spi+0x48>
ffffffff80409910:	dc1ff0ef          	jal	ra,ffffffff804096d0 <_panic>
ffffffff80409914:	e20007b7          	lui	a5,0xe2000
ffffffff80409918:	20778793          	addi	a5,a5,519 # ffffffffe2000207 <__BSS_END__+0x61bd8aa7>
ffffffff8040991c:	078e                	slli	a5,a5,0x3
ffffffff8040991e:	4721                	li	a4,8
ffffffff80409920:	c398                	sw	a4,0(a5)
ffffffff80409922:	6609                	lui	a2,0x2
ffffffff80409924:	4581                	li	a1,0
ffffffff80409926:	00012517          	auipc	a0,0x12
ffffffff8040992a:	6da50513          	addi	a0,a0,1754 # ffffffff8041c000 <disk>
ffffffff8040992e:	c06fc0ef          	jal	ra,ffffffff80405d34 <memset>
ffffffff80409932:	00012797          	auipc	a5,0x12
ffffffff80409936:	6ce78793          	addi	a5,a5,1742 # ffffffff8041c000 <disk>
ffffffff8040993a:	00c7d713          	srli	a4,a5,0xc
ffffffff8040993e:	fc4007b7          	lui	a5,0xfc400
ffffffff80409942:	04178793          	addi	a5,a5,65 # fffffffffc400041 <__BSS_END__+0x7bfd88e1>
ffffffff80409946:	079a                	slli	a5,a5,0x6
ffffffff80409948:	2701                	sext.w	a4,a4
ffffffff8040994a:	c398                	sw	a4,0(a5)
ffffffff8040994c:	00012717          	auipc	a4,0x12
ffffffff80409950:	6b470713          	addi	a4,a4,1716 # ffffffff8041c000 <disk>
ffffffff80409954:	6789                	lui	a5,0x2
ffffffff80409956:	97ba                	add	a5,a5,a4
ffffffff80409958:	00012717          	auipc	a4,0x12
ffffffff8040995c:	6a870713          	addi	a4,a4,1704 # ffffffff8041c000 <disk>
ffffffff80409960:	e398                	sd	a4,0(a5)
ffffffff80409962:	00012717          	auipc	a4,0x12
ffffffff80409966:	69e70713          	addi	a4,a4,1694 # ffffffff8041c000 <disk>
ffffffff8040996a:	6789                	lui	a5,0x2
ffffffff8040996c:	97ba                	add	a5,a5,a4
ffffffff8040996e:	639c                	ld	a5,0(a5)
ffffffff80409970:	08078713          	addi	a4,a5,128 # 2080 <_start-0xffffffff803fdf80>
ffffffff80409974:	00012697          	auipc	a3,0x12
ffffffff80409978:	68c68693          	addi	a3,a3,1676 # ffffffff8041c000 <disk>
ffffffff8040997c:	6789                	lui	a5,0x2
ffffffff8040997e:	97b6                	add	a5,a5,a3
ffffffff80409980:	e798                	sd	a4,8(a5)
ffffffff80409982:	00013717          	auipc	a4,0x13
ffffffff80409986:	67e70713          	addi	a4,a4,1662 # ffffffff8041d000 <disk+0x1000>
ffffffff8040998a:	00012697          	auipc	a3,0x12
ffffffff8040998e:	67668693          	addi	a3,a3,1654 # ffffffff8041c000 <disk>
ffffffff80409992:	6789                	lui	a5,0x2
ffffffff80409994:	97b6                	add	a5,a5,a3
ffffffff80409996:	eb98                	sd	a4,16(a5)
ffffffff80409998:	fe042623          	sw	zero,-20(s0)
ffffffff8040999c:	a015                	j	ffffffff804099c0 <virtio_disk_init+0x2a2>
ffffffff8040999e:	00012717          	auipc	a4,0x12
ffffffff804099a2:	66270713          	addi	a4,a4,1634 # ffffffff8041c000 <disk>
ffffffff804099a6:	fec42783          	lw	a5,-20(s0)
ffffffff804099aa:	97ba                	add	a5,a5,a4
ffffffff804099ac:	6709                	lui	a4,0x2
ffffffff804099ae:	97ba                	add	a5,a5,a4
ffffffff804099b0:	4705                	li	a4,1
ffffffff804099b2:	00e78c23          	sb	a4,24(a5) # 2018 <_start-0xffffffff803fdfe8>
ffffffff804099b6:	fec42783          	lw	a5,-20(s0)
ffffffff804099ba:	2785                	addiw	a5,a5,1
ffffffff804099bc:	fef42623          	sw	a5,-20(s0)
ffffffff804099c0:	fec42783          	lw	a5,-20(s0)
ffffffff804099c4:	0007871b          	sext.w	a4,a5
ffffffff804099c8:	479d                	li	a5,7
ffffffff804099ca:	fce7dae3          	bge	a5,a4,ffffffff8040999e <virtio_disk_init+0x280>
ffffffff804099ce:	0001                	nop
ffffffff804099d0:	70a2                	ld	ra,40(sp)
ffffffff804099d2:	7402                	ld	s0,32(sp)
ffffffff804099d4:	6145                	addi	sp,sp,48
ffffffff804099d6:	8082                	ret

ffffffff804099d8 <alloc_desc>:
ffffffff804099d8:	1101                	addi	sp,sp,-32
ffffffff804099da:	ec22                	sd	s0,24(sp)
ffffffff804099dc:	1000                	addi	s0,sp,32
ffffffff804099de:	fe042623          	sw	zero,-20(s0)
ffffffff804099e2:	a081                	j	ffffffff80409a22 <alloc_desc+0x4a>
ffffffff804099e4:	00012717          	auipc	a4,0x12
ffffffff804099e8:	61c70713          	addi	a4,a4,1564 # ffffffff8041c000 <disk>
ffffffff804099ec:	fec42783          	lw	a5,-20(s0)
ffffffff804099f0:	97ba                	add	a5,a5,a4
ffffffff804099f2:	6709                	lui	a4,0x2
ffffffff804099f4:	97ba                	add	a5,a5,a4
ffffffff804099f6:	0187c783          	lbu	a5,24(a5)
ffffffff804099fa:	cf99                	beqz	a5,ffffffff80409a18 <alloc_desc+0x40>
ffffffff804099fc:	00012717          	auipc	a4,0x12
ffffffff80409a00:	60470713          	addi	a4,a4,1540 # ffffffff8041c000 <disk>
ffffffff80409a04:	fec42783          	lw	a5,-20(s0)
ffffffff80409a08:	97ba                	add	a5,a5,a4
ffffffff80409a0a:	6709                	lui	a4,0x2
ffffffff80409a0c:	97ba                	add	a5,a5,a4
ffffffff80409a0e:	00078c23          	sb	zero,24(a5)
ffffffff80409a12:	fec42783          	lw	a5,-20(s0)
ffffffff80409a16:	a831                	j	ffffffff80409a32 <alloc_desc+0x5a>
ffffffff80409a18:	fec42783          	lw	a5,-20(s0)
ffffffff80409a1c:	2785                	addiw	a5,a5,1
ffffffff80409a1e:	fef42623          	sw	a5,-20(s0)
ffffffff80409a22:	fec42783          	lw	a5,-20(s0)
ffffffff80409a26:	0007871b          	sext.w	a4,a5
ffffffff80409a2a:	479d                	li	a5,7
ffffffff80409a2c:	fae7dce3          	bge	a5,a4,ffffffff804099e4 <alloc_desc+0xc>
ffffffff80409a30:	57fd                	li	a5,-1
ffffffff80409a32:	853e                	mv	a0,a5
ffffffff80409a34:	6462                	ld	s0,24(sp)
ffffffff80409a36:	6105                	addi	sp,sp,32
ffffffff80409a38:	8082                	ret

ffffffff80409a3a <free_desc>:
ffffffff80409a3a:	1101                	addi	sp,sp,-32
ffffffff80409a3c:	ec06                	sd	ra,24(sp)
ffffffff80409a3e:	e822                	sd	s0,16(sp)
ffffffff80409a40:	1000                	addi	s0,sp,32
ffffffff80409a42:	87aa                	mv	a5,a0
ffffffff80409a44:	fef42623          	sw	a5,-20(s0)
ffffffff80409a48:	fec42783          	lw	a5,-20(s0)
ffffffff80409a4c:	0007871b          	sext.w	a4,a5
ffffffff80409a50:	479d                	li	a5,7
ffffffff80409a52:	00e7de63          	bge	a5,a4,ffffffff80409a6e <free_desc+0x34>
ffffffff80409a56:	00004617          	auipc	a2,0x4
ffffffff80409a5a:	49a60613          	addi	a2,a2,1178 # ffffffff8040def0 <__FUNCTION__.2268>
ffffffff80409a5e:	08b00593          	li	a1,139
ffffffff80409a62:	00004517          	auipc	a0,0x4
ffffffff80409a66:	45650513          	addi	a0,a0,1110 # ffffffff8040deb8 <spi+0x48>
ffffffff80409a6a:	c67ff0ef          	jal	ra,ffffffff804096d0 <_panic>
ffffffff80409a6e:	00012717          	auipc	a4,0x12
ffffffff80409a72:	59270713          	addi	a4,a4,1426 # ffffffff8041c000 <disk>
ffffffff80409a76:	fec42783          	lw	a5,-20(s0)
ffffffff80409a7a:	97ba                	add	a5,a5,a4
ffffffff80409a7c:	6709                	lui	a4,0x2
ffffffff80409a7e:	97ba                	add	a5,a5,a4
ffffffff80409a80:	0187c783          	lbu	a5,24(a5)
ffffffff80409a84:	cf89                	beqz	a5,ffffffff80409a9e <free_desc+0x64>
ffffffff80409a86:	00004617          	auipc	a2,0x4
ffffffff80409a8a:	46a60613          	addi	a2,a2,1130 # ffffffff8040def0 <__FUNCTION__.2268>
ffffffff80409a8e:	08e00593          	li	a1,142
ffffffff80409a92:	00004517          	auipc	a0,0x4
ffffffff80409a96:	42650513          	addi	a0,a0,1062 # ffffffff8040deb8 <spi+0x48>
ffffffff80409a9a:	c37ff0ef          	jal	ra,ffffffff804096d0 <_panic>
ffffffff80409a9e:	00012717          	auipc	a4,0x12
ffffffff80409aa2:	56270713          	addi	a4,a4,1378 # ffffffff8041c000 <disk>
ffffffff80409aa6:	6789                	lui	a5,0x2
ffffffff80409aa8:	97ba                	add	a5,a5,a4
ffffffff80409aaa:	6398                	ld	a4,0(a5)
ffffffff80409aac:	fec42783          	lw	a5,-20(s0)
ffffffff80409ab0:	0792                	slli	a5,a5,0x4
ffffffff80409ab2:	97ba                	add	a5,a5,a4
ffffffff80409ab4:	0007b023          	sd	zero,0(a5) # 2000 <_start-0xffffffff803fe000>
ffffffff80409ab8:	00012717          	auipc	a4,0x12
ffffffff80409abc:	54870713          	addi	a4,a4,1352 # ffffffff8041c000 <disk>
ffffffff80409ac0:	fec42783          	lw	a5,-20(s0)
ffffffff80409ac4:	97ba                	add	a5,a5,a4
ffffffff80409ac6:	6709                	lui	a4,0x2
ffffffff80409ac8:	97ba                	add	a5,a5,a4
ffffffff80409aca:	4705                	li	a4,1
ffffffff80409acc:	00e78c23          	sb	a4,24(a5)
ffffffff80409ad0:	00005797          	auipc	a5,0x5
ffffffff80409ad4:	b9078793          	addi	a5,a5,-1136 # ffffffff8040e660 <fileop_queue>
ffffffff80409ad8:	639c                	ld	a5,0(a5)
ffffffff80409ada:	853e                	mv	a0,a5
ffffffff80409adc:	f4af90ef          	jal	ra,ffffffff80403226 <do_unblock>
ffffffff80409ae0:	0001                	nop
ffffffff80409ae2:	60e2                	ld	ra,24(sp)
ffffffff80409ae4:	6442                	ld	s0,16(sp)
ffffffff80409ae6:	6105                	addi	sp,sp,32
ffffffff80409ae8:	8082                	ret

ffffffff80409aea <free_chain>:
ffffffff80409aea:	1101                	addi	sp,sp,-32
ffffffff80409aec:	ec06                	sd	ra,24(sp)
ffffffff80409aee:	e822                	sd	s0,16(sp)
ffffffff80409af0:	1000                	addi	s0,sp,32
ffffffff80409af2:	87aa                	mv	a5,a0
ffffffff80409af4:	fef42623          	sw	a5,-20(s0)
ffffffff80409af8:	fec42783          	lw	a5,-20(s0)
ffffffff80409afc:	853e                	mv	a0,a5
ffffffff80409afe:	f3dff0ef          	jal	ra,ffffffff80409a3a <free_desc>
ffffffff80409b02:	00012717          	auipc	a4,0x12
ffffffff80409b06:	4fe70713          	addi	a4,a4,1278 # ffffffff8041c000 <disk>
ffffffff80409b0a:	6789                	lui	a5,0x2
ffffffff80409b0c:	97ba                	add	a5,a5,a4
ffffffff80409b0e:	6398                	ld	a4,0(a5)
ffffffff80409b10:	fec42783          	lw	a5,-20(s0)
ffffffff80409b14:	0792                	slli	a5,a5,0x4
ffffffff80409b16:	97ba                	add	a5,a5,a4
ffffffff80409b18:	00c7d783          	lhu	a5,12(a5) # 200c <_start-0xffffffff803fdff4>
ffffffff80409b1c:	2781                	sext.w	a5,a5
ffffffff80409b1e:	8b85                	andi	a5,a5,1
ffffffff80409b20:	2781                	sext.w	a5,a5
ffffffff80409b22:	c38d                	beqz	a5,ffffffff80409b44 <free_chain+0x5a>
ffffffff80409b24:	00012717          	auipc	a4,0x12
ffffffff80409b28:	4dc70713          	addi	a4,a4,1244 # ffffffff8041c000 <disk>
ffffffff80409b2c:	6789                	lui	a5,0x2
ffffffff80409b2e:	97ba                	add	a5,a5,a4
ffffffff80409b30:	6398                	ld	a4,0(a5)
ffffffff80409b32:	fec42783          	lw	a5,-20(s0)
ffffffff80409b36:	0792                	slli	a5,a5,0x4
ffffffff80409b38:	97ba                	add	a5,a5,a4
ffffffff80409b3a:	00e7d783          	lhu	a5,14(a5) # 200e <_start-0xffffffff803fdff2>
ffffffff80409b3e:	fef42623          	sw	a5,-20(s0)
ffffffff80409b42:	bf5d                	j	ffffffff80409af8 <free_chain+0xe>
ffffffff80409b44:	0001                	nop
ffffffff80409b46:	0001                	nop
ffffffff80409b48:	60e2                	ld	ra,24(sp)
ffffffff80409b4a:	6442                	ld	s0,16(sp)
ffffffff80409b4c:	6105                	addi	sp,sp,32
ffffffff80409b4e:	8082                	ret

ffffffff80409b50 <alloc3_desc>:
ffffffff80409b50:	7139                	addi	sp,sp,-64
ffffffff80409b52:	fc06                	sd	ra,56(sp)
ffffffff80409b54:	f822                	sd	s0,48(sp)
ffffffff80409b56:	f426                	sd	s1,40(sp)
ffffffff80409b58:	0080                	addi	s0,sp,64
ffffffff80409b5a:	fca43423          	sd	a0,-56(s0)
ffffffff80409b5e:	fc042e23          	sw	zero,-36(s0)
ffffffff80409b62:	a0b5                	j	ffffffff80409bce <alloc3_desc+0x7e>
ffffffff80409b64:	fdc42783          	lw	a5,-36(s0)
ffffffff80409b68:	078a                	slli	a5,a5,0x2
ffffffff80409b6a:	fc843703          	ld	a4,-56(s0)
ffffffff80409b6e:	00f704b3          	add	s1,a4,a5
ffffffff80409b72:	e67ff0ef          	jal	ra,ffffffff804099d8 <alloc_desc>
ffffffff80409b76:	87aa                	mv	a5,a0
ffffffff80409b78:	c09c                	sw	a5,0(s1)
ffffffff80409b7a:	fdc42783          	lw	a5,-36(s0)
ffffffff80409b7e:	078a                	slli	a5,a5,0x2
ffffffff80409b80:	fc843703          	ld	a4,-56(s0)
ffffffff80409b84:	97ba                	add	a5,a5,a4
ffffffff80409b86:	439c                	lw	a5,0(a5)
ffffffff80409b88:	0207de63          	bgez	a5,ffffffff80409bc4 <alloc3_desc+0x74>
ffffffff80409b8c:	fc042c23          	sw	zero,-40(s0)
ffffffff80409b90:	a005                	j	ffffffff80409bb0 <alloc3_desc+0x60>
ffffffff80409b92:	fd842783          	lw	a5,-40(s0)
ffffffff80409b96:	078a                	slli	a5,a5,0x2
ffffffff80409b98:	fc843703          	ld	a4,-56(s0)
ffffffff80409b9c:	97ba                	add	a5,a5,a4
ffffffff80409b9e:	439c                	lw	a5,0(a5)
ffffffff80409ba0:	853e                	mv	a0,a5
ffffffff80409ba2:	e99ff0ef          	jal	ra,ffffffff80409a3a <free_desc>
ffffffff80409ba6:	fd842783          	lw	a5,-40(s0)
ffffffff80409baa:	2785                	addiw	a5,a5,1
ffffffff80409bac:	fcf42c23          	sw	a5,-40(s0)
ffffffff80409bb0:	fd842703          	lw	a4,-40(s0)
ffffffff80409bb4:	fdc42783          	lw	a5,-36(s0)
ffffffff80409bb8:	2701                	sext.w	a4,a4
ffffffff80409bba:	2781                	sext.w	a5,a5
ffffffff80409bbc:	fcf74be3          	blt	a4,a5,ffffffff80409b92 <alloc3_desc+0x42>
ffffffff80409bc0:	57fd                	li	a5,-1
ffffffff80409bc2:	a831                	j	ffffffff80409bde <alloc3_desc+0x8e>
ffffffff80409bc4:	fdc42783          	lw	a5,-36(s0)
ffffffff80409bc8:	2785                	addiw	a5,a5,1
ffffffff80409bca:	fcf42e23          	sw	a5,-36(s0)
ffffffff80409bce:	fdc42783          	lw	a5,-36(s0)
ffffffff80409bd2:	0007871b          	sext.w	a4,a5
ffffffff80409bd6:	4789                	li	a5,2
ffffffff80409bd8:	f8e7d6e3          	bge	a5,a4,ffffffff80409b64 <alloc3_desc+0x14>
ffffffff80409bdc:	4781                	li	a5,0
ffffffff80409bde:	853e                	mv	a0,a5
ffffffff80409be0:	70e2                	ld	ra,56(sp)
ffffffff80409be2:	7442                	ld	s0,48(sp)
ffffffff80409be4:	74a2                	ld	s1,40(sp)
ffffffff80409be6:	6121                	addi	sp,sp,64
ffffffff80409be8:	8082                	ret

ffffffff80409bea <virtio_disk_rw>:
ffffffff80409bea:	711d                	addi	sp,sp,-96
ffffffff80409bec:	ec86                	sd	ra,88(sp)
ffffffff80409bee:	e8a2                	sd	s0,80(sp)
ffffffff80409bf0:	e4a6                	sd	s1,72(sp)
ffffffff80409bf2:	1080                	addi	s0,sp,96
ffffffff80409bf4:	faa43423          	sd	a0,-88(s0)
ffffffff80409bf8:	87ae                	mv	a5,a1
ffffffff80409bfa:	faf42223          	sw	a5,-92(s0)
ffffffff80409bfe:	fa843783          	ld	a5,-88(s0)
ffffffff80409c02:	47dc                	lw	a5,12(a5)
ffffffff80409c04:	1782                	slli	a5,a5,0x20
ffffffff80409c06:	9381                	srli	a5,a5,0x20
ffffffff80409c08:	fcf43c23          	sd	a5,-40(s0)
ffffffff80409c0c:	fc840793          	addi	a5,s0,-56
ffffffff80409c10:	853e                	mv	a0,a5
ffffffff80409c12:	f3fff0ef          	jal	ra,ffffffff80409b50 <alloc3_desc>
ffffffff80409c16:	87aa                	mv	a5,a0
ffffffff80409c18:	c395                	beqz	a5,ffffffff80409c3c <virtio_disk_rw+0x52>
ffffffff80409c1a:	00016797          	auipc	a5,0x16
ffffffff80409c1e:	e6e78793          	addi	a5,a5,-402 # ffffffff8041fa88 <current_running>
ffffffff80409c22:	639c                	ld	a5,0(a5)
ffffffff80409c24:	02878793          	addi	a5,a5,40
ffffffff80409c28:	00005597          	auipc	a1,0x5
ffffffff80409c2c:	a3858593          	addi	a1,a1,-1480 # ffffffff8040e660 <fileop_queue>
ffffffff80409c30:	853e                	mv	a0,a5
ffffffff80409c32:	dbaf90ef          	jal	ra,ffffffff804031ec <do_block>
ffffffff80409c36:	e15f80ef          	jal	ra,ffffffff80402a4a <do_scheduler>
ffffffff80409c3a:	bfc9                	j	ffffffff80409c0c <virtio_disk_rw+0x22>
ffffffff80409c3c:	0001                	nop
ffffffff80409c3e:	fa442783          	lw	a5,-92(s0)
ffffffff80409c42:	2781                	sext.w	a5,a5
ffffffff80409c44:	c789                	beqz	a5,ffffffff80409c4e <virtio_disk_rw+0x64>
ffffffff80409c46:	4785                	li	a5,1
ffffffff80409c48:	faf42c23          	sw	a5,-72(s0)
ffffffff80409c4c:	a019                	j	ffffffff80409c52 <virtio_disk_rw+0x68>
ffffffff80409c4e:	fa042c23          	sw	zero,-72(s0)
ffffffff80409c52:	fa042e23          	sw	zero,-68(s0)
ffffffff80409c56:	fd843783          	ld	a5,-40(s0)
ffffffff80409c5a:	fcf43023          	sd	a5,-64(s0)
ffffffff80409c5e:	fb840693          	addi	a3,s0,-72
ffffffff80409c62:	00012717          	auipc	a4,0x12
ffffffff80409c66:	39e70713          	addi	a4,a4,926 # ffffffff8041c000 <disk>
ffffffff80409c6a:	6789                	lui	a5,0x2
ffffffff80409c6c:	97ba                	add	a5,a5,a4
ffffffff80409c6e:	6398                	ld	a4,0(a5)
ffffffff80409c70:	fc842783          	lw	a5,-56(s0)
ffffffff80409c74:	0792                	slli	a5,a5,0x4
ffffffff80409c76:	00f704b3          	add	s1,a4,a5
ffffffff80409c7a:	8536                	mv	a0,a3
ffffffff80409c7c:	a87ff0ef          	jal	ra,ffffffff80409702 <kva2pa>
ffffffff80409c80:	87aa                	mv	a5,a0
ffffffff80409c82:	e09c                	sd	a5,0(s1)
ffffffff80409c84:	00012717          	auipc	a4,0x12
ffffffff80409c88:	37c70713          	addi	a4,a4,892 # ffffffff8041c000 <disk>
ffffffff80409c8c:	6789                	lui	a5,0x2
ffffffff80409c8e:	97ba                	add	a5,a5,a4
ffffffff80409c90:	6398                	ld	a4,0(a5)
ffffffff80409c92:	fc842783          	lw	a5,-56(s0)
ffffffff80409c96:	0792                	slli	a5,a5,0x4
ffffffff80409c98:	97ba                	add	a5,a5,a4
ffffffff80409c9a:	4741                	li	a4,16
ffffffff80409c9c:	c798                	sw	a4,8(a5)
ffffffff80409c9e:	00012717          	auipc	a4,0x12
ffffffff80409ca2:	36270713          	addi	a4,a4,866 # ffffffff8041c000 <disk>
ffffffff80409ca6:	6789                	lui	a5,0x2
ffffffff80409ca8:	97ba                	add	a5,a5,a4
ffffffff80409caa:	6398                	ld	a4,0(a5)
ffffffff80409cac:	fc842783          	lw	a5,-56(s0)
ffffffff80409cb0:	0792                	slli	a5,a5,0x4
ffffffff80409cb2:	97ba                	add	a5,a5,a4
ffffffff80409cb4:	4705                	li	a4,1
ffffffff80409cb6:	00e79623          	sh	a4,12(a5) # 200c <_start-0xffffffff803fdff4>
ffffffff80409cba:	fcc42683          	lw	a3,-52(s0)
ffffffff80409cbe:	00012717          	auipc	a4,0x12
ffffffff80409cc2:	34270713          	addi	a4,a4,834 # ffffffff8041c000 <disk>
ffffffff80409cc6:	6789                	lui	a5,0x2
ffffffff80409cc8:	97ba                	add	a5,a5,a4
ffffffff80409cca:	6398                	ld	a4,0(a5)
ffffffff80409ccc:	fc842783          	lw	a5,-56(s0)
ffffffff80409cd0:	0792                	slli	a5,a5,0x4
ffffffff80409cd2:	97ba                	add	a5,a5,a4
ffffffff80409cd4:	03069713          	slli	a4,a3,0x30
ffffffff80409cd8:	9341                	srli	a4,a4,0x30
ffffffff80409cda:	00e79723          	sh	a4,14(a5) # 200e <_start-0xffffffff803fdff2>
ffffffff80409cde:	fa843783          	ld	a5,-88(s0)
ffffffff80409ce2:	05878693          	addi	a3,a5,88
ffffffff80409ce6:	00012717          	auipc	a4,0x12
ffffffff80409cea:	31a70713          	addi	a4,a4,794 # ffffffff8041c000 <disk>
ffffffff80409cee:	6789                	lui	a5,0x2
ffffffff80409cf0:	97ba                	add	a5,a5,a4
ffffffff80409cf2:	6398                	ld	a4,0(a5)
ffffffff80409cf4:	fcc42783          	lw	a5,-52(s0)
ffffffff80409cf8:	0792                	slli	a5,a5,0x4
ffffffff80409cfa:	97ba                	add	a5,a5,a4
ffffffff80409cfc:	8736                	mv	a4,a3
ffffffff80409cfe:	e398                	sd	a4,0(a5)
ffffffff80409d00:	00012717          	auipc	a4,0x12
ffffffff80409d04:	30070713          	addi	a4,a4,768 # ffffffff8041c000 <disk>
ffffffff80409d08:	6789                	lui	a5,0x2
ffffffff80409d0a:	97ba                	add	a5,a5,a4
ffffffff80409d0c:	6398                	ld	a4,0(a5)
ffffffff80409d0e:	fcc42783          	lw	a5,-52(s0)
ffffffff80409d12:	0792                	slli	a5,a5,0x4
ffffffff80409d14:	97ba                	add	a5,a5,a4
ffffffff80409d16:	20000713          	li	a4,512
ffffffff80409d1a:	c798                	sw	a4,8(a5)
ffffffff80409d1c:	fa442783          	lw	a5,-92(s0)
ffffffff80409d20:	2781                	sext.w	a5,a5
ffffffff80409d22:	cf99                	beqz	a5,ffffffff80409d40 <virtio_disk_rw+0x156>
ffffffff80409d24:	00012717          	auipc	a4,0x12
ffffffff80409d28:	2dc70713          	addi	a4,a4,732 # ffffffff8041c000 <disk>
ffffffff80409d2c:	6789                	lui	a5,0x2
ffffffff80409d2e:	97ba                	add	a5,a5,a4
ffffffff80409d30:	6398                	ld	a4,0(a5)
ffffffff80409d32:	fcc42783          	lw	a5,-52(s0)
ffffffff80409d36:	0792                	slli	a5,a5,0x4
ffffffff80409d38:	97ba                	add	a5,a5,a4
ffffffff80409d3a:	00079623          	sh	zero,12(a5) # 200c <_start-0xffffffff803fdff4>
ffffffff80409d3e:	a839                	j	ffffffff80409d5c <virtio_disk_rw+0x172>
ffffffff80409d40:	00012717          	auipc	a4,0x12
ffffffff80409d44:	2c070713          	addi	a4,a4,704 # ffffffff8041c000 <disk>
ffffffff80409d48:	6789                	lui	a5,0x2
ffffffff80409d4a:	97ba                	add	a5,a5,a4
ffffffff80409d4c:	6398                	ld	a4,0(a5)
ffffffff80409d4e:	fcc42783          	lw	a5,-52(s0)
ffffffff80409d52:	0792                	slli	a5,a5,0x4
ffffffff80409d54:	97ba                	add	a5,a5,a4
ffffffff80409d56:	4709                	li	a4,2
ffffffff80409d58:	00e79623          	sh	a4,12(a5) # 200c <_start-0xffffffff803fdff4>
ffffffff80409d5c:	00012717          	auipc	a4,0x12
ffffffff80409d60:	2a470713          	addi	a4,a4,676 # ffffffff8041c000 <disk>
ffffffff80409d64:	6789                	lui	a5,0x2
ffffffff80409d66:	97ba                	add	a5,a5,a4
ffffffff80409d68:	6398                	ld	a4,0(a5)
ffffffff80409d6a:	fcc42783          	lw	a5,-52(s0)
ffffffff80409d6e:	0792                	slli	a5,a5,0x4
ffffffff80409d70:	97ba                	add	a5,a5,a4
ffffffff80409d72:	00c7d703          	lhu	a4,12(a5) # 200c <_start-0xffffffff803fdff4>
ffffffff80409d76:	00012697          	auipc	a3,0x12
ffffffff80409d7a:	28a68693          	addi	a3,a3,650 # ffffffff8041c000 <disk>
ffffffff80409d7e:	6789                	lui	a5,0x2
ffffffff80409d80:	97b6                	add	a5,a5,a3
ffffffff80409d82:	6394                	ld	a3,0(a5)
ffffffff80409d84:	fcc42783          	lw	a5,-52(s0)
ffffffff80409d88:	0792                	slli	a5,a5,0x4
ffffffff80409d8a:	97b6                	add	a5,a5,a3
ffffffff80409d8c:	00176713          	ori	a4,a4,1
ffffffff80409d90:	1742                	slli	a4,a4,0x30
ffffffff80409d92:	9341                	srli	a4,a4,0x30
ffffffff80409d94:	00e79623          	sh	a4,12(a5) # 200c <_start-0xffffffff803fdff4>
ffffffff80409d98:	fd042683          	lw	a3,-48(s0)
ffffffff80409d9c:	00012717          	auipc	a4,0x12
ffffffff80409da0:	26470713          	addi	a4,a4,612 # ffffffff8041c000 <disk>
ffffffff80409da4:	6789                	lui	a5,0x2
ffffffff80409da6:	97ba                	add	a5,a5,a4
ffffffff80409da8:	6398                	ld	a4,0(a5)
ffffffff80409daa:	fcc42783          	lw	a5,-52(s0)
ffffffff80409dae:	0792                	slli	a5,a5,0x4
ffffffff80409db0:	97ba                	add	a5,a5,a4
ffffffff80409db2:	03069713          	slli	a4,a3,0x30
ffffffff80409db6:	9341                	srli	a4,a4,0x30
ffffffff80409db8:	00e79723          	sh	a4,14(a5) # 200e <_start-0xffffffff803fdff2>
ffffffff80409dbc:	fc842783          	lw	a5,-56(s0)
ffffffff80409dc0:	00012717          	auipc	a4,0x12
ffffffff80409dc4:	24070713          	addi	a4,a4,576 # ffffffff8041c000 <disk>
ffffffff80409dc8:	20078793          	addi	a5,a5,512
ffffffff80409dcc:	0792                	slli	a5,a5,0x4
ffffffff80409dce:	97ba                	add	a5,a5,a4
ffffffff80409dd0:	02078823          	sb	zero,48(a5)
ffffffff80409dd4:	fc842783          	lw	a5,-56(s0)
ffffffff80409dd8:	20078793          	addi	a5,a5,512
ffffffff80409ddc:	00479713          	slli	a4,a5,0x4
ffffffff80409de0:	00012797          	auipc	a5,0x12
ffffffff80409de4:	22078793          	addi	a5,a5,544 # ffffffff8041c000 <disk>
ffffffff80409de8:	97ba                	add	a5,a5,a4
ffffffff80409dea:	03078693          	addi	a3,a5,48
ffffffff80409dee:	00012717          	auipc	a4,0x12
ffffffff80409df2:	21270713          	addi	a4,a4,530 # ffffffff8041c000 <disk>
ffffffff80409df6:	6789                	lui	a5,0x2
ffffffff80409df8:	97ba                	add	a5,a5,a4
ffffffff80409dfa:	6398                	ld	a4,0(a5)
ffffffff80409dfc:	fd042783          	lw	a5,-48(s0)
ffffffff80409e00:	0792                	slli	a5,a5,0x4
ffffffff80409e02:	97ba                	add	a5,a5,a4
ffffffff80409e04:	8736                	mv	a4,a3
ffffffff80409e06:	e398                	sd	a4,0(a5)
ffffffff80409e08:	00012717          	auipc	a4,0x12
ffffffff80409e0c:	1f870713          	addi	a4,a4,504 # ffffffff8041c000 <disk>
ffffffff80409e10:	6789                	lui	a5,0x2
ffffffff80409e12:	97ba                	add	a5,a5,a4
ffffffff80409e14:	6398                	ld	a4,0(a5)
ffffffff80409e16:	fd042783          	lw	a5,-48(s0)
ffffffff80409e1a:	0792                	slli	a5,a5,0x4
ffffffff80409e1c:	97ba                	add	a5,a5,a4
ffffffff80409e1e:	4705                	li	a4,1
ffffffff80409e20:	c798                	sw	a4,8(a5)
ffffffff80409e22:	00012717          	auipc	a4,0x12
ffffffff80409e26:	1de70713          	addi	a4,a4,478 # ffffffff8041c000 <disk>
ffffffff80409e2a:	6789                	lui	a5,0x2
ffffffff80409e2c:	97ba                	add	a5,a5,a4
ffffffff80409e2e:	6398                	ld	a4,0(a5)
ffffffff80409e30:	fd042783          	lw	a5,-48(s0)
ffffffff80409e34:	0792                	slli	a5,a5,0x4
ffffffff80409e36:	97ba                	add	a5,a5,a4
ffffffff80409e38:	4709                	li	a4,2
ffffffff80409e3a:	00e79623          	sh	a4,12(a5) # 200c <_start-0xffffffff803fdff4>
ffffffff80409e3e:	00012717          	auipc	a4,0x12
ffffffff80409e42:	1c270713          	addi	a4,a4,450 # ffffffff8041c000 <disk>
ffffffff80409e46:	6789                	lui	a5,0x2
ffffffff80409e48:	97ba                	add	a5,a5,a4
ffffffff80409e4a:	6398                	ld	a4,0(a5)
ffffffff80409e4c:	fd042783          	lw	a5,-48(s0)
ffffffff80409e50:	0792                	slli	a5,a5,0x4
ffffffff80409e52:	97ba                	add	a5,a5,a4
ffffffff80409e54:	00079723          	sh	zero,14(a5) # 200e <_start-0xffffffff803fdff2>
ffffffff80409e58:	fa843783          	ld	a5,-88(s0)
ffffffff80409e5c:	4705                	li	a4,1
ffffffff80409e5e:	c3d8                	sw	a4,4(a5)
ffffffff80409e60:	fc842783          	lw	a5,-56(s0)
ffffffff80409e64:	00012717          	auipc	a4,0x12
ffffffff80409e68:	19c70713          	addi	a4,a4,412 # ffffffff8041c000 <disk>
ffffffff80409e6c:	20078793          	addi	a5,a5,512
ffffffff80409e70:	0792                	slli	a5,a5,0x4
ffffffff80409e72:	97ba                	add	a5,a5,a4
ffffffff80409e74:	fa843703          	ld	a4,-88(s0)
ffffffff80409e78:	f798                	sd	a4,40(a5)
ffffffff80409e7a:	fc842603          	lw	a2,-56(s0)
ffffffff80409e7e:	00012717          	auipc	a4,0x12
ffffffff80409e82:	18270713          	addi	a4,a4,386 # ffffffff8041c000 <disk>
ffffffff80409e86:	6789                	lui	a5,0x2
ffffffff80409e88:	97ba                	add	a5,a5,a4
ffffffff80409e8a:	6798                	ld	a4,8(a5)
ffffffff80409e8c:	00012697          	auipc	a3,0x12
ffffffff80409e90:	17468693          	addi	a3,a3,372 # ffffffff8041c000 <disk>
ffffffff80409e94:	6789                	lui	a5,0x2
ffffffff80409e96:	97b6                	add	a5,a5,a3
ffffffff80409e98:	679c                	ld	a5,8(a5)
ffffffff80409e9a:	0789                	addi	a5,a5,2
ffffffff80409e9c:	0007d783          	lhu	a5,0(a5) # 2000 <_start-0xffffffff803fe000>
ffffffff80409ea0:	2781                	sext.w	a5,a5
ffffffff80409ea2:	8b9d                	andi	a5,a5,7
ffffffff80409ea4:	2781                	sext.w	a5,a5
ffffffff80409ea6:	2789                	addiw	a5,a5,2
ffffffff80409ea8:	2781                	sext.w	a5,a5
ffffffff80409eaa:	0786                	slli	a5,a5,0x1
ffffffff80409eac:	97ba                	add	a5,a5,a4
ffffffff80409eae:	03061713          	slli	a4,a2,0x30
ffffffff80409eb2:	9341                	srli	a4,a4,0x30
ffffffff80409eb4:	00e79023          	sh	a4,0(a5)
ffffffff80409eb8:	0ff0000f          	fence
ffffffff80409ebc:	00012717          	auipc	a4,0x12
ffffffff80409ec0:	14470713          	addi	a4,a4,324 # ffffffff8041c000 <disk>
ffffffff80409ec4:	6789                	lui	a5,0x2
ffffffff80409ec6:	97ba                	add	a5,a5,a4
ffffffff80409ec8:	679c                	ld	a5,8(a5)
ffffffff80409eca:	0789                	addi	a5,a5,2
ffffffff80409ecc:	0007d703          	lhu	a4,0(a5) # 2000 <_start-0xffffffff803fe000>
ffffffff80409ed0:	00012697          	auipc	a3,0x12
ffffffff80409ed4:	13068693          	addi	a3,a3,304 # ffffffff8041c000 <disk>
ffffffff80409ed8:	6789                	lui	a5,0x2
ffffffff80409eda:	97b6                	add	a5,a5,a3
ffffffff80409edc:	679c                	ld	a5,8(a5)
ffffffff80409ede:	0789                	addi	a5,a5,2
ffffffff80409ee0:	2705                	addiw	a4,a4,1
ffffffff80409ee2:	1742                	slli	a4,a4,0x30
ffffffff80409ee4:	9341                	srli	a4,a4,0x30
ffffffff80409ee6:	00e79023          	sh	a4,0(a5) # 2000 <_start-0xffffffff803fe000>
ffffffff80409eea:	f10007b7          	lui	a5,0xf1000
ffffffff80409eee:	10578793          	addi	a5,a5,261 # fffffffff1000105 <__BSS_END__+0x70bd89a5>
ffffffff80409ef2:	0792                	slli	a5,a5,0x4
ffffffff80409ef4:	0007a023          	sw	zero,0(a5)
ffffffff80409ef8:	a00d                	j	ffffffff80409f1a <virtio_disk_rw+0x330>
ffffffff80409efa:	00016797          	auipc	a5,0x16
ffffffff80409efe:	b8e78793          	addi	a5,a5,-1138 # ffffffff8041fa88 <current_running>
ffffffff80409f02:	639c                	ld	a5,0(a5)
ffffffff80409f04:	02878793          	addi	a5,a5,40
ffffffff80409f08:	00004597          	auipc	a1,0x4
ffffffff80409f0c:	75858593          	addi	a1,a1,1880 # ffffffff8040e660 <fileop_queue>
ffffffff80409f10:	853e                	mv	a0,a5
ffffffff80409f12:	adaf90ef          	jal	ra,ffffffff804031ec <do_block>
ffffffff80409f16:	b35f80ef          	jal	ra,ffffffff80402a4a <do_scheduler>
ffffffff80409f1a:	fa843783          	ld	a5,-88(s0)
ffffffff80409f1e:	43dc                	lw	a5,4(a5)
ffffffff80409f20:	873e                	mv	a4,a5
ffffffff80409f22:	4785                	li	a5,1
ffffffff80409f24:	fcf70be3          	beq	a4,a5,ffffffff80409efa <virtio_disk_rw+0x310>
ffffffff80409f28:	fc842783          	lw	a5,-56(s0)
ffffffff80409f2c:	00012717          	auipc	a4,0x12
ffffffff80409f30:	0d470713          	addi	a4,a4,212 # ffffffff8041c000 <disk>
ffffffff80409f34:	20078793          	addi	a5,a5,512
ffffffff80409f38:	0792                	slli	a5,a5,0x4
ffffffff80409f3a:	97ba                	add	a5,a5,a4
ffffffff80409f3c:	0207b423          	sd	zero,40(a5)
ffffffff80409f40:	fc842783          	lw	a5,-56(s0)
ffffffff80409f44:	853e                	mv	a0,a5
ffffffff80409f46:	ba5ff0ef          	jal	ra,ffffffff80409aea <free_chain>
ffffffff80409f4a:	0001                	nop
ffffffff80409f4c:	60e6                	ld	ra,88(sp)
ffffffff80409f4e:	6446                	ld	s0,80(sp)
ffffffff80409f50:	64a6                	ld	s1,72(sp)
ffffffff80409f52:	6125                	addi	sp,sp,96
ffffffff80409f54:	8082                	ret

ffffffff80409f56 <virtio_disk_intr>:
ffffffff80409f56:	1101                	addi	sp,sp,-32
ffffffff80409f58:	ec06                	sd	ra,24(sp)
ffffffff80409f5a:	e822                	sd	s0,16(sp)
ffffffff80409f5c:	1000                	addi	s0,sp,32
ffffffff80409f5e:	a0e1                	j	ffffffff8040a026 <virtio_disk_intr+0xd0>
ffffffff80409f60:	00012717          	auipc	a4,0x12
ffffffff80409f64:	0a070713          	addi	a4,a4,160 # ffffffff8041c000 <disk>
ffffffff80409f68:	6789                	lui	a5,0x2
ffffffff80409f6a:	97ba                	add	a5,a5,a4
ffffffff80409f6c:	6b98                	ld	a4,16(a5)
ffffffff80409f6e:	00012697          	auipc	a3,0x12
ffffffff80409f72:	09268693          	addi	a3,a3,146 # ffffffff8041c000 <disk>
ffffffff80409f76:	6789                	lui	a5,0x2
ffffffff80409f78:	97b6                	add	a5,a5,a3
ffffffff80409f7a:	0207d783          	lhu	a5,32(a5) # 2020 <_start-0xffffffff803fdfe0>
ffffffff80409f7e:	2781                	sext.w	a5,a5
ffffffff80409f80:	078e                	slli	a5,a5,0x3
ffffffff80409f82:	97ba                	add	a5,a5,a4
ffffffff80409f84:	43dc                	lw	a5,4(a5)
ffffffff80409f86:	fef42623          	sw	a5,-20(s0)
ffffffff80409f8a:	00012717          	auipc	a4,0x12
ffffffff80409f8e:	07670713          	addi	a4,a4,118 # ffffffff8041c000 <disk>
ffffffff80409f92:	fec42783          	lw	a5,-20(s0)
ffffffff80409f96:	20078793          	addi	a5,a5,512
ffffffff80409f9a:	0792                	slli	a5,a5,0x4
ffffffff80409f9c:	97ba                	add	a5,a5,a4
ffffffff80409f9e:	0307c783          	lbu	a5,48(a5)
ffffffff80409fa2:	cf89                	beqz	a5,ffffffff80409fbc <virtio_disk_intr+0x66>
ffffffff80409fa4:	00004617          	auipc	a2,0x4
ffffffff80409fa8:	f5c60613          	addi	a2,a2,-164 # ffffffff8040df00 <__FUNCTION__.2304>
ffffffff80409fac:	11100593          	li	a1,273
ffffffff80409fb0:	00004517          	auipc	a0,0x4
ffffffff80409fb4:	f0850513          	addi	a0,a0,-248 # ffffffff8040deb8 <spi+0x48>
ffffffff80409fb8:	f18ff0ef          	jal	ra,ffffffff804096d0 <_panic>
ffffffff80409fbc:	00012717          	auipc	a4,0x12
ffffffff80409fc0:	04470713          	addi	a4,a4,68 # ffffffff8041c000 <disk>
ffffffff80409fc4:	fec42783          	lw	a5,-20(s0)
ffffffff80409fc8:	20078793          	addi	a5,a5,512
ffffffff80409fcc:	0792                	slli	a5,a5,0x4
ffffffff80409fce:	97ba                	add	a5,a5,a4
ffffffff80409fd0:	779c                	ld	a5,40(a5)
ffffffff80409fd2:	0007a223          	sw	zero,4(a5)
ffffffff80409fd6:	00004797          	auipc	a5,0x4
ffffffff80409fda:	68a78793          	addi	a5,a5,1674 # ffffffff8040e660 <fileop_queue>
ffffffff80409fde:	639c                	ld	a5,0(a5)
ffffffff80409fe0:	853e                	mv	a0,a5
ffffffff80409fe2:	a44f90ef          	jal	ra,ffffffff80403226 <do_unblock>
ffffffff80409fe6:	00012717          	auipc	a4,0x12
ffffffff80409fea:	01a70713          	addi	a4,a4,26 # ffffffff8041c000 <disk>
ffffffff80409fee:	6789                	lui	a5,0x2
ffffffff80409ff0:	97ba                	add	a5,a5,a4
ffffffff80409ff2:	0207d783          	lhu	a5,32(a5) # 2020 <_start-0xffffffff803fdfe0>
ffffffff80409ff6:	2781                	sext.w	a5,a5
ffffffff80409ff8:	2785                	addiw	a5,a5,1
ffffffff80409ffa:	2781                	sext.w	a5,a5
ffffffff80409ffc:	873e                	mv	a4,a5
ffffffff80409ffe:	41f7579b          	sraiw	a5,a4,0x1f
ffffffff8040a002:	01d7d79b          	srliw	a5,a5,0x1d
ffffffff8040a006:	9f3d                	addw	a4,a4,a5
ffffffff8040a008:	8b1d                	andi	a4,a4,7
ffffffff8040a00a:	40f707bb          	subw	a5,a4,a5
ffffffff8040a00e:	2781                	sext.w	a5,a5
ffffffff8040a010:	03079713          	slli	a4,a5,0x30
ffffffff8040a014:	9341                	srli	a4,a4,0x30
ffffffff8040a016:	00012697          	auipc	a3,0x12
ffffffff8040a01a:	fea68693          	addi	a3,a3,-22 # ffffffff8041c000 <disk>
ffffffff8040a01e:	6789                	lui	a5,0x2
ffffffff8040a020:	97b6                	add	a5,a5,a3
ffffffff8040a022:	02e79023          	sh	a4,32(a5) # 2020 <_start-0xffffffff803fdfe0>
ffffffff8040a026:	00012717          	auipc	a4,0x12
ffffffff8040a02a:	fda70713          	addi	a4,a4,-38 # ffffffff8041c000 <disk>
ffffffff8040a02e:	6789                	lui	a5,0x2
ffffffff8040a030:	97ba                	add	a5,a5,a4
ffffffff8040a032:	0207d703          	lhu	a4,32(a5) # 2020 <_start-0xffffffff803fdfe0>
ffffffff8040a036:	00012697          	auipc	a3,0x12
ffffffff8040a03a:	fca68693          	addi	a3,a3,-54 # ffffffff8041c000 <disk>
ffffffff8040a03e:	6789                	lui	a5,0x2
ffffffff8040a040:	97b6                	add	a5,a5,a3
ffffffff8040a042:	6b9c                	ld	a5,16(a5)
ffffffff8040a044:	0027d783          	lhu	a5,2(a5) # 2002 <_start-0xffffffff803fdffe>
ffffffff8040a048:	8fb9                	xor	a5,a5,a4
ffffffff8040a04a:	17c2                	slli	a5,a5,0x30
ffffffff8040a04c:	93c1                	srli	a5,a5,0x30
ffffffff8040a04e:	8b9d                	andi	a5,a5,7
ffffffff8040a050:	17c2                	slli	a5,a5,0x30
ffffffff8040a052:	93c1                	srli	a5,a5,0x30
ffffffff8040a054:	f791                	bnez	a5,ffffffff80409f60 <virtio_disk_intr+0xa>
ffffffff8040a056:	f88007b7          	lui	a5,0xf8800
ffffffff8040a05a:	08378793          	addi	a5,a5,131 # fffffffff8800083 <__BSS_END__+0x783d8923>
ffffffff8040a05e:	0796                	slli	a5,a5,0x5
ffffffff8040a060:	439c                	lw	a5,0(a5)
ffffffff8040a062:	0007871b          	sext.w	a4,a5
ffffffff8040a066:	c40007b7          	lui	a5,0xc4000
ffffffff8040a06a:	41978793          	addi	a5,a5,1049 # ffffffffc4000419 <__BSS_END__+0x43bd8cb9>
ffffffff8040a06e:	078a                	slli	a5,a5,0x2
ffffffff8040a070:	8b0d                	andi	a4,a4,3
ffffffff8040a072:	2701                	sext.w	a4,a4
ffffffff8040a074:	c398                	sw	a4,0(a5)
ffffffff8040a076:	0001                	nop
ffffffff8040a078:	60e2                	ld	ra,24(sp)
ffffffff8040a07a:	6442                	ld	s0,16(sp)
ffffffff8040a07c:	6105                	addi	sp,sp,32
ffffffff8040a07e:	8082                	ret

ffffffff8040a080 <init_list_head>:
ffffffff8040a080:	1101                	addi	sp,sp,-32
ffffffff8040a082:	ec22                	sd	s0,24(sp)
ffffffff8040a084:	1000                	addi	s0,sp,32
ffffffff8040a086:	fea43423          	sd	a0,-24(s0)
ffffffff8040a08a:	fe843783          	ld	a5,-24(s0)
ffffffff8040a08e:	fe843703          	ld	a4,-24(s0)
ffffffff8040a092:	e398                	sd	a4,0(a5)
ffffffff8040a094:	fe843783          	ld	a5,-24(s0)
ffffffff8040a098:	fe843703          	ld	a4,-24(s0)
ffffffff8040a09c:	e798                	sd	a4,8(a5)
ffffffff8040a09e:	0001                	nop
ffffffff8040a0a0:	6462                	ld	s0,24(sp)
ffffffff8040a0a2:	6105                	addi	sp,sp,32
ffffffff8040a0a4:	8082                	ret

ffffffff8040a0a6 <_list_add>:
ffffffff8040a0a6:	7179                	addi	sp,sp,-48
ffffffff8040a0a8:	f422                	sd	s0,40(sp)
ffffffff8040a0aa:	1800                	addi	s0,sp,48
ffffffff8040a0ac:	fea43423          	sd	a0,-24(s0)
ffffffff8040a0b0:	feb43023          	sd	a1,-32(s0)
ffffffff8040a0b4:	fcc43c23          	sd	a2,-40(s0)
ffffffff8040a0b8:	fd843783          	ld	a5,-40(s0)
ffffffff8040a0bc:	fe843703          	ld	a4,-24(s0)
ffffffff8040a0c0:	e798                	sd	a4,8(a5)
ffffffff8040a0c2:	fe843783          	ld	a5,-24(s0)
ffffffff8040a0c6:	fd843703          	ld	a4,-40(s0)
ffffffff8040a0ca:	e398                	sd	a4,0(a5)
ffffffff8040a0cc:	fe843783          	ld	a5,-24(s0)
ffffffff8040a0d0:	fe043703          	ld	a4,-32(s0)
ffffffff8040a0d4:	e798                	sd	a4,8(a5)
ffffffff8040a0d6:	fe043783          	ld	a5,-32(s0)
ffffffff8040a0da:	fe843703          	ld	a4,-24(s0)
ffffffff8040a0de:	e398                	sd	a4,0(a5)
ffffffff8040a0e0:	0001                	nop
ffffffff8040a0e2:	7422                	ld	s0,40(sp)
ffffffff8040a0e4:	6145                	addi	sp,sp,48
ffffffff8040a0e6:	8082                	ret

ffffffff8040a0e8 <_list_del>:
ffffffff8040a0e8:	1101                	addi	sp,sp,-32
ffffffff8040a0ea:	ec22                	sd	s0,24(sp)
ffffffff8040a0ec:	1000                	addi	s0,sp,32
ffffffff8040a0ee:	fea43423          	sd	a0,-24(s0)
ffffffff8040a0f2:	feb43023          	sd	a1,-32(s0)
ffffffff8040a0f6:	fe043783          	ld	a5,-32(s0)
ffffffff8040a0fa:	fe843703          	ld	a4,-24(s0)
ffffffff8040a0fe:	e798                	sd	a4,8(a5)
ffffffff8040a100:	fe843783          	ld	a5,-24(s0)
ffffffff8040a104:	fe043703          	ld	a4,-32(s0)
ffffffff8040a108:	e398                	sd	a4,0(a5)
ffffffff8040a10a:	0001                	nop
ffffffff8040a10c:	6462                	ld	s0,24(sp)
ffffffff8040a10e:	6105                	addi	sp,sp,32
ffffffff8040a110:	8082                	ret

ffffffff8040a112 <list_del>:
ffffffff8040a112:	1101                	addi	sp,sp,-32
ffffffff8040a114:	ec06                	sd	ra,24(sp)
ffffffff8040a116:	e822                	sd	s0,16(sp)
ffffffff8040a118:	1000                	addi	s0,sp,32
ffffffff8040a11a:	fea43423          	sd	a0,-24(s0)
ffffffff8040a11e:	fe843783          	ld	a5,-24(s0)
ffffffff8040a122:	679c                	ld	a5,8(a5)
ffffffff8040a124:	c79d                	beqz	a5,ffffffff8040a152 <list_del+0x40>
ffffffff8040a126:	fe843783          	ld	a5,-24(s0)
ffffffff8040a12a:	639c                	ld	a5,0(a5)
ffffffff8040a12c:	c39d                	beqz	a5,ffffffff8040a152 <list_del+0x40>
ffffffff8040a12e:	fe843783          	ld	a5,-24(s0)
ffffffff8040a132:	6798                	ld	a4,8(a5)
ffffffff8040a134:	fe843783          	ld	a5,-24(s0)
ffffffff8040a138:	639c                	ld	a5,0(a5)
ffffffff8040a13a:	85be                	mv	a1,a5
ffffffff8040a13c:	853a                	mv	a0,a4
ffffffff8040a13e:	fabff0ef          	jal	ra,ffffffff8040a0e8 <_list_del>
ffffffff8040a142:	fe843783          	ld	a5,-24(s0)
ffffffff8040a146:	0007b423          	sd	zero,8(a5)
ffffffff8040a14a:	fe843783          	ld	a5,-24(s0)
ffffffff8040a14e:	0007b023          	sd	zero,0(a5)
ffffffff8040a152:	0001                	nop
ffffffff8040a154:	60e2                	ld	ra,24(sp)
ffffffff8040a156:	6442                	ld	s0,16(sp)
ffffffff8040a158:	6105                	addi	sp,sp,32
ffffffff8040a15a:	8082                	ret

ffffffff8040a15c <list_add_tail>:
ffffffff8040a15c:	1101                	addi	sp,sp,-32
ffffffff8040a15e:	ec06                	sd	ra,24(sp)
ffffffff8040a160:	e822                	sd	s0,16(sp)
ffffffff8040a162:	1000                	addi	s0,sp,32
ffffffff8040a164:	fea43423          	sd	a0,-24(s0)
ffffffff8040a168:	feb43023          	sd	a1,-32(s0)
ffffffff8040a16c:	fe043783          	ld	a5,-32(s0)
ffffffff8040a170:	679c                	ld	a5,8(a5)
ffffffff8040a172:	fe043603          	ld	a2,-32(s0)
ffffffff8040a176:	85be                	mv	a1,a5
ffffffff8040a178:	fe843503          	ld	a0,-24(s0)
ffffffff8040a17c:	f2bff0ef          	jal	ra,ffffffff8040a0a6 <_list_add>
ffffffff8040a180:	0001                	nop
ffffffff8040a182:	60e2                	ld	ra,24(sp)
ffffffff8040a184:	6442                	ld	s0,16(sp)
ffffffff8040a186:	6105                	addi	sp,sp,32
ffffffff8040a188:	8082                	ret

ffffffff8040a18a <_panic>:
ffffffff8040a18a:	7179                	addi	sp,sp,-48
ffffffff8040a18c:	f406                	sd	ra,40(sp)
ffffffff8040a18e:	f022                	sd	s0,32(sp)
ffffffff8040a190:	1800                	addi	s0,sp,48
ffffffff8040a192:	fea43423          	sd	a0,-24(s0)
ffffffff8040a196:	87ae                	mv	a5,a1
ffffffff8040a198:	fcc43c23          	sd	a2,-40(s0)
ffffffff8040a19c:	fef42223          	sw	a5,-28(s0)
ffffffff8040a1a0:	fe442783          	lw	a5,-28(s0)
ffffffff8040a1a4:	86be                	mv	a3,a5
ffffffff8040a1a6:	fe843603          	ld	a2,-24(s0)
ffffffff8040a1aa:	fd843583          	ld	a1,-40(s0)
ffffffff8040a1ae:	00004517          	auipc	a0,0x4
ffffffff8040a1b2:	d6a50513          	addi	a0,a0,-662 # ffffffff8040df18 <__FUNCTION__.2304+0x18>
ffffffff8040a1b6:	da6fc0ef          	jal	ra,ffffffff8040675c <printk>
ffffffff8040a1ba:	a001                	j	ffffffff8040a1ba <_panic+0x30>

ffffffff8040a1bc <pa2kva>:
ffffffff8040a1bc:	1101                	addi	sp,sp,-32
ffffffff8040a1be:	ec22                	sd	s0,24(sp)
ffffffff8040a1c0:	1000                	addi	s0,sp,32
ffffffff8040a1c2:	fea43423          	sd	a0,-24(s0)
ffffffff8040a1c6:	fe843703          	ld	a4,-24(s0)
ffffffff8040a1ca:	57fd                	li	a5,-1
ffffffff8040a1cc:	1782                	slli	a5,a5,0x20
ffffffff8040a1ce:	97ba                	add	a5,a5,a4
ffffffff8040a1d0:	853e                	mv	a0,a5
ffffffff8040a1d2:	6462                	ld	s0,24(sp)
ffffffff8040a1d4:	6105                	addi	sp,sp,32
ffffffff8040a1d6:	8082                	ret

ffffffff8040a1d8 <clear_pgdir>:
ffffffff8040a1d8:	7179                	addi	sp,sp,-48
ffffffff8040a1da:	f422                	sd	s0,40(sp)
ffffffff8040a1dc:	1800                	addi	s0,sp,48
ffffffff8040a1de:	fca43c23          	sd	a0,-40(s0)
ffffffff8040a1e2:	fd843783          	ld	a5,-40(s0)
ffffffff8040a1e6:	fef43423          	sd	a5,-24(s0)
ffffffff8040a1ea:	fe042223          	sw	zero,-28(s0)
ffffffff8040a1ee:	a839                	j	ffffffff8040a20c <clear_pgdir+0x34>
ffffffff8040a1f0:	fe843783          	ld	a5,-24(s0)
ffffffff8040a1f4:	0007b023          	sd	zero,0(a5)
ffffffff8040a1f8:	fe843783          	ld	a5,-24(s0)
ffffffff8040a1fc:	07a1                	addi	a5,a5,8
ffffffff8040a1fe:	fef43423          	sd	a5,-24(s0)
ffffffff8040a202:	fe442783          	lw	a5,-28(s0)
ffffffff8040a206:	2785                	addiw	a5,a5,1
ffffffff8040a208:	fef42223          	sw	a5,-28(s0)
ffffffff8040a20c:	fe442783          	lw	a5,-28(s0)
ffffffff8040a210:	0007871b          	sext.w	a4,a5
ffffffff8040a214:	1ff00793          	li	a5,511
ffffffff8040a218:	fce7dce3          	bge	a5,a4,ffffffff8040a1f0 <clear_pgdir+0x18>
ffffffff8040a21c:	0001                	nop
ffffffff8040a21e:	7422                	ld	s0,40(sp)
ffffffff8040a220:	6145                	addi	sp,sp,48
ffffffff8040a222:	8082                	ret

ffffffff8040a224 <first_sec_of_clus>:
ffffffff8040a224:	1101                	addi	sp,sp,-32
ffffffff8040a226:	ec22                	sd	s0,24(sp)
ffffffff8040a228:	1000                	addi	s0,sp,32
ffffffff8040a22a:	87aa                	mv	a5,a0
ffffffff8040a22c:	fef42623          	sw	a5,-20(s0)
ffffffff8040a230:	fec42783          	lw	a5,-20(s0)
ffffffff8040a234:	37f9                	addiw	a5,a5,-2
ffffffff8040a236:	0007871b          	sext.w	a4,a5
ffffffff8040a23a:	00019797          	auipc	a5,0x19
ffffffff8040a23e:	4ae78793          	addi	a5,a5,1198 # ffffffff804236e8 <fat>
ffffffff8040a242:	0127c783          	lbu	a5,18(a5)
ffffffff8040a246:	2781                	sext.w	a5,a5
ffffffff8040a248:	02f707bb          	mulw	a5,a4,a5
ffffffff8040a24c:	0007871b          	sext.w	a4,a5
ffffffff8040a250:	00019797          	auipc	a5,0x19
ffffffff8040a254:	49878793          	addi	a5,a5,1176 # ffffffff804236e8 <fat>
ffffffff8040a258:	439c                	lw	a5,0(a5)
ffffffff8040a25a:	9fb9                	addw	a5,a5,a4
ffffffff8040a25c:	2781                	sext.w	a5,a5
ffffffff8040a25e:	853e                	mv	a0,a5
ffffffff8040a260:	6462                	ld	s0,24(sp)
ffffffff8040a262:	6105                	addi	sp,sp,32
ffffffff8040a264:	8082                	ret

ffffffff8040a266 <fat_sec_of_clus>:
ffffffff8040a266:	1101                	addi	sp,sp,-32
ffffffff8040a268:	ec22                	sd	s0,24(sp)
ffffffff8040a26a:	1000                	addi	s0,sp,32
ffffffff8040a26c:	87aa                	mv	a5,a0
ffffffff8040a26e:	fef42623          	sw	a5,-20(s0)
ffffffff8040a272:	00019797          	auipc	a5,0x19
ffffffff8040a276:	47678793          	addi	a5,a5,1142 # ffffffff804236e8 <fat>
ffffffff8040a27a:	0147d783          	lhu	a5,20(a5)
ffffffff8040a27e:	0007871b          	sext.w	a4,a5
ffffffff8040a282:	00019797          	auipc	a5,0x19
ffffffff8040a286:	46678793          	addi	a5,a5,1126 # ffffffff804236e8 <fat>
ffffffff8040a28a:	4f9c                	lw	a5,24(a5)
ffffffff8040a28c:	9fb9                	addw	a5,a5,a4
ffffffff8040a28e:	0007871b          	sext.w	a4,a5
ffffffff8040a292:	fec42783          	lw	a5,-20(s0)
ffffffff8040a296:	0027979b          	slliw	a5,a5,0x2
ffffffff8040a29a:	0007869b          	sext.w	a3,a5
ffffffff8040a29e:	00019797          	auipc	a5,0x19
ffffffff8040a2a2:	44a78793          	addi	a5,a5,1098 # ffffffff804236e8 <fat>
ffffffff8040a2a6:	0107d783          	lhu	a5,16(a5)
ffffffff8040a2aa:	2781                	sext.w	a5,a5
ffffffff8040a2ac:	02f6d7bb          	divuw	a5,a3,a5
ffffffff8040a2b0:	2781                	sext.w	a5,a5
ffffffff8040a2b2:	9fb9                	addw	a5,a5,a4
ffffffff8040a2b4:	0007871b          	sext.w	a4,a5
ffffffff8040a2b8:	00019797          	auipc	a5,0x19
ffffffff8040a2bc:	43078793          	addi	a5,a5,1072 # ffffffff804236e8 <fat>
ffffffff8040a2c0:	539c                	lw	a5,32(a5)
ffffffff8040a2c2:	9fb9                	addw	a5,a5,a4
ffffffff8040a2c4:	2781                	sext.w	a5,a5
ffffffff8040a2c6:	853e                	mv	a0,a5
ffffffff8040a2c8:	6462                	ld	s0,24(sp)
ffffffff8040a2ca:	6105                	addi	sp,sp,32
ffffffff8040a2cc:	8082                	ret

ffffffff8040a2ce <get_cluster_from_dentry>:
ffffffff8040a2ce:	1101                	addi	sp,sp,-32
ffffffff8040a2d0:	ec22                	sd	s0,24(sp)
ffffffff8040a2d2:	1000                	addi	s0,sp,32
ffffffff8040a2d4:	fea43423          	sd	a0,-24(s0)
ffffffff8040a2d8:	fe843783          	ld	a5,-24(s0)
ffffffff8040a2dc:	0147c703          	lbu	a4,20(a5)
ffffffff8040a2e0:	0157c783          	lbu	a5,21(a5)
ffffffff8040a2e4:	07a2                	slli	a5,a5,0x8
ffffffff8040a2e6:	8fd9                	or	a5,a5,a4
ffffffff8040a2e8:	17c2                	slli	a5,a5,0x30
ffffffff8040a2ea:	93c1                	srli	a5,a5,0x30
ffffffff8040a2ec:	2781                	sext.w	a5,a5
ffffffff8040a2ee:	0107979b          	slliw	a5,a5,0x10
ffffffff8040a2f2:	0007871b          	sext.w	a4,a5
ffffffff8040a2f6:	fe843783          	ld	a5,-24(s0)
ffffffff8040a2fa:	01a7c683          	lbu	a3,26(a5)
ffffffff8040a2fe:	01b7c783          	lbu	a5,27(a5)
ffffffff8040a302:	07a2                	slli	a5,a5,0x8
ffffffff8040a304:	8fd5                	or	a5,a5,a3
ffffffff8040a306:	17c2                	slli	a5,a5,0x30
ffffffff8040a308:	93c1                	srli	a5,a5,0x30
ffffffff8040a30a:	2781                	sext.w	a5,a5
ffffffff8040a30c:	9fb9                	addw	a5,a5,a4
ffffffff8040a30e:	2781                	sext.w	a5,a5
ffffffff8040a310:	853e                	mv	a0,a5
ffffffff8040a312:	6462                	ld	s0,24(sp)
ffffffff8040a314:	6105                	addi	sp,sp,32
ffffffff8040a316:	8082                	ret

ffffffff8040a318 <fat_offset_of_clus>:
ffffffff8040a318:	1101                	addi	sp,sp,-32
ffffffff8040a31a:	ec22                	sd	s0,24(sp)
ffffffff8040a31c:	1000                	addi	s0,sp,32
ffffffff8040a31e:	87aa                	mv	a5,a0
ffffffff8040a320:	fef42623          	sw	a5,-20(s0)
ffffffff8040a324:	fec42783          	lw	a5,-20(s0)
ffffffff8040a328:	0027979b          	slliw	a5,a5,0x2
ffffffff8040a32c:	0007871b          	sext.w	a4,a5
ffffffff8040a330:	00019797          	auipc	a5,0x19
ffffffff8040a334:	3b878793          	addi	a5,a5,952 # ffffffff804236e8 <fat>
ffffffff8040a338:	0107d783          	lhu	a5,16(a5)
ffffffff8040a33c:	2781                	sext.w	a5,a5
ffffffff8040a33e:	02f777bb          	remuw	a5,a4,a5
ffffffff8040a342:	2781                	sext.w	a5,a5
ffffffff8040a344:	853e                	mv	a0,a5
ffffffff8040a346:	6462                	ld	s0,24(sp)
ffffffff8040a348:	6105                	addi	sp,sp,32
ffffffff8040a34a:	8082                	ret

ffffffff8040a34c <get_next_cluster>:
ffffffff8040a34c:	715d                	addi	sp,sp,-80
ffffffff8040a34e:	e486                	sd	ra,72(sp)
ffffffff8040a350:	e0a2                	sd	s0,64(sp)
ffffffff8040a352:	fc26                	sd	s1,56(sp)
ffffffff8040a354:	f84a                	sd	s2,48(sp)
ffffffff8040a356:	0880                	addi	s0,sp,80
ffffffff8040a358:	faa42e23          	sw	a0,-68(s0)
ffffffff8040a35c:	850a                	mv	a0,sp
ffffffff8040a35e:	892a                	mv	s2,a0
ffffffff8040a360:	00019517          	auipc	a0,0x19
ffffffff8040a364:	38850513          	addi	a0,a0,904 # ffffffff804236e8 <fat>
ffffffff8040a368:	01055503          	lhu	a0,16(a0)
ffffffff8040a36c:	88aa                	mv	a7,a0
ffffffff8040a36e:	18fd                	addi	a7,a7,-1
ffffffff8040a370:	fd143c23          	sd	a7,-40(s0)
ffffffff8040a374:	832a                	mv	t1,a0
ffffffff8040a376:	4381                	li	t2,0
ffffffff8040a378:	03d35893          	srli	a7,t1,0x3d
ffffffff8040a37c:	00339713          	slli	a4,t2,0x3
ffffffff8040a380:	00e8e733          	or	a4,a7,a4
ffffffff8040a384:	00331693          	slli	a3,t1,0x3
ffffffff8040a388:	85aa                	mv	a1,a0
ffffffff8040a38a:	4601                	li	a2,0
ffffffff8040a38c:	03d5d713          	srli	a4,a1,0x3d
ffffffff8040a390:	00361813          	slli	a6,a2,0x3
ffffffff8040a394:	01076833          	or	a6,a4,a6
ffffffff8040a398:	00359793          	slli	a5,a1,0x3
ffffffff8040a39c:	87aa                	mv	a5,a0
ffffffff8040a39e:	07bd                	addi	a5,a5,15
ffffffff8040a3a0:	8391                	srli	a5,a5,0x4
ffffffff8040a3a2:	0792                	slli	a5,a5,0x4
ffffffff8040a3a4:	40f10133          	sub	sp,sp,a5
ffffffff8040a3a8:	878a                	mv	a5,sp
ffffffff8040a3aa:	00078793          	mv	a5,a5
ffffffff8040a3ae:	fcf43823          	sd	a5,-48(s0)
ffffffff8040a3b2:	fd043483          	ld	s1,-48(s0)
ffffffff8040a3b6:	fbc42783          	lw	a5,-68(s0)
ffffffff8040a3ba:	853e                	mv	a0,a5
ffffffff8040a3bc:	eabff0ef          	jal	ra,ffffffff8040a266 <fat_sec_of_clus>
ffffffff8040a3c0:	87aa                	mv	a5,a0
ffffffff8040a3c2:	2781                	sext.w	a5,a5
ffffffff8040a3c4:	4605                	li	a2,1
ffffffff8040a3c6:	85be                	mv	a1,a5
ffffffff8040a3c8:	8526                	mv	a0,s1
ffffffff8040a3ca:	948fd0ef          	jal	ra,ffffffff80407512 <sd_read_sector>
ffffffff8040a3ce:	fd043483          	ld	s1,-48(s0)
ffffffff8040a3d2:	fbc42783          	lw	a5,-68(s0)
ffffffff8040a3d6:	853e                	mv	a0,a5
ffffffff8040a3d8:	f41ff0ef          	jal	ra,ffffffff8040a318 <fat_offset_of_clus>
ffffffff8040a3dc:	87aa                	mv	a5,a0
ffffffff8040a3de:	2781                	sext.w	a5,a5
ffffffff8040a3e0:	1782                	slli	a5,a5,0x20
ffffffff8040a3e2:	9381                	srli	a5,a5,0x20
ffffffff8040a3e4:	97a6                	add	a5,a5,s1
ffffffff8040a3e6:	439c                	lw	a5,0(a5)
ffffffff8040a3e8:	fcf42623          	sw	a5,-52(s0)
ffffffff8040a3ec:	fcc42783          	lw	a5,-52(s0)
ffffffff8040a3f0:	814a                	mv	sp,s2
ffffffff8040a3f2:	853e                	mv	a0,a5
ffffffff8040a3f4:	fb040113          	addi	sp,s0,-80
ffffffff8040a3f8:	60a6                	ld	ra,72(sp)
ffffffff8040a3fa:	6406                	ld	s0,64(sp)
ffffffff8040a3fc:	74e2                	ld	s1,56(sp)
ffffffff8040a3fe:	7942                	ld	s2,48(sp)
ffffffff8040a400:	6161                	addi	sp,sp,80
ffffffff8040a402:	8082                	ret

ffffffff8040a404 <clus_of_sec>:
ffffffff8040a404:	1101                	addi	sp,sp,-32
ffffffff8040a406:	ec22                	sd	s0,24(sp)
ffffffff8040a408:	1000                	addi	s0,sp,32
ffffffff8040a40a:	87aa                	mv	a5,a0
ffffffff8040a40c:	fef42623          	sw	a5,-20(s0)
ffffffff8040a410:	00019797          	auipc	a5,0x19
ffffffff8040a414:	2d878793          	addi	a5,a5,728 # ffffffff804236e8 <fat>
ffffffff8040a418:	439c                	lw	a5,0(a5)
ffffffff8040a41a:	fec42703          	lw	a4,-20(s0)
ffffffff8040a41e:	40f707bb          	subw	a5,a4,a5
ffffffff8040a422:	0007871b          	sext.w	a4,a5
ffffffff8040a426:	00019797          	auipc	a5,0x19
ffffffff8040a42a:	2c278793          	addi	a5,a5,706 # ffffffff804236e8 <fat>
ffffffff8040a42e:	0127c783          	lbu	a5,18(a5)
ffffffff8040a432:	2781                	sext.w	a5,a5
ffffffff8040a434:	02f757bb          	divuw	a5,a4,a5
ffffffff8040a438:	2781                	sext.w	a5,a5
ffffffff8040a43a:	2789                	addiw	a5,a5,2
ffffffff8040a43c:	2781                	sext.w	a5,a5
ffffffff8040a43e:	853e                	mv	a0,a5
ffffffff8040a440:	6462                	ld	s0,24(sp)
ffffffff8040a442:	6105                	addi	sp,sp,32
ffffffff8040a444:	8082                	ret

ffffffff8040a446 <is_elf_format>:
ffffffff8040a446:	7179                	addi	sp,sp,-48
ffffffff8040a448:	f422                	sd	s0,40(sp)
ffffffff8040a44a:	1800                	addi	s0,sp,48
ffffffff8040a44c:	fca43c23          	sd	a0,-40(s0)
ffffffff8040a450:	fd843783          	ld	a5,-40(s0)
ffffffff8040a454:	fef43423          	sd	a5,-24(s0)
ffffffff8040a458:	fe843783          	ld	a5,-24(s0)
ffffffff8040a45c:	0007c783          	lbu	a5,0(a5)
ffffffff8040a460:	eb9d                	bnez	a5,ffffffff8040a496 <is_elf_format+0x50>
ffffffff8040a462:	fe843783          	ld	a5,-24(s0)
ffffffff8040a466:	0017c783          	lbu	a5,1(a5)
ffffffff8040a46a:	873e                	mv	a4,a5
ffffffff8040a46c:	4785                	li	a5,1
ffffffff8040a46e:	02f71463          	bne	a4,a5,ffffffff8040a496 <is_elf_format+0x50>
ffffffff8040a472:	fe843783          	ld	a5,-24(s0)
ffffffff8040a476:	0027c783          	lbu	a5,2(a5)
ffffffff8040a47a:	873e                	mv	a4,a5
ffffffff8040a47c:	4789                	li	a5,2
ffffffff8040a47e:	00f71c63          	bne	a4,a5,ffffffff8040a496 <is_elf_format+0x50>
ffffffff8040a482:	fe843783          	ld	a5,-24(s0)
ffffffff8040a486:	0037c783          	lbu	a5,3(a5)
ffffffff8040a48a:	873e                	mv	a4,a5
ffffffff8040a48c:	478d                	li	a5,3
ffffffff8040a48e:	00f71463          	bne	a4,a5,ffffffff8040a496 <is_elf_format+0x50>
ffffffff8040a492:	4781                	li	a5,0
ffffffff8040a494:	a011                	j	ffffffff8040a498 <is_elf_format+0x52>
ffffffff8040a496:	4785                	li	a5,1
ffffffff8040a498:	853e                	mv	a0,a5
ffffffff8040a49a:	7422                	ld	s0,40(sp)
ffffffff8040a49c:	6145                	addi	sp,sp,48
ffffffff8040a49e:	8082                	ret

ffffffff8040a4a0 <load_elf>:
ffffffff8040a4a0:	7159                	addi	sp,sp,-112
ffffffff8040a4a2:	f486                	sd	ra,104(sp)
ffffffff8040a4a4:	f0a2                	sd	s0,96(sp)
ffffffff8040a4a6:	1880                	addi	s0,sp,112
ffffffff8040a4a8:	faa43423          	sd	a0,-88(s0)
ffffffff8040a4ac:	87ae                	mv	a5,a1
ffffffff8040a4ae:	f8c43c23          	sd	a2,-104(s0)
ffffffff8040a4b2:	f8d43823          	sd	a3,-112(s0)
ffffffff8040a4b6:	faf42223          	sw	a5,-92(s0)
ffffffff8040a4ba:	fa843783          	ld	a5,-88(s0)
ffffffff8040a4be:	fcf43823          	sd	a5,-48(s0)
ffffffff8040a4c2:	fc043423          	sd	zero,-56(s0)
ffffffff8040a4c6:	fe043423          	sd	zero,-24(s0)
ffffffff8040a4ca:	fe042023          	sw	zero,-32(s0)
ffffffff8040a4ce:	fa442783          	lw	a5,-92(s0)
ffffffff8040a4d2:	0007871b          	sext.w	a4,a5
ffffffff8040a4d6:	478d                	li	a5,3
ffffffff8040a4d8:	00e7f863          	bgeu	a5,a4,ffffffff8040a4e8 <load_elf+0x48>
ffffffff8040a4dc:	fa843503          	ld	a0,-88(s0)
ffffffff8040a4e0:	f67ff0ef          	jal	ra,ffffffff8040a446 <is_elf_format>
ffffffff8040a4e4:	87aa                	mv	a5,a0
ffffffff8040a4e6:	e399                	bnez	a5,ffffffff8040a4ec <load_elf+0x4c>
ffffffff8040a4e8:	4781                	li	a5,0
ffffffff8040a4ea:	a269                	j	ffffffff8040a674 <load_elf+0x1d4>
ffffffff8040a4ec:	fd043783          	ld	a5,-48(s0)
ffffffff8040a4f0:	739c                	ld	a5,32(a5)
ffffffff8040a4f2:	fa843703          	ld	a4,-88(s0)
ffffffff8040a4f6:	97ba                	add	a5,a5,a4
ffffffff8040a4f8:	fef43423          	sd	a5,-24(s0)
ffffffff8040a4fc:	fd043783          	ld	a5,-48(s0)
ffffffff8040a500:	0387d783          	lhu	a5,56(a5)
ffffffff8040a504:	fef41323          	sh	a5,-26(s0)
ffffffff8040a508:	fd043783          	ld	a5,-48(s0)
ffffffff8040a50c:	0367d783          	lhu	a5,54(a5)
ffffffff8040a510:	fcf41323          	sh	a5,-58(s0)
ffffffff8040a514:	a2a9                	j	ffffffff8040a65e <load_elf+0x1be>
ffffffff8040a516:	fe843783          	ld	a5,-24(s0)
ffffffff8040a51a:	fcf43423          	sd	a5,-56(s0)
ffffffff8040a51e:	fc843783          	ld	a5,-56(s0)
ffffffff8040a522:	439c                	lw	a5,0(a5)
ffffffff8040a524:	873e                	mv	a4,a5
ffffffff8040a526:	4785                	li	a5,1
ffffffff8040a528:	12f71463          	bne	a4,a5,ffffffff8040a650 <load_elf+0x1b0>
ffffffff8040a52c:	fe042023          	sw	zero,-32(s0)
ffffffff8040a530:	aa09                	j	ffffffff8040a642 <load_elf+0x1a2>
ffffffff8040a532:	fe042703          	lw	a4,-32(s0)
ffffffff8040a536:	fc843783          	ld	a5,-56(s0)
ffffffff8040a53a:	739c                	ld	a5,32(a5)
ffffffff8040a53c:	0af77563          	bgeu	a4,a5,ffffffff8040a5e6 <load_elf+0x146>
ffffffff8040a540:	fc843783          	ld	a5,-56(s0)
ffffffff8040a544:	6b98                	ld	a4,16(a5)
ffffffff8040a546:	fe042783          	lw	a5,-32(s0)
ffffffff8040a54a:	97ba                	add	a5,a5,a4
ffffffff8040a54c:	f9043703          	ld	a4,-112(s0)
ffffffff8040a550:	4639                	li	a2,14
ffffffff8040a552:	f9843583          	ld	a1,-104(s0)
ffffffff8040a556:	853e                	mv	a0,a5
ffffffff8040a558:	9702                	jalr	a4
ffffffff8040a55a:	87aa                	mv	a5,a0
ffffffff8040a55c:	faf43c23          	sd	a5,-72(s0)
ffffffff8040a560:	fc843783          	ld	a5,-56(s0)
ffffffff8040a564:	6798                	ld	a4,8(a5)
ffffffff8040a566:	fe042783          	lw	a5,-32(s0)
ffffffff8040a56a:	97ba                	add	a5,a5,a4
ffffffff8040a56c:	fa843703          	ld	a4,-88(s0)
ffffffff8040a570:	00f706b3          	add	a3,a4,a5
ffffffff8040a574:	fc843783          	ld	a5,-56(s0)
ffffffff8040a578:	7398                	ld	a4,32(a5)
ffffffff8040a57a:	fe042783          	lw	a5,-32(s0)
ffffffff8040a57e:	40f707b3          	sub	a5,a4,a5
ffffffff8040a582:	6705                	lui	a4,0x1
ffffffff8040a584:	00f77363          	bgeu	a4,a5,ffffffff8040a58a <load_elf+0xea>
ffffffff8040a588:	6785                	lui	a5,0x1
ffffffff8040a58a:	2781                	sext.w	a5,a5
ffffffff8040a58c:	863e                	mv	a2,a5
ffffffff8040a58e:	85b6                	mv	a1,a3
ffffffff8040a590:	fb843503          	ld	a0,-72(s0)
ffffffff8040a594:	de4fb0ef          	jal	ra,ffffffff80405b78 <memcpy>
ffffffff8040a598:	fc843783          	ld	a5,-56(s0)
ffffffff8040a59c:	7398                	ld	a4,32(a5)
ffffffff8040a59e:	fe042783          	lw	a5,-32(s0)
ffffffff8040a5a2:	8f1d                	sub	a4,a4,a5
ffffffff8040a5a4:	6785                	lui	a5,0x1
ffffffff8040a5a6:	08f77763          	bgeu	a4,a5,ffffffff8040a634 <load_elf+0x194>
ffffffff8040a5aa:	fc843783          	ld	a5,-56(s0)
ffffffff8040a5ae:	739c                	ld	a5,32(a5)
ffffffff8040a5b0:	0007871b          	sext.w	a4,a5
ffffffff8040a5b4:	6785                	lui	a5,0x1
ffffffff8040a5b6:	17fd                	addi	a5,a5,-1
ffffffff8040a5b8:	8ff9                	and	a5,a5,a4
ffffffff8040a5ba:	fcf42e23          	sw	a5,-36(s0)
ffffffff8040a5be:	a829                	j	ffffffff8040a5d8 <load_elf+0x138>
ffffffff8040a5c0:	fdc42783          	lw	a5,-36(s0)
ffffffff8040a5c4:	fb843703          	ld	a4,-72(s0)
ffffffff8040a5c8:	97ba                	add	a5,a5,a4
ffffffff8040a5ca:	00078023          	sb	zero,0(a5) # 1000 <_start-0xffffffff803ff000>
ffffffff8040a5ce:	fdc42783          	lw	a5,-36(s0)
ffffffff8040a5d2:	2785                	addiw	a5,a5,1
ffffffff8040a5d4:	fcf42e23          	sw	a5,-36(s0)
ffffffff8040a5d8:	fdc42783          	lw	a5,-36(s0)
ffffffff8040a5dc:	873e                	mv	a4,a5
ffffffff8040a5de:	6785                	lui	a5,0x1
ffffffff8040a5e0:	fef760e3          	bltu	a4,a5,ffffffff8040a5c0 <load_elf+0x120>
ffffffff8040a5e4:	a881                	j	ffffffff8040a634 <load_elf+0x194>
ffffffff8040a5e6:	fc843783          	ld	a5,-56(s0)
ffffffff8040a5ea:	6b98                	ld	a4,16(a5)
ffffffff8040a5ec:	fe042783          	lw	a5,-32(s0)
ffffffff8040a5f0:	97ba                	add	a5,a5,a4
ffffffff8040a5f2:	f9043703          	ld	a4,-112(s0)
ffffffff8040a5f6:	4639                	li	a2,14
ffffffff8040a5f8:	f9843583          	ld	a1,-104(s0)
ffffffff8040a5fc:	853e                	mv	a0,a5
ffffffff8040a5fe:	9702                	jalr	a4
ffffffff8040a600:	87aa                	mv	a5,a0
ffffffff8040a602:	faf43823          	sd	a5,-80(s0)
ffffffff8040a606:	fc042c23          	sw	zero,-40(s0)
ffffffff8040a60a:	a831                	j	ffffffff8040a626 <load_elf+0x186>
ffffffff8040a60c:	fd842783          	lw	a5,-40(s0)
ffffffff8040a610:	078e                	slli	a5,a5,0x3
ffffffff8040a612:	fb043703          	ld	a4,-80(s0)
ffffffff8040a616:	97ba                	add	a5,a5,a4
ffffffff8040a618:	0007b023          	sd	zero,0(a5) # 1000 <_start-0xffffffff803ff000>
ffffffff8040a61c:	fd842783          	lw	a5,-40(s0)
ffffffff8040a620:	2785                	addiw	a5,a5,1
ffffffff8040a622:	fcf42c23          	sw	a5,-40(s0)
ffffffff8040a626:	fd842783          	lw	a5,-40(s0)
ffffffff8040a62a:	873e                	mv	a4,a5
ffffffff8040a62c:	1ff00793          	li	a5,511
ffffffff8040a630:	fce7fee3          	bgeu	a5,a4,ffffffff8040a60c <load_elf+0x16c>
ffffffff8040a634:	fe042703          	lw	a4,-32(s0)
ffffffff8040a638:	6785                	lui	a5,0x1
ffffffff8040a63a:	9fb9                	addw	a5,a5,a4
ffffffff8040a63c:	2781                	sext.w	a5,a5
ffffffff8040a63e:	fef42023          	sw	a5,-32(s0)
ffffffff8040a642:	fe042703          	lw	a4,-32(s0)
ffffffff8040a646:	fc843783          	ld	a5,-56(s0)
ffffffff8040a64a:	779c                	ld	a5,40(a5)
ffffffff8040a64c:	eef763e3          	bltu	a4,a5,ffffffff8040a532 <load_elf+0x92>
ffffffff8040a650:	fc645783          	lhu	a5,-58(s0)
ffffffff8040a654:	fe843703          	ld	a4,-24(s0)
ffffffff8040a658:	97ba                	add	a5,a5,a4
ffffffff8040a65a:	fef43423          	sd	a5,-24(s0)
ffffffff8040a65e:	fe645783          	lhu	a5,-26(s0)
ffffffff8040a662:	fff7871b          	addiw	a4,a5,-1
ffffffff8040a666:	fee41323          	sh	a4,-26(s0)
ffffffff8040a66a:	ea0796e3          	bnez	a5,ffffffff8040a516 <load_elf+0x76>
ffffffff8040a66e:	fd043783          	ld	a5,-48(s0)
ffffffff8040a672:	6f9c                	ld	a5,24(a5)
ffffffff8040a674:	853e                	mv	a0,a5
ffffffff8040a676:	70a6                	ld	ra,104(sp)
ffffffff8040a678:	7406                	ld	s0,96(sp)
ffffffff8040a67a:	6165                	addi	sp,sp,112
ffffffff8040a67c:	8082                	ret

ffffffff8040a67e <init_pcb_default>:
ffffffff8040a67e:	7179                	addi	sp,sp,-48
ffffffff8040a680:	f406                	sd	ra,40(sp)
ffffffff8040a682:	f022                	sd	s0,32(sp)
ffffffff8040a684:	1800                	addi	s0,sp,48
ffffffff8040a686:	fca43c23          	sd	a0,-40(s0)
ffffffff8040a68a:	87ae                	mv	a5,a1
ffffffff8040a68c:	fcf42a23          	sw	a5,-44(s0)
ffffffff8040a690:	fd843783          	ld	a5,-40(s0)
ffffffff8040a694:	0007b823          	sd	zero,16(a5) # 1010 <_start-0xffffffff803feff0>
ffffffff8040a698:	fd843703          	ld	a4,-40(s0)
ffffffff8040a69c:	fd843783          	ld	a5,-40(s0)
ffffffff8040a6a0:	ff98                	sd	a4,56(a5)
ffffffff8040a6a2:	0000e797          	auipc	a5,0xe
ffffffff8040a6a6:	fa678793          	addi	a5,a5,-90 # ffffffff80418648 <process_id>
ffffffff8040a6aa:	439c                	lw	a5,0(a5)
ffffffff8040a6ac:	0017871b          	addiw	a4,a5,1
ffffffff8040a6b0:	0007069b          	sext.w	a3,a4
ffffffff8040a6b4:	0000e717          	auipc	a4,0xe
ffffffff8040a6b8:	f9470713          	addi	a4,a4,-108 # ffffffff80418648 <process_id>
ffffffff8040a6bc:	c314                	sw	a3,0(a4)
ffffffff8040a6be:	fd843703          	ld	a4,-40(s0)
ffffffff8040a6c2:	cf3c                	sw	a5,88(a4)
ffffffff8040a6c4:	fd843783          	ld	a5,-40(s0)
ffffffff8040a6c8:	fd442703          	lw	a4,-44(s0)
ffffffff8040a6cc:	cff8                	sw	a4,92(a5)
ffffffff8040a6ce:	fd843783          	ld	a5,-40(s0)
ffffffff8040a6d2:	04078793          	addi	a5,a5,64
ffffffff8040a6d6:	853e                	mv	a0,a5
ffffffff8040a6d8:	9a9ff0ef          	jal	ra,ffffffff8040a080 <init_list_head>
ffffffff8040a6dc:	fd843783          	ld	a5,-40(s0)
ffffffff8040a6e0:	4709                	li	a4,2
ffffffff8040a6e2:	d3b8                	sw	a4,96(a5)
ffffffff8040a6e4:	fd843783          	ld	a5,-40(s0)
ffffffff8040a6e8:	4705                	li	a4,1
ffffffff8040a6ea:	d7f8                	sw	a4,108(a5)
ffffffff8040a6ec:	fd843783          	ld	a5,-40(s0)
ffffffff8040a6f0:	57f8                	lw	a4,108(a5)
ffffffff8040a6f2:	fd843783          	ld	a5,-40(s0)
ffffffff8040a6f6:	dbb8                	sw	a4,112(a5)
ffffffff8040a6f8:	fd843783          	ld	a5,-40(s0)
ffffffff8040a6fc:	4705                	li	a4,1
ffffffff8040a6fe:	d3f8                	sw	a4,100(a5)
ffffffff8040a700:	fd843783          	ld	a5,-40(s0)
ffffffff8040a704:	0607a423          	sw	zero,104(a5)
ffffffff8040a708:	fd843783          	ld	a5,-40(s0)
ffffffff8040a70c:	4705                	li	a4,1
ffffffff8040a70e:	08e7a423          	sw	a4,136(a5)
ffffffff8040a712:	fd843783          	ld	a5,-40(s0)
ffffffff8040a716:	4705                	li	a4,1
ffffffff8040a718:	08e7a623          	sw	a4,140(a5)
ffffffff8040a71c:	fd843783          	ld	a5,-40(s0)
ffffffff8040a720:	473d                	li	a4,15
ffffffff8040a722:	ffb8                	sd	a4,120(a5)
ffffffff8040a724:	fd843783          	ld	a5,-40(s0)
ffffffff8040a728:	0807bc23          	sd	zero,152(a5)
ffffffff8040a72c:	fd843783          	ld	a5,-40(s0)
ffffffff8040a730:	0c078023          	sb	zero,192(a5)
ffffffff8040a734:	fd843783          	ld	a5,-40(s0)
ffffffff8040a738:	4705                	li	a4,1
ffffffff8040a73a:	0ce78c23          	sb	a4,216(a5)
ffffffff8040a73e:	fd843783          	ld	a5,-40(s0)
ffffffff8040a742:	0c078423          	sb	zero,200(a5)
ffffffff8040a746:	fd843783          	ld	a5,-40(s0)
ffffffff8040a74a:	0e078023          	sb	zero,224(a5)
ffffffff8040a74e:	fd843783          	ld	a5,-40(s0)
ffffffff8040a752:	4705                	li	a4,1
ffffffff8040a754:	0ee78c23          	sb	a4,248(a5)
ffffffff8040a758:	fd843783          	ld	a5,-40(s0)
ffffffff8040a75c:	4705                	li	a4,1
ffffffff8040a75e:	0ee78423          	sb	a4,232(a5)
ffffffff8040a762:	4789                	li	a5,2
ffffffff8040a764:	fef42623          	sw	a5,-20(s0)
ffffffff8040a768:	a831                	j	ffffffff8040a784 <init_pcb_default+0x106>
ffffffff8040a76a:	fd843703          	ld	a4,-40(s0)
ffffffff8040a76e:	fec42783          	lw	a5,-20(s0)
ffffffff8040a772:	0796                	slli	a5,a5,0x5
ffffffff8040a774:	97ba                	add	a5,a5,a4
ffffffff8040a776:	0c078c23          	sb	zero,216(a5)
ffffffff8040a77a:	fec42783          	lw	a5,-20(s0)
ffffffff8040a77e:	2785                	addiw	a5,a5,1
ffffffff8040a780:	fef42623          	sw	a5,-20(s0)
ffffffff8040a784:	fec42783          	lw	a5,-20(s0)
ffffffff8040a788:	0007871b          	sext.w	a4,a5
ffffffff8040a78c:	47bd                	li	a5,15
ffffffff8040a78e:	fce7dee3          	bge	a5,a4,ffffffff8040a76a <init_pcb_default+0xec>
ffffffff8040a792:	fd843783          	ld	a5,-40(s0)
ffffffff8040a796:	0a07b823          	sd	zero,176(a5)
ffffffff8040a79a:	fd843783          	ld	a5,-40(s0)
ffffffff8040a79e:	0a07bc23          	sd	zero,184(a5)
ffffffff8040a7a2:	0001                	nop
ffffffff8040a7a4:	70a2                	ld	ra,40(sp)
ffffffff8040a7a6:	7402                	ld	s0,32(sp)
ffffffff8040a7a8:	6145                	addi	sp,sp,48
ffffffff8040a7aa:	8082                	ret

ffffffff8040a7ac <sd_read>:
ffffffff8040a7ac:	1101                	addi	sp,sp,-32
ffffffff8040a7ae:	ec06                	sd	ra,24(sp)
ffffffff8040a7b0:	e822                	sd	s0,16(sp)
ffffffff8040a7b2:	1000                	addi	s0,sp,32
ffffffff8040a7b4:	fea43423          	sd	a0,-24(s0)
ffffffff8040a7b8:	87ae                	mv	a5,a1
ffffffff8040a7ba:	fef42223          	sw	a5,-28(s0)
ffffffff8040a7be:	00019797          	auipc	a5,0x19
ffffffff8040a7c2:	f2a78793          	addi	a5,a5,-214 # ffffffff804236e8 <fat>
ffffffff8040a7c6:	47dc                	lw	a5,12(a5)
ffffffff8040a7c8:	0007869b          	sext.w	a3,a5
ffffffff8040a7cc:	6705                	lui	a4,0x1
ffffffff8040a7ce:	00d77363          	bgeu	a4,a3,ffffffff8040a7d4 <sd_read+0x28>
ffffffff8040a7d2:	6785                	lui	a5,0x1
ffffffff8040a7d4:	0007871b          	sext.w	a4,a5
ffffffff8040a7d8:	00019797          	auipc	a5,0x19
ffffffff8040a7dc:	f1078793          	addi	a5,a5,-240 # ffffffff804236e8 <fat>
ffffffff8040a7e0:	0107d783          	lhu	a5,16(a5)
ffffffff8040a7e4:	2781                	sext.w	a5,a5
ffffffff8040a7e6:	02f757bb          	divuw	a5,a4,a5
ffffffff8040a7ea:	0007871b          	sext.w	a4,a5
ffffffff8040a7ee:	fe442783          	lw	a5,-28(s0)
ffffffff8040a7f2:	863a                	mv	a2,a4
ffffffff8040a7f4:	85be                	mv	a1,a5
ffffffff8040a7f6:	fe843503          	ld	a0,-24(s0)
ffffffff8040a7fa:	d19fc0ef          	jal	ra,ffffffff80407512 <sd_read_sector>
ffffffff8040a7fe:	0001                	nop
ffffffff8040a800:	60e2                	ld	ra,24(sp)
ffffffff8040a802:	6442                	ld	s0,16(sp)
ffffffff8040a804:	6105                	addi	sp,sp,32
ffffffff8040a806:	8082                	ret

ffffffff8040a808 <sd_write>:
ffffffff8040a808:	7179                	addi	sp,sp,-48
ffffffff8040a80a:	f406                	sd	ra,40(sp)
ffffffff8040a80c:	f022                	sd	s0,32(sp)
ffffffff8040a80e:	1800                	addi	s0,sp,48
ffffffff8040a810:	fca43c23          	sd	a0,-40(s0)
ffffffff8040a814:	87ae                	mv	a5,a1
ffffffff8040a816:	fcf42a23          	sw	a5,-44(s0)
ffffffff8040a81a:	fe042623          	sw	zero,-20(s0)
ffffffff8040a81e:	a83d                	j	ffffffff8040a85c <sd_write+0x54>
ffffffff8040a820:	fd442783          	lw	a5,-44(s0)
ffffffff8040a824:	4605                	li	a2,1
ffffffff8040a826:	85be                	mv	a1,a5
ffffffff8040a828:	fd843503          	ld	a0,-40(s0)
ffffffff8040a82c:	ddbfc0ef          	jal	ra,ffffffff80407606 <sd_write_sector>
ffffffff8040a830:	00019797          	auipc	a5,0x19
ffffffff8040a834:	eb878793          	addi	a5,a5,-328 # ffffffff804236e8 <fat>
ffffffff8040a838:	0107d783          	lhu	a5,16(a5)
ffffffff8040a83c:	873e                	mv	a4,a5
ffffffff8040a83e:	fd843783          	ld	a5,-40(s0)
ffffffff8040a842:	97ba                	add	a5,a5,a4
ffffffff8040a844:	fcf43c23          	sd	a5,-40(s0)
ffffffff8040a848:	fd442783          	lw	a5,-44(s0)
ffffffff8040a84c:	2785                	addiw	a5,a5,1
ffffffff8040a84e:	fcf42a23          	sw	a5,-44(s0)
ffffffff8040a852:	fec42783          	lw	a5,-20(s0)
ffffffff8040a856:	2785                	addiw	a5,a5,1
ffffffff8040a858:	fef42623          	sw	a5,-20(s0)
ffffffff8040a85c:	fec42703          	lw	a4,-20(s0)
ffffffff8040a860:	00019797          	auipc	a5,0x19
ffffffff8040a864:	e8878793          	addi	a5,a5,-376 # ffffffff804236e8 <fat>
ffffffff8040a868:	47dc                	lw	a5,12(a5)
ffffffff8040a86a:	0007861b          	sext.w	a2,a5
ffffffff8040a86e:	6685                	lui	a3,0x1
ffffffff8040a870:	00c6f363          	bgeu	a3,a2,ffffffff8040a876 <sd_write+0x6e>
ffffffff8040a874:	6785                	lui	a5,0x1
ffffffff8040a876:	2781                	sext.w	a5,a5
ffffffff8040a878:	1782                	slli	a5,a5,0x20
ffffffff8040a87a:	9381                	srli	a5,a5,0x20
ffffffff8040a87c:	00019697          	auipc	a3,0x19
ffffffff8040a880:	e6c68693          	addi	a3,a3,-404 # ffffffff804236e8 <fat>
ffffffff8040a884:	0106d683          	lhu	a3,16(a3)
ffffffff8040a888:	02d7d7b3          	divu	a5,a5,a3
ffffffff8040a88c:	f8f76ae3          	bltu	a4,a5,ffffffff8040a820 <sd_write+0x18>
ffffffff8040a890:	0001                	nop
ffffffff8040a892:	70a2                	ld	ra,40(sp)
ffffffff8040a894:	7402                	ld	s0,32(sp)
ffffffff8040a896:	6145                	addi	sp,sp,48
ffffffff8040a898:	8082                	ret

ffffffff8040a89a <get_next_dentry>:
ffffffff8040a89a:	7139                	addi	sp,sp,-64
ffffffff8040a89c:	fc06                	sd	ra,56(sp)
ffffffff8040a89e:	f822                	sd	s0,48(sp)
ffffffff8040a8a0:	f426                	sd	s1,40(sp)
ffffffff8040a8a2:	0080                	addi	s0,sp,64
ffffffff8040a8a4:	fca43c23          	sd	a0,-40(s0)
ffffffff8040a8a8:	fcb43823          	sd	a1,-48(s0)
ffffffff8040a8ac:	fcc43423          	sd	a2,-56(s0)
ffffffff8040a8b0:	fcd43023          	sd	a3,-64(s0)
ffffffff8040a8b4:	fd843783          	ld	a5,-40(s0)
ffffffff8040a8b8:	02078793          	addi	a5,a5,32 # 1020 <_start-0xffffffff803fefe0>
ffffffff8040a8bc:	fcf43c23          	sd	a5,-40(s0)
ffffffff8040a8c0:	fd843703          	ld	a4,-40(s0)
ffffffff8040a8c4:	fd043783          	ld	a5,-48(s0)
ffffffff8040a8c8:	8f1d                	sub	a4,a4,a5
ffffffff8040a8ca:	00019797          	auipc	a5,0x19
ffffffff8040a8ce:	e1e78793          	addi	a5,a5,-482 # ffffffff804236e8 <fat>
ffffffff8040a8d2:	47dc                	lw	a5,12(a5)
ffffffff8040a8d4:	0007861b          	sext.w	a2,a5
ffffffff8040a8d8:	6685                	lui	a3,0x1
ffffffff8040a8da:	00c6f363          	bgeu	a3,a2,ffffffff8040a8e0 <get_next_dentry+0x46>
ffffffff8040a8de:	6785                	lui	a5,0x1
ffffffff8040a8e0:	2781                	sext.w	a5,a5
ffffffff8040a8e2:	1782                	slli	a5,a5,0x20
ffffffff8040a8e4:	9381                	srli	a5,a5,0x20
ffffffff8040a8e6:	0af71e63          	bne	a4,a5,ffffffff8040a9a2 <get_next_dentry+0x108>
ffffffff8040a8ea:	fc043783          	ld	a5,-64(s0)
ffffffff8040a8ee:	4398                	lw	a4,0(a5)
ffffffff8040a8f0:	00019797          	auipc	a5,0x19
ffffffff8040a8f4:	df878793          	addi	a5,a5,-520 # ffffffff804236e8 <fat>
ffffffff8040a8f8:	47dc                	lw	a5,12(a5)
ffffffff8040a8fa:	0007861b          	sext.w	a2,a5
ffffffff8040a8fe:	6685                	lui	a3,0x1
ffffffff8040a900:	00c6f363          	bgeu	a3,a2,ffffffff8040a906 <get_next_dentry+0x6c>
ffffffff8040a904:	6785                	lui	a5,0x1
ffffffff8040a906:	0007869b          	sext.w	a3,a5
ffffffff8040a90a:	00019797          	auipc	a5,0x19
ffffffff8040a90e:	dde78793          	addi	a5,a5,-546 # ffffffff804236e8 <fat>
ffffffff8040a912:	0107d783          	lhu	a5,16(a5)
ffffffff8040a916:	2781                	sext.w	a5,a5
ffffffff8040a918:	02f6d7bb          	divuw	a5,a3,a5
ffffffff8040a91c:	2781                	sext.w	a5,a5
ffffffff8040a91e:	9fb9                	addw	a5,a5,a4
ffffffff8040a920:	0007871b          	sext.w	a4,a5
ffffffff8040a924:	fc043783          	ld	a5,-64(s0)
ffffffff8040a928:	c398                	sw	a4,0(a5)
ffffffff8040a92a:	fc043783          	ld	a5,-64(s0)
ffffffff8040a92e:	4384                	lw	s1,0(a5)
ffffffff8040a930:	fc843783          	ld	a5,-56(s0)
ffffffff8040a934:	439c                	lw	a5,0(a5)
ffffffff8040a936:	853e                	mv	a0,a5
ffffffff8040a938:	8edff0ef          	jal	ra,ffffffff8040a224 <first_sec_of_clus>
ffffffff8040a93c:	87aa                	mv	a5,a0
ffffffff8040a93e:	2781                	sext.w	a5,a5
ffffffff8040a940:	40f487bb          	subw	a5,s1,a5
ffffffff8040a944:	0007871b          	sext.w	a4,a5
ffffffff8040a948:	00019797          	auipc	a5,0x19
ffffffff8040a94c:	da078793          	addi	a5,a5,-608 # ffffffff804236e8 <fat>
ffffffff8040a950:	0127c783          	lbu	a5,18(a5)
ffffffff8040a954:	2781                	sext.w	a5,a5
ffffffff8040a956:	02f71a63          	bne	a4,a5,ffffffff8040a98a <get_next_dentry+0xf0>
ffffffff8040a95a:	fc843783          	ld	a5,-56(s0)
ffffffff8040a95e:	439c                	lw	a5,0(a5)
ffffffff8040a960:	853e                	mv	a0,a5
ffffffff8040a962:	9ebff0ef          	jal	ra,ffffffff8040a34c <get_next_cluster>
ffffffff8040a966:	87aa                	mv	a5,a0
ffffffff8040a968:	0007871b          	sext.w	a4,a5
ffffffff8040a96c:	fc843783          	ld	a5,-56(s0)
ffffffff8040a970:	c398                	sw	a4,0(a5)
ffffffff8040a972:	fc843783          	ld	a5,-56(s0)
ffffffff8040a976:	439c                	lw	a5,0(a5)
ffffffff8040a978:	853e                	mv	a0,a5
ffffffff8040a97a:	8abff0ef          	jal	ra,ffffffff8040a224 <first_sec_of_clus>
ffffffff8040a97e:	87aa                	mv	a5,a0
ffffffff8040a980:	0007871b          	sext.w	a4,a5
ffffffff8040a984:	fc043783          	ld	a5,-64(s0)
ffffffff8040a988:	c398                	sw	a4,0(a5)
ffffffff8040a98a:	fc043783          	ld	a5,-64(s0)
ffffffff8040a98e:	439c                	lw	a5,0(a5)
ffffffff8040a990:	85be                	mv	a1,a5
ffffffff8040a992:	fd043503          	ld	a0,-48(s0)
ffffffff8040a996:	e17ff0ef          	jal	ra,ffffffff8040a7ac <sd_read>
ffffffff8040a99a:	fd043783          	ld	a5,-48(s0)
ffffffff8040a99e:	fcf43c23          	sd	a5,-40(s0)
ffffffff8040a9a2:	fd843783          	ld	a5,-40(s0)
ffffffff8040a9a6:	853e                	mv	a0,a5
ffffffff8040a9a8:	70e2                	ld	ra,56(sp)
ffffffff8040a9aa:	7442                	ld	s0,48(sp)
ffffffff8040a9ac:	74a2                	ld	s1,40(sp)
ffffffff8040a9ae:	6121                	addi	sp,sp,64
ffffffff8040a9b0:	8082                	ret

ffffffff8040a9b2 <fat32_init>:
ffffffff8040a9b2:	1101                	addi	sp,sp,-32
ffffffff8040a9b4:	ec06                	sd	ra,24(sp)
ffffffff8040a9b6:	e822                	sd	s0,16(sp)
ffffffff8040a9b8:	1000                	addi	s0,sp,32
ffffffff8040a9ba:	dc7fa0ef          	jal	ra,ffffffff80405780 <kalloc>
ffffffff8040a9be:	fea43423          	sd	a0,-24(s0)
ffffffff8040a9c2:	4611                	li	a2,4
ffffffff8040a9c4:	4581                	li	a1,0
ffffffff8040a9c6:	fe843503          	ld	a0,-24(s0)
ffffffff8040a9ca:	b49fc0ef          	jal	ra,ffffffff80407512 <sd_read_sector>
ffffffff8040a9ce:	fe843783          	ld	a5,-24(s0)
ffffffff8040a9d2:	05278793          	addi	a5,a5,82
ffffffff8040a9d6:	4615                	li	a2,5
ffffffff8040a9d8:	00003597          	auipc	a1,0x3
ffffffff8040a9dc:	56858593          	addi	a1,a1,1384 # ffffffff8040df40 <__FUNCTION__.2304+0x40>
ffffffff8040a9e0:	853e                	mv	a0,a5
ffffffff8040a9e2:	9e6fb0ef          	jal	ra,ffffffff80405bc8 <memcmp>
ffffffff8040a9e6:	87aa                	mv	a5,a0
ffffffff8040a9e8:	c799                	beqz	a5,ffffffff8040a9f6 <fat32_init+0x44>
ffffffff8040a9ea:	00003517          	auipc	a0,0x3
ffffffff8040a9ee:	55e50513          	addi	a0,a0,1374 # ffffffff8040df48 <__FUNCTION__.2304+0x48>
ffffffff8040a9f2:	d6bfb0ef          	jal	ra,ffffffff8040675c <printk>
ffffffff8040a9f6:	fe843783          	ld	a5,-24(s0)
ffffffff8040a9fa:	07ad                	addi	a5,a5,11
ffffffff8040a9fc:	0007c783          	lbu	a5,0(a5)
ffffffff8040aa00:	03079713          	slli	a4,a5,0x30
ffffffff8040aa04:	9341                	srli	a4,a4,0x30
ffffffff8040aa06:	fe843783          	ld	a5,-24(s0)
ffffffff8040aa0a:	07b1                	addi	a5,a5,12
ffffffff8040aa0c:	0007c783          	lbu	a5,0(a5)
ffffffff8040aa10:	17c2                	slli	a5,a5,0x30
ffffffff8040aa12:	93c1                	srli	a5,a5,0x30
ffffffff8040aa14:	0087979b          	slliw	a5,a5,0x8
ffffffff8040aa18:	17c2                	slli	a5,a5,0x30
ffffffff8040aa1a:	93c1                	srli	a5,a5,0x30
ffffffff8040aa1c:	9fb9                	addw	a5,a5,a4
ffffffff8040aa1e:	03079713          	slli	a4,a5,0x30
ffffffff8040aa22:	9341                	srli	a4,a4,0x30
ffffffff8040aa24:	00019797          	auipc	a5,0x19
ffffffff8040aa28:	cc478793          	addi	a5,a5,-828 # ffffffff804236e8 <fat>
ffffffff8040aa2c:	00e79823          	sh	a4,16(a5)
ffffffff8040aa30:	fe843783          	ld	a5,-24(s0)
ffffffff8040aa34:	00d7c703          	lbu	a4,13(a5)
ffffffff8040aa38:	00019797          	auipc	a5,0x19
ffffffff8040aa3c:	cb078793          	addi	a5,a5,-848 # ffffffff804236e8 <fat>
ffffffff8040aa40:	00e78923          	sb	a4,18(a5)
ffffffff8040aa44:	fe843783          	ld	a5,-24(s0)
ffffffff8040aa48:	00e7d703          	lhu	a4,14(a5)
ffffffff8040aa4c:	00019797          	auipc	a5,0x19
ffffffff8040aa50:	c9c78793          	addi	a5,a5,-868 # ffffffff804236e8 <fat>
ffffffff8040aa54:	00e79a23          	sh	a4,20(a5)
ffffffff8040aa58:	fe843783          	ld	a5,-24(s0)
ffffffff8040aa5c:	0107c703          	lbu	a4,16(a5)
ffffffff8040aa60:	00019797          	auipc	a5,0x19
ffffffff8040aa64:	c8878793          	addi	a5,a5,-888 # ffffffff804236e8 <fat>
ffffffff8040aa68:	00e78b23          	sb	a4,22(a5)
ffffffff8040aa6c:	fe843783          	ld	a5,-24(s0)
ffffffff8040aa70:	4fd8                	lw	a4,28(a5)
ffffffff8040aa72:	00019797          	auipc	a5,0x19
ffffffff8040aa76:	c7678793          	addi	a5,a5,-906 # ffffffff804236e8 <fat>
ffffffff8040aa7a:	cf98                	sw	a4,24(a5)
ffffffff8040aa7c:	fe843783          	ld	a5,-24(s0)
ffffffff8040aa80:	5398                	lw	a4,32(a5)
ffffffff8040aa82:	00019797          	auipc	a5,0x19
ffffffff8040aa86:	c6678793          	addi	a5,a5,-922 # ffffffff804236e8 <fat>
ffffffff8040aa8a:	cfd8                	sw	a4,28(a5)
ffffffff8040aa8c:	fe843783          	ld	a5,-24(s0)
ffffffff8040aa90:	53d8                	lw	a4,36(a5)
ffffffff8040aa92:	00019797          	auipc	a5,0x19
ffffffff8040aa96:	c5678793          	addi	a5,a5,-938 # ffffffff804236e8 <fat>
ffffffff8040aa9a:	d398                	sw	a4,32(a5)
ffffffff8040aa9c:	fe843783          	ld	a5,-24(s0)
ffffffff8040aaa0:	57d8                	lw	a4,44(a5)
ffffffff8040aaa2:	00019797          	auipc	a5,0x19
ffffffff8040aaa6:	c4678793          	addi	a5,a5,-954 # ffffffff804236e8 <fat>
ffffffff8040aaaa:	d3d8                	sw	a4,36(a5)
ffffffff8040aaac:	00019797          	auipc	a5,0x19
ffffffff8040aab0:	c3c78793          	addi	a5,a5,-964 # ffffffff804236e8 <fat>
ffffffff8040aab4:	0147d783          	lhu	a5,20(a5)
ffffffff8040aab8:	0007871b          	sext.w	a4,a5
ffffffff8040aabc:	00019797          	auipc	a5,0x19
ffffffff8040aac0:	c2c78793          	addi	a5,a5,-980 # ffffffff804236e8 <fat>
ffffffff8040aac4:	4f9c                	lw	a5,24(a5)
ffffffff8040aac6:	9fb9                	addw	a5,a5,a4
ffffffff8040aac8:	0007871b          	sext.w	a4,a5
ffffffff8040aacc:	00019797          	auipc	a5,0x19
ffffffff8040aad0:	c1c78793          	addi	a5,a5,-996 # ffffffff804236e8 <fat>
ffffffff8040aad4:	0167c783          	lbu	a5,22(a5)
ffffffff8040aad8:	0007869b          	sext.w	a3,a5
ffffffff8040aadc:	00019797          	auipc	a5,0x19
ffffffff8040aae0:	c0c78793          	addi	a5,a5,-1012 # ffffffff804236e8 <fat>
ffffffff8040aae4:	539c                	lw	a5,32(a5)
ffffffff8040aae6:	02f687bb          	mulw	a5,a3,a5
ffffffff8040aaea:	2781                	sext.w	a5,a5
ffffffff8040aaec:	9fb9                	addw	a5,a5,a4
ffffffff8040aaee:	0007871b          	sext.w	a4,a5
ffffffff8040aaf2:	00019797          	auipc	a5,0x19
ffffffff8040aaf6:	bf678793          	addi	a5,a5,-1034 # ffffffff804236e8 <fat>
ffffffff8040aafa:	c398                	sw	a4,0(a5)
ffffffff8040aafc:	00019797          	auipc	a5,0x19
ffffffff8040ab00:	bec78793          	addi	a5,a5,-1044 # ffffffff804236e8 <fat>
ffffffff8040ab04:	4fd8                	lw	a4,28(a5)
ffffffff8040ab06:	00019797          	auipc	a5,0x19
ffffffff8040ab0a:	be278793          	addi	a5,a5,-1054 # ffffffff804236e8 <fat>
ffffffff8040ab0e:	439c                	lw	a5,0(a5)
ffffffff8040ab10:	40f707bb          	subw	a5,a4,a5
ffffffff8040ab14:	0007871b          	sext.w	a4,a5
ffffffff8040ab18:	00019797          	auipc	a5,0x19
ffffffff8040ab1c:	bd078793          	addi	a5,a5,-1072 # ffffffff804236e8 <fat>
ffffffff8040ab20:	c3d8                	sw	a4,4(a5)
ffffffff8040ab22:	00019797          	auipc	a5,0x19
ffffffff8040ab26:	bc678793          	addi	a5,a5,-1082 # ffffffff804236e8 <fat>
ffffffff8040ab2a:	43d8                	lw	a4,4(a5)
ffffffff8040ab2c:	00019797          	auipc	a5,0x19
ffffffff8040ab30:	bbc78793          	addi	a5,a5,-1092 # ffffffff804236e8 <fat>
ffffffff8040ab34:	0127c783          	lbu	a5,18(a5)
ffffffff8040ab38:	2781                	sext.w	a5,a5
ffffffff8040ab3a:	02f757bb          	divuw	a5,a4,a5
ffffffff8040ab3e:	0007871b          	sext.w	a4,a5
ffffffff8040ab42:	00019797          	auipc	a5,0x19
ffffffff8040ab46:	ba678793          	addi	a5,a5,-1114 # ffffffff804236e8 <fat>
ffffffff8040ab4a:	c798                	sw	a4,8(a5)
ffffffff8040ab4c:	00019797          	auipc	a5,0x19
ffffffff8040ab50:	b9c78793          	addi	a5,a5,-1124 # ffffffff804236e8 <fat>
ffffffff8040ab54:	0127c783          	lbu	a5,18(a5)
ffffffff8040ab58:	0007871b          	sext.w	a4,a5
ffffffff8040ab5c:	00019797          	auipc	a5,0x19
ffffffff8040ab60:	b8c78793          	addi	a5,a5,-1140 # ffffffff804236e8 <fat>
ffffffff8040ab64:	0107d783          	lhu	a5,16(a5)
ffffffff8040ab68:	2781                	sext.w	a5,a5
ffffffff8040ab6a:	02f707bb          	mulw	a5,a4,a5
ffffffff8040ab6e:	2781                	sext.w	a5,a5
ffffffff8040ab70:	0007871b          	sext.w	a4,a5
ffffffff8040ab74:	00019797          	auipc	a5,0x19
ffffffff8040ab78:	b7478793          	addi	a5,a5,-1164 # ffffffff804236e8 <fat>
ffffffff8040ab7c:	c7d8                	sw	a4,12(a5)
ffffffff8040ab7e:	00019797          	auipc	a5,0x19
ffffffff8040ab82:	b6a78793          	addi	a5,a5,-1174 # ffffffff804236e8 <fat>
ffffffff8040ab86:	0107d783          	lhu	a5,16(a5)
ffffffff8040ab8a:	2781                	sext.w	a5,a5
ffffffff8040ab8c:	85be                	mv	a1,a5
ffffffff8040ab8e:	00003517          	auipc	a0,0x3
ffffffff8040ab92:	3d250513          	addi	a0,a0,978 # ffffffff8040df60 <__FUNCTION__.2304+0x60>
ffffffff8040ab96:	bc7fb0ef          	jal	ra,ffffffff8040675c <printk>
ffffffff8040ab9a:	00019797          	auipc	a5,0x19
ffffffff8040ab9e:	b4e78793          	addi	a5,a5,-1202 # ffffffff804236e8 <fat>
ffffffff8040aba2:	53dc                	lw	a5,36(a5)
ffffffff8040aba4:	85be                	mv	a1,a5
ffffffff8040aba6:	00003517          	auipc	a0,0x3
ffffffff8040abaa:	3e250513          	addi	a0,a0,994 # ffffffff8040df88 <__FUNCTION__.2304+0x88>
ffffffff8040abae:	baffb0ef          	jal	ra,ffffffff8040675c <printk>
ffffffff8040abb2:	00019797          	auipc	a5,0x19
ffffffff8040abb6:	b3678793          	addi	a5,a5,-1226 # ffffffff804236e8 <fat>
ffffffff8040abba:	0127c783          	lbu	a5,18(a5)
ffffffff8040abbe:	2781                	sext.w	a5,a5
ffffffff8040abc0:	85be                	mv	a1,a5
ffffffff8040abc2:	00003517          	auipc	a0,0x3
ffffffff8040abc6:	3e650513          	addi	a0,a0,998 # ffffffff8040dfa8 <__FUNCTION__.2304+0xa8>
ffffffff8040abca:	b93fb0ef          	jal	ra,ffffffff8040675c <printk>
ffffffff8040abce:	00019797          	auipc	a5,0x19
ffffffff8040abd2:	b1a78793          	addi	a5,a5,-1254 # ffffffff804236e8 <fat>
ffffffff8040abd6:	0167c783          	lbu	a5,22(a5)
ffffffff8040abda:	2781                	sext.w	a5,a5
ffffffff8040abdc:	85be                	mv	a1,a5
ffffffff8040abde:	00003517          	auipc	a0,0x3
ffffffff8040abe2:	3f250513          	addi	a0,a0,1010 # ffffffff8040dfd0 <__FUNCTION__.2304+0xd0>
ffffffff8040abe6:	b77fb0ef          	jal	ra,ffffffff8040675c <printk>
ffffffff8040abea:	00019797          	auipc	a5,0x19
ffffffff8040abee:	afe78793          	addi	a5,a5,-1282 # ffffffff804236e8 <fat>
ffffffff8040abf2:	539c                	lw	a5,32(a5)
ffffffff8040abf4:	85be                	mv	a1,a5
ffffffff8040abf6:	00003517          	auipc	a0,0x3
ffffffff8040abfa:	3fa50513          	addi	a0,a0,1018 # ffffffff8040dff0 <__FUNCTION__.2304+0xf0>
ffffffff8040abfe:	b5ffb0ef          	jal	ra,ffffffff8040675c <printk>
ffffffff8040ac02:	00019797          	auipc	a5,0x19
ffffffff8040ac06:	ae678793          	addi	a5,a5,-1306 # ffffffff804236e8 <fat>
ffffffff8040ac0a:	0147d783          	lhu	a5,20(a5)
ffffffff8040ac0e:	2781                	sext.w	a5,a5
ffffffff8040ac10:	85be                	mv	a1,a5
ffffffff8040ac12:	00003517          	auipc	a0,0x3
ffffffff8040ac16:	3fe50513          	addi	a0,a0,1022 # ffffffff8040e010 <__FUNCTION__.2304+0x110>
ffffffff8040ac1a:	b43fb0ef          	jal	ra,ffffffff8040675c <printk>
ffffffff8040ac1e:	00019797          	auipc	a5,0x19
ffffffff8040ac22:	aca78793          	addi	a5,a5,-1334 # ffffffff804236e8 <fat>
ffffffff8040ac26:	4f9c                	lw	a5,24(a5)
ffffffff8040ac28:	85be                	mv	a1,a5
ffffffff8040ac2a:	00003517          	auipc	a0,0x3
ffffffff8040ac2e:	40650513          	addi	a0,a0,1030 # ffffffff8040e030 <__FUNCTION__.2304+0x130>
ffffffff8040ac32:	b2bfb0ef          	jal	ra,ffffffff8040675c <printk>
ffffffff8040ac36:	00019797          	auipc	a5,0x19
ffffffff8040ac3a:	ab278793          	addi	a5,a5,-1358 # ffffffff804236e8 <fat>
ffffffff8040ac3e:	53d8                	lw	a4,36(a5)
ffffffff8040ac40:	00019797          	auipc	a5,0x19
ffffffff8040ac44:	ad478793          	addi	a5,a5,-1324 # ffffffff80423714 <cwd_first_clus>
ffffffff8040ac48:	c398                	sw	a4,0(a5)
ffffffff8040ac4a:	00019797          	auipc	a5,0x19
ffffffff8040ac4e:	a9e78793          	addi	a5,a5,-1378 # ffffffff804236e8 <fat>
ffffffff8040ac52:	53d8                	lw	a4,36(a5)
ffffffff8040ac54:	00019797          	auipc	a5,0x19
ffffffff8040ac58:	abc78793          	addi	a5,a5,-1348 # ffffffff80423710 <cwd_clus>
ffffffff8040ac5c:	c398                	sw	a4,0(a5)
ffffffff8040ac5e:	00003597          	auipc	a1,0x3
ffffffff8040ac62:	3f258593          	addi	a1,a1,1010 # ffffffff8040e050 <__FUNCTION__.2304+0x150>
ffffffff8040ac66:	0001c517          	auipc	a0,0x1c
ffffffff8040ac6a:	aba50513          	addi	a0,a0,-1350 # ffffffff80426720 <cwd_path>
ffffffff8040ac6e:	9d0fb0ef          	jal	ra,ffffffff80405e3e <strcpy>
ffffffff8040ac72:	00019797          	auipc	a5,0x19
ffffffff8040ac76:	a7678793          	addi	a5,a5,-1418 # ffffffff804236e8 <fat>
ffffffff8040ac7a:	53dc                	lw	a5,36(a5)
ffffffff8040ac7c:	853e                	mv	a0,a5
ffffffff8040ac7e:	da6ff0ef          	jal	ra,ffffffff8040a224 <first_sec_of_clus>
ffffffff8040ac82:	87aa                	mv	a5,a0
ffffffff8040ac84:	0007871b          	sext.w	a4,a5
ffffffff8040ac88:	00019797          	auipc	a5,0x19
ffffffff8040ac8c:	a9078793          	addi	a5,a5,-1392 # ffffffff80423718 <cwd_sec>
ffffffff8040ac90:	c398                	sw	a4,0(a5)
ffffffff8040ac92:	00019797          	auipc	a5,0x19
ffffffff8040ac96:	a8678793          	addi	a5,a5,-1402 # ffffffff80423718 <cwd_sec>
ffffffff8040ac9a:	439c                	lw	a5,0(a5)
ffffffff8040ac9c:	85be                	mv	a1,a5
ffffffff8040ac9e:	00019517          	auipc	a0,0x19
ffffffff8040aca2:	a8250513          	addi	a0,a0,-1406 # ffffffff80423720 <buf>
ffffffff8040aca6:	b07ff0ef          	jal	ra,ffffffff8040a7ac <sd_read>
ffffffff8040acaa:	fe843503          	ld	a0,-24(s0)
ffffffff8040acae:	aebfa0ef          	jal	ra,ffffffff80405798 <kfree>
ffffffff8040acb2:	4781                	li	a5,0
ffffffff8040acb4:	853e                	mv	a0,a5
ffffffff8040acb6:	60e2                	ld	ra,24(sp)
ffffffff8040acb8:	6442                	ld	s0,16(sp)
ffffffff8040acba:	6105                	addi	sp,sp,32
ffffffff8040acbc:	8082                	ret

ffffffff8040acbe <fat32_read_test>:
ffffffff8040acbe:	7135                	addi	sp,sp,-160
ffffffff8040acc0:	ed06                	sd	ra,152(sp)
ffffffff8040acc2:	e922                	sd	s0,144(sp)
ffffffff8040acc4:	1100                	addi	s0,sp,160
ffffffff8040acc6:	f6a43423          	sd	a0,-152(s0)
ffffffff8040acca:	4785                	li	a5,1
ffffffff8040accc:	fef42623          	sw	a5,-20(s0)
ffffffff8040acd0:	a80d                	j	ffffffff8040ad02 <fat32_read_test+0x44>
ffffffff8040acd2:	00015717          	auipc	a4,0x15
ffffffff8040acd6:	dbe70713          	addi	a4,a4,-578 # ffffffff8041fa90 <pcb>
ffffffff8040acda:	fec42683          	lw	a3,-20(s0)
ffffffff8040acde:	2c000793          	li	a5,704
ffffffff8040ace2:	02f687b3          	mul	a5,a3,a5
ffffffff8040ace6:	97ba                	add	a5,a5,a4
ffffffff8040ace8:	53bc                	lw	a5,96(a5)
ffffffff8040acea:	873e                	mv	a4,a5
ffffffff8040acec:	4791                	li	a5,4
ffffffff8040acee:	00f70563          	beq	a4,a5,ffffffff8040acf8 <fat32_read_test+0x3a>
ffffffff8040acf2:	0ff00793          	li	a5,255
ffffffff8040acf6:	abb1                	j	ffffffff8040b252 <fat32_read_test+0x594>
ffffffff8040acf8:	fec42783          	lw	a5,-20(s0)
ffffffff8040acfc:	2785                	addiw	a5,a5,1
ffffffff8040acfe:	fef42623          	sw	a5,-20(s0)
ffffffff8040ad02:	fec42783          	lw	a5,-20(s0)
ffffffff8040ad06:	0007871b          	sext.w	a4,a5
ffffffff8040ad0a:	47bd                	li	a5,15
ffffffff8040ad0c:	fce7d3e3          	bge	a5,a4,ffffffff8040acd2 <fat32_read_test+0x14>
ffffffff8040ad10:	a81d                	j	ffffffff8040ad46 <fat32_read_test+0x88>
ffffffff8040ad12:	0000e797          	auipc	a5,0xe
ffffffff8040ad16:	96678793          	addi	a5,a5,-1690 # ffffffff80418678 <p.1919>
ffffffff8040ad1a:	639c                	ld	a5,0(a5)
ffffffff8040ad1c:	00019697          	auipc	a3,0x19
ffffffff8040ad20:	9fc68693          	addi	a3,a3,-1540 # ffffffff80423718 <cwd_sec>
ffffffff8040ad24:	00019617          	auipc	a2,0x19
ffffffff8040ad28:	9ec60613          	addi	a2,a2,-1556 # ffffffff80423710 <cwd_clus>
ffffffff8040ad2c:	00019597          	auipc	a1,0x19
ffffffff8040ad30:	9f458593          	addi	a1,a1,-1548 # ffffffff80423720 <buf>
ffffffff8040ad34:	853e                	mv	a0,a5
ffffffff8040ad36:	b65ff0ef          	jal	ra,ffffffff8040a89a <get_next_dentry>
ffffffff8040ad3a:	872a                	mv	a4,a0
ffffffff8040ad3c:	0000e797          	auipc	a5,0xe
ffffffff8040ad40:	93c78793          	addi	a5,a5,-1732 # ffffffff80418678 <p.1919>
ffffffff8040ad44:	e398                	sd	a4,0(a5)
ffffffff8040ad46:	0000e797          	auipc	a5,0xe
ffffffff8040ad4a:	93278793          	addi	a5,a5,-1742 # ffffffff80418678 <p.1919>
ffffffff8040ad4e:	639c                	ld	a5,0(a5)
ffffffff8040ad50:	00b7c783          	lbu	a5,11(a5)
ffffffff8040ad54:	873e                	mv	a4,a5
ffffffff8040ad56:	47bd                	li	a5,15
ffffffff8040ad58:	faf70de3          	beq	a4,a5,ffffffff8040ad12 <fat32_read_test+0x54>
ffffffff8040ad5c:	0000e797          	auipc	a5,0xe
ffffffff8040ad60:	91c78793          	addi	a5,a5,-1764 # ffffffff80418678 <p.1919>
ffffffff8040ad64:	639c                	ld	a5,0(a5)
ffffffff8040ad66:	0007c783          	lbu	a5,0(a5)
ffffffff8040ad6a:	873e                	mv	a4,a5
ffffffff8040ad6c:	0e500793          	li	a5,229
ffffffff8040ad70:	faf701e3          	beq	a4,a5,ffffffff8040ad12 <fat32_read_test+0x54>
ffffffff8040ad74:	0000e797          	auipc	a5,0xe
ffffffff8040ad78:	90478793          	addi	a5,a5,-1788 # ffffffff80418678 <p.1919>
ffffffff8040ad7c:	639c                	ld	a5,0(a5)
ffffffff8040ad7e:	fef43023          	sd	a5,-32(s0)
ffffffff8040ad82:	fc040fa3          	sb	zero,-33(s0)
ffffffff8040ad86:	a839                	j	ffffffff8040ada4 <fat32_read_test+0xe6>
ffffffff8040ad88:	fe043783          	ld	a5,-32(s0)
ffffffff8040ad8c:	00178713          	addi	a4,a5,1
ffffffff8040ad90:	fee43023          	sd	a4,-32(s0)
ffffffff8040ad94:	0007c783          	lbu	a5,0(a5)
ffffffff8040ad98:	ef91                	bnez	a5,ffffffff8040adb4 <fat32_read_test+0xf6>
ffffffff8040ad9a:	fdf44783          	lbu	a5,-33(s0)
ffffffff8040ad9e:	2785                	addiw	a5,a5,1
ffffffff8040ada0:	fcf40fa3          	sb	a5,-33(s0)
ffffffff8040ada4:	fdf44783          	lbu	a5,-33(s0)
ffffffff8040ada8:	0ff7f713          	andi	a4,a5,255
ffffffff8040adac:	47fd                	li	a5,31
ffffffff8040adae:	fce7fde3          	bgeu	a5,a4,ffffffff8040ad88 <fat32_read_test+0xca>
ffffffff8040adb2:	a011                	j	ffffffff8040adb6 <fat32_read_test+0xf8>
ffffffff8040adb4:	0001                	nop
ffffffff8040adb6:	fdf44783          	lbu	a5,-33(s0)
ffffffff8040adba:	0ff7f713          	andi	a4,a5,255
ffffffff8040adbe:	02000793          	li	a5,32
ffffffff8040adc2:	00f71463          	bne	a4,a5,ffffffff8040adca <fat32_read_test+0x10c>
ffffffff8040adc6:	4781                	li	a5,0
ffffffff8040adc8:	a169                	j	ffffffff8040b252 <fat32_read_test+0x594>
ffffffff8040adca:	0000e797          	auipc	a5,0xe
ffffffff8040adce:	8ae78793          	addi	a5,a5,-1874 # ffffffff80418678 <p.1919>
ffffffff8040add2:	639c                	ld	a5,0(a5)
ffffffff8040add4:	01c7c703          	lbu	a4,28(a5)
ffffffff8040add8:	01d7c683          	lbu	a3,29(a5)
ffffffff8040addc:	06a2                	slli	a3,a3,0x8
ffffffff8040adde:	8f55                	or	a4,a4,a3
ffffffff8040ade0:	01e7c683          	lbu	a3,30(a5)
ffffffff8040ade4:	06c2                	slli	a3,a3,0x10
ffffffff8040ade6:	8f55                	or	a4,a4,a3
ffffffff8040ade8:	01f7c783          	lbu	a5,31(a5)
ffffffff8040adec:	07e2                	slli	a5,a5,0x18
ffffffff8040adee:	8fd9                	or	a5,a5,a4
ffffffff8040adf0:	2781                	sext.w	a5,a5
ffffffff8040adf2:	ef8d                	bnez	a5,ffffffff8040ae2c <fat32_read_test+0x16e>
ffffffff8040adf4:	0000e797          	auipc	a5,0xe
ffffffff8040adf8:	88478793          	addi	a5,a5,-1916 # ffffffff80418678 <p.1919>
ffffffff8040adfc:	639c                	ld	a5,0(a5)
ffffffff8040adfe:	00019697          	auipc	a3,0x19
ffffffff8040ae02:	91a68693          	addi	a3,a3,-1766 # ffffffff80423718 <cwd_sec>
ffffffff8040ae06:	00019617          	auipc	a2,0x19
ffffffff8040ae0a:	90a60613          	addi	a2,a2,-1782 # ffffffff80423710 <cwd_clus>
ffffffff8040ae0e:	00019597          	auipc	a1,0x19
ffffffff8040ae12:	91258593          	addi	a1,a1,-1774 # ffffffff80423720 <buf>
ffffffff8040ae16:	853e                	mv	a0,a5
ffffffff8040ae18:	a83ff0ef          	jal	ra,ffffffff8040a89a <get_next_dentry>
ffffffff8040ae1c:	872a                	mv	a4,a0
ffffffff8040ae1e:	0000e797          	auipc	a5,0xe
ffffffff8040ae22:	85a78793          	addi	a5,a5,-1958 # ffffffff80418678 <p.1919>
ffffffff8040ae26:	e398                	sd	a4,0(a5)
ffffffff8040ae28:	4785                	li	a5,1
ffffffff8040ae2a:	a125                	j	ffffffff8040b252 <fat32_read_test+0x594>
ffffffff8040ae2c:	0000e797          	auipc	a5,0xe
ffffffff8040ae30:	84c78793          	addi	a5,a5,-1972 # ffffffff80418678 <p.1919>
ffffffff8040ae34:	639c                	ld	a5,0(a5)
ffffffff8040ae36:	00b7c783          	lbu	a5,11(a5)
ffffffff8040ae3a:	873e                	mv	a4,a5
ffffffff8040ae3c:	02000793          	li	a5,32
ffffffff8040ae40:	02f70e63          	beq	a4,a5,ffffffff8040ae7c <fat32_read_test+0x1be>
ffffffff8040ae44:	0000e797          	auipc	a5,0xe
ffffffff8040ae48:	83478793          	addi	a5,a5,-1996 # ffffffff80418678 <p.1919>
ffffffff8040ae4c:	639c                	ld	a5,0(a5)
ffffffff8040ae4e:	00019697          	auipc	a3,0x19
ffffffff8040ae52:	8ca68693          	addi	a3,a3,-1846 # ffffffff80423718 <cwd_sec>
ffffffff8040ae56:	00019617          	auipc	a2,0x19
ffffffff8040ae5a:	8ba60613          	addi	a2,a2,-1862 # ffffffff80423710 <cwd_clus>
ffffffff8040ae5e:	00019597          	auipc	a1,0x19
ffffffff8040ae62:	8c258593          	addi	a1,a1,-1854 # ffffffff80423720 <buf>
ffffffff8040ae66:	853e                	mv	a0,a5
ffffffff8040ae68:	a33ff0ef          	jal	ra,ffffffff8040a89a <get_next_dentry>
ffffffff8040ae6c:	872a                	mv	a4,a0
ffffffff8040ae6e:	0000e797          	auipc	a5,0xe
ffffffff8040ae72:	80a78793          	addi	a5,a5,-2038 # ffffffff80418678 <p.1919>
ffffffff8040ae76:	e398                	sd	a4,0(a5)
ffffffff8040ae78:	4785                	li	a5,1
ffffffff8040ae7a:	aee1                	j	ffffffff8040b252 <fat32_read_test+0x594>
ffffffff8040ae7c:	fc040f23          	sb	zero,-34(s0)
ffffffff8040ae80:	a871                	j	ffffffff8040af1c <fat32_read_test+0x25e>
ffffffff8040ae82:	fde44783          	lbu	a5,-34(s0)
ffffffff8040ae86:	0007871b          	sext.w	a4,a5
ffffffff8040ae8a:	87ba                	mv	a5,a4
ffffffff8040ae8c:	078a                	slli	a5,a5,0x2
ffffffff8040ae8e:	97ba                	add	a5,a5,a4
ffffffff8040ae90:	0786                	slli	a5,a5,0x1
ffffffff8040ae92:	00004717          	auipc	a4,0x4
ffffffff8040ae96:	85e70713          	addi	a4,a4,-1954 # ffffffff8040e6f0 <accept_table>
ffffffff8040ae9a:	97ba                	add	a5,a5,a4
ffffffff8040ae9c:	853e                	mv	a0,a5
ffffffff8040ae9e:	ca5fa0ef          	jal	ra,ffffffff80405b42 <strlen>
ffffffff8040aea2:	87aa                	mv	a5,a0
ffffffff8040aea4:	873e                	mv	a4,a5
ffffffff8040aea6:	4799                	li	a5,6
ffffffff8040aea8:	02e7c663          	blt	a5,a4,ffffffff8040aed4 <fat32_read_test+0x216>
ffffffff8040aeac:	fde44783          	lbu	a5,-34(s0)
ffffffff8040aeb0:	0007871b          	sext.w	a4,a5
ffffffff8040aeb4:	87ba                	mv	a5,a4
ffffffff8040aeb6:	078a                	slli	a5,a5,0x2
ffffffff8040aeb8:	97ba                	add	a5,a5,a4
ffffffff8040aeba:	0786                	slli	a5,a5,0x1
ffffffff8040aebc:	00004717          	auipc	a4,0x4
ffffffff8040aec0:	83470713          	addi	a4,a4,-1996 # ffffffff8040e6f0 <accept_table>
ffffffff8040aec4:	97ba                	add	a5,a5,a4
ffffffff8040aec6:	853e                	mv	a0,a5
ffffffff8040aec8:	c7bfa0ef          	jal	ra,ffffffff80405b42 <strlen>
ffffffff8040aecc:	87aa                	mv	a5,a0
ffffffff8040aece:	0ff7f793          	andi	a5,a5,255
ffffffff8040aed2:	a011                	j	ffffffff8040aed6 <fat32_read_test+0x218>
ffffffff8040aed4:	4799                	li	a5,6
ffffffff8040aed6:	faf40fa3          	sb	a5,-65(s0)
ffffffff8040aeda:	0000d797          	auipc	a5,0xd
ffffffff8040aede:	79e78793          	addi	a5,a5,1950 # ffffffff80418678 <p.1919>
ffffffff8040aee2:	639c                	ld	a5,0(a5)
ffffffff8040aee4:	86be                	mv	a3,a5
ffffffff8040aee6:	fde44783          	lbu	a5,-34(s0)
ffffffff8040aeea:	0007871b          	sext.w	a4,a5
ffffffff8040aeee:	87ba                	mv	a5,a4
ffffffff8040aef0:	078a                	slli	a5,a5,0x2
ffffffff8040aef2:	97ba                	add	a5,a5,a4
ffffffff8040aef4:	0786                	slli	a5,a5,0x1
ffffffff8040aef6:	00003717          	auipc	a4,0x3
ffffffff8040aefa:	7fa70713          	addi	a4,a4,2042 # ffffffff8040e6f0 <accept_table>
ffffffff8040aefe:	97ba                	add	a5,a5,a4
ffffffff8040af00:	fbf44703          	lbu	a4,-65(s0)
ffffffff8040af04:	863a                	mv	a2,a4
ffffffff8040af06:	85be                	mv	a1,a5
ffffffff8040af08:	8536                	mv	a0,a3
ffffffff8040af0a:	cbffa0ef          	jal	ra,ffffffff80405bc8 <memcmp>
ffffffff8040af0e:	87aa                	mv	a5,a0
ffffffff8040af10:	cf81                	beqz	a5,ffffffff8040af28 <fat32_read_test+0x26a>
ffffffff8040af12:	fde44783          	lbu	a5,-34(s0)
ffffffff8040af16:	2785                	addiw	a5,a5,1
ffffffff8040af18:	fcf40f23          	sb	a5,-34(s0)
ffffffff8040af1c:	fde44783          	lbu	a5,-34(s0)
ffffffff8040af20:	0ff7f793          	andi	a5,a5,255
ffffffff8040af24:	dfb9                	beqz	a5,ffffffff8040ae82 <fat32_read_test+0x1c4>
ffffffff8040af26:	a011                	j	ffffffff8040af2a <fat32_read_test+0x26c>
ffffffff8040af28:	0001                	nop
ffffffff8040af2a:	fde44783          	lbu	a5,-34(s0)
ffffffff8040af2e:	0ff7f713          	andi	a4,a5,255
ffffffff8040af32:	4785                	li	a5,1
ffffffff8040af34:	02f71e63          	bne	a4,a5,ffffffff8040af70 <fat32_read_test+0x2b2>
ffffffff8040af38:	0000d797          	auipc	a5,0xd
ffffffff8040af3c:	74078793          	addi	a5,a5,1856 # ffffffff80418678 <p.1919>
ffffffff8040af40:	639c                	ld	a5,0(a5)
ffffffff8040af42:	00018697          	auipc	a3,0x18
ffffffff8040af46:	7d668693          	addi	a3,a3,2006 # ffffffff80423718 <cwd_sec>
ffffffff8040af4a:	00018617          	auipc	a2,0x18
ffffffff8040af4e:	7c660613          	addi	a2,a2,1990 # ffffffff80423710 <cwd_clus>
ffffffff8040af52:	00018597          	auipc	a1,0x18
ffffffff8040af56:	7ce58593          	addi	a1,a1,1998 # ffffffff80423720 <buf>
ffffffff8040af5a:	853e                	mv	a0,a5
ffffffff8040af5c:	93fff0ef          	jal	ra,ffffffff8040a89a <get_next_dentry>
ffffffff8040af60:	872a                	mv	a4,a0
ffffffff8040af62:	0000d797          	auipc	a5,0xd
ffffffff8040af66:	71678793          	addi	a5,a5,1814 # ffffffff80418678 <p.1919>
ffffffff8040af6a:	e398                	sd	a4,0(a5)
ffffffff8040af6c:	4785                	li	a5,1
ffffffff8040af6e:	a4d5                	j	ffffffff8040b252 <fat32_read_test+0x594>
ffffffff8040af70:	0000d797          	auipc	a5,0xd
ffffffff8040af74:	70878793          	addi	a5,a5,1800 # ffffffff80418678 <p.1919>
ffffffff8040af78:	639c                	ld	a5,0(a5)
ffffffff8040af7a:	853e                	mv	a0,a5
ffffffff8040af7c:	b52ff0ef          	jal	ra,ffffffff8040a2ce <get_cluster_from_dentry>
ffffffff8040af80:	87aa                	mv	a5,a0
ffffffff8040af82:	fcf42c23          	sw	a5,-40(s0)
ffffffff8040af86:	fd842783          	lw	a5,-40(s0)
ffffffff8040af8a:	853e                	mv	a0,a5
ffffffff8040af8c:	a98ff0ef          	jal	ra,ffffffff8040a224 <first_sec_of_clus>
ffffffff8040af90:	87aa                	mv	a5,a0
ffffffff8040af92:	fcf42a23          	sw	a5,-44(s0)
ffffffff8040af96:	823fa0ef          	jal	ra,ffffffff804057b8 <allocproc>
ffffffff8040af9a:	faa43823          	sd	a0,-80(s0)
ffffffff8040af9e:	fb043783          	ld	a5,-80(s0)
ffffffff8040afa2:	fcf43423          	sd	a5,-56(s0)
ffffffff8040afa6:	fc042223          	sw	zero,-60(s0)
ffffffff8040afaa:	a0e1                	j	ffffffff8040b072 <fat32_read_test+0x3b4>
ffffffff8040afac:	fd442783          	lw	a5,-44(s0)
ffffffff8040afb0:	85be                	mv	a1,a5
ffffffff8040afb2:	fc843503          	ld	a0,-56(s0)
ffffffff8040afb6:	ff6ff0ef          	jal	ra,ffffffff8040a7ac <sd_read>
ffffffff8040afba:	00018797          	auipc	a5,0x18
ffffffff8040afbe:	72e78793          	addi	a5,a5,1838 # ffffffff804236e8 <fat>
ffffffff8040afc2:	47dc                	lw	a5,12(a5)
ffffffff8040afc4:	0007869b          	sext.w	a3,a5
ffffffff8040afc8:	6705                	lui	a4,0x1
ffffffff8040afca:	00d77363          	bgeu	a4,a3,ffffffff8040afd0 <fat32_read_test+0x312>
ffffffff8040afce:	6785                	lui	a5,0x1
ffffffff8040afd0:	2781                	sext.w	a5,a5
ffffffff8040afd2:	fc442703          	lw	a4,-60(s0)
ffffffff8040afd6:	9fb9                	addw	a5,a5,a4
ffffffff8040afd8:	fcf42223          	sw	a5,-60(s0)
ffffffff8040afdc:	00018797          	auipc	a5,0x18
ffffffff8040afe0:	70c78793          	addi	a5,a5,1804 # ffffffff804236e8 <fat>
ffffffff8040afe4:	47dc                	lw	a5,12(a5)
ffffffff8040afe6:	0007869b          	sext.w	a3,a5
ffffffff8040afea:	6705                	lui	a4,0x1
ffffffff8040afec:	00d77363          	bgeu	a4,a3,ffffffff8040aff2 <fat32_read_test+0x334>
ffffffff8040aff0:	6785                	lui	a5,0x1
ffffffff8040aff2:	2781                	sext.w	a5,a5
ffffffff8040aff4:	1782                	slli	a5,a5,0x20
ffffffff8040aff6:	9381                	srli	a5,a5,0x20
ffffffff8040aff8:	fc843703          	ld	a4,-56(s0)
ffffffff8040affc:	97ba                	add	a5,a5,a4
ffffffff8040affe:	fcf43423          	sd	a5,-56(s0)
ffffffff8040b002:	00018797          	auipc	a5,0x18
ffffffff8040b006:	6e678793          	addi	a5,a5,1766 # ffffffff804236e8 <fat>
ffffffff8040b00a:	47dc                	lw	a5,12(a5)
ffffffff8040b00c:	fc442703          	lw	a4,-60(s0)
ffffffff8040b010:	02f777bb          	remuw	a5,a4,a5
ffffffff8040b014:	2781                	sext.w	a5,a5
ffffffff8040b016:	e395                	bnez	a5,ffffffff8040b03a <fat32_read_test+0x37c>
ffffffff8040b018:	fd842783          	lw	a5,-40(s0)
ffffffff8040b01c:	853e                	mv	a0,a5
ffffffff8040b01e:	b2eff0ef          	jal	ra,ffffffff8040a34c <get_next_cluster>
ffffffff8040b022:	87aa                	mv	a5,a0
ffffffff8040b024:	fcf42c23          	sw	a5,-40(s0)
ffffffff8040b028:	fd842783          	lw	a5,-40(s0)
ffffffff8040b02c:	853e                	mv	a0,a5
ffffffff8040b02e:	9f6ff0ef          	jal	ra,ffffffff8040a224 <first_sec_of_clus>
ffffffff8040b032:	87aa                	mv	a5,a0
ffffffff8040b034:	fcf42a23          	sw	a5,-44(s0)
ffffffff8040b038:	a82d                	j	ffffffff8040b072 <fat32_read_test+0x3b4>
ffffffff8040b03a:	00018797          	auipc	a5,0x18
ffffffff8040b03e:	6ae78793          	addi	a5,a5,1710 # ffffffff804236e8 <fat>
ffffffff8040b042:	47dc                	lw	a5,12(a5)
ffffffff8040b044:	0007869b          	sext.w	a3,a5
ffffffff8040b048:	6705                	lui	a4,0x1
ffffffff8040b04a:	00d77363          	bgeu	a4,a3,ffffffff8040b050 <fat32_read_test+0x392>
ffffffff8040b04e:	6785                	lui	a5,0x1
ffffffff8040b050:	0007871b          	sext.w	a4,a5
ffffffff8040b054:	00018797          	auipc	a5,0x18
ffffffff8040b058:	69478793          	addi	a5,a5,1684 # ffffffff804236e8 <fat>
ffffffff8040b05c:	0107d783          	lhu	a5,16(a5)
ffffffff8040b060:	2781                	sext.w	a5,a5
ffffffff8040b062:	02f757bb          	divuw	a5,a4,a5
ffffffff8040b066:	2781                	sext.w	a5,a5
ffffffff8040b068:	fd442703          	lw	a4,-44(s0)
ffffffff8040b06c:	9fb9                	addw	a5,a5,a4
ffffffff8040b06e:	fcf42a23          	sw	a5,-44(s0)
ffffffff8040b072:	0000d797          	auipc	a5,0xd
ffffffff8040b076:	60678793          	addi	a5,a5,1542 # ffffffff80418678 <p.1919>
ffffffff8040b07a:	639c                	ld	a5,0(a5)
ffffffff8040b07c:	01c7c703          	lbu	a4,28(a5)
ffffffff8040b080:	01d7c683          	lbu	a3,29(a5)
ffffffff8040b084:	06a2                	slli	a3,a3,0x8
ffffffff8040b086:	8f55                	or	a4,a4,a3
ffffffff8040b088:	01e7c683          	lbu	a3,30(a5)
ffffffff8040b08c:	06c2                	slli	a3,a3,0x10
ffffffff8040b08e:	8f55                	or	a4,a4,a3
ffffffff8040b090:	01f7c783          	lbu	a5,31(a5)
ffffffff8040b094:	07e2                	slli	a5,a5,0x18
ffffffff8040b096:	8fd9                	or	a5,a5,a4
ffffffff8040b098:	0007871b          	sext.w	a4,a5
ffffffff8040b09c:	fc442783          	lw	a5,-60(s0)
ffffffff8040b0a0:	2781                	sext.w	a5,a5
ffffffff8040b0a2:	f0e7e5e3          	bltu	a5,a4,ffffffff8040afac <fat32_read_test+0x2ee>
ffffffff8040b0a6:	fb043783          	ld	a5,-80(s0)
ffffffff8040b0aa:	faf43423          	sd	a5,-88(s0)
ffffffff8040b0ae:	0000d797          	auipc	a5,0xd
ffffffff8040b0b2:	5ca78793          	addi	a5,a5,1482 # ffffffff80418678 <p.1919>
ffffffff8040b0b6:	639c                	ld	a5,0(a5)
ffffffff8040b0b8:	01c7c703          	lbu	a4,28(a5)
ffffffff8040b0bc:	01d7c683          	lbu	a3,29(a5)
ffffffff8040b0c0:	06a2                	slli	a3,a3,0x8
ffffffff8040b0c2:	8f55                	or	a4,a4,a3
ffffffff8040b0c4:	01e7c683          	lbu	a3,30(a5)
ffffffff8040b0c8:	06c2                	slli	a3,a3,0x10
ffffffff8040b0ca:	8f55                	or	a4,a4,a3
ffffffff8040b0cc:	01f7c783          	lbu	a5,31(a5)
ffffffff8040b0d0:	07e2                	slli	a5,a5,0x18
ffffffff8040b0d2:	8fd9                	or	a5,a5,a4
ffffffff8040b0d4:	faf42223          	sw	a5,-92(s0)
ffffffff8040b0d8:	4785                	li	a5,1
ffffffff8040b0da:	fcf42023          	sw	a5,-64(s0)
ffffffff8040b0de:	a2b9                	j	ffffffff8040b22c <fat32_read_test+0x56e>
ffffffff8040b0e0:	00015717          	auipc	a4,0x15
ffffffff8040b0e4:	9b070713          	addi	a4,a4,-1616 # ffffffff8041fa90 <pcb>
ffffffff8040b0e8:	fc046683          	lwu	a3,-64(s0)
ffffffff8040b0ec:	2c000793          	li	a5,704
ffffffff8040b0f0:	02f687b3          	mul	a5,a3,a5
ffffffff8040b0f4:	97ba                	add	a5,a5,a4
ffffffff8040b0f6:	53bc                	lw	a5,96(a5)
ffffffff8040b0f8:	873e                	mv	a4,a5
ffffffff8040b0fa:	4791                	li	a5,4
ffffffff8040b0fc:	12f71363          	bne	a4,a5,ffffffff8040b222 <fat32_read_test+0x564>
ffffffff8040b100:	fc046703          	lwu	a4,-64(s0)
ffffffff8040b104:	2c000793          	li	a5,704
ffffffff8040b108:	02f70733          	mul	a4,a4,a5
ffffffff8040b10c:	00015797          	auipc	a5,0x15
ffffffff8040b110:	98478793          	addi	a5,a5,-1660 # ffffffff8041fa90 <pcb>
ffffffff8040b114:	97ba                	add	a5,a5,a4
ffffffff8040b116:	f8f43c23          	sd	a5,-104(s0)
ffffffff8040b11a:	9baf90ef          	jal	ra,ffffffff804042d4 <allocPage>
ffffffff8040b11e:	872a                	mv	a4,a0
ffffffff8040b120:	6785                	lui	a5,0x1
ffffffff8040b122:	97ba                	add	a5,a5,a4
ffffffff8040b124:	f8f43823          	sd	a5,-112(s0)
ffffffff8040b128:	000f07b7          	lui	a5,0xf0
ffffffff8040b12c:	0785                	addi	a5,a5,1
ffffffff8040b12e:	07c2                	slli	a5,a5,0x10
ffffffff8040b130:	f8f43423          	sd	a5,-120(s0)
ffffffff8040b134:	4589                	li	a1,2
ffffffff8040b136:	f9843503          	ld	a0,-104(s0)
ffffffff8040b13a:	d44ff0ef          	jal	ra,ffffffff8040a67e <init_pcb_default>
ffffffff8040b13e:	996f90ef          	jal	ra,ffffffff804042d4 <allocPage>
ffffffff8040b142:	f8a43023          	sd	a0,-128(s0)
ffffffff8040b146:	f8043503          	ld	a0,-128(s0)
ffffffff8040b14a:	88eff0ef          	jal	ra,ffffffff8040a1d8 <clear_pgdir>
ffffffff8040b14e:	f8843703          	ld	a4,-120(s0)
ffffffff8040b152:	77fd                	lui	a5,0xfffff
ffffffff8040b154:	97ba                	add	a5,a5,a4
ffffffff8040b156:	0d600613          	li	a2,214
ffffffff8040b15a:	f8043583          	ld	a1,-128(s0)
ffffffff8040b15e:	853e                	mv	a0,a5
ffffffff8040b160:	be0fa0ef          	jal	ra,ffffffff80405540 <alloc_page_helper>
ffffffff8040b164:	f6a43c23          	sd	a0,-136(s0)
ffffffff8040b168:	fa442783          	lw	a5,-92(s0)
ffffffff8040b16c:	ffffa697          	auipc	a3,0xffffa
ffffffff8040b170:	3d468693          	addi	a3,a3,980 # ffffffff80405540 <alloc_page_helper>
ffffffff8040b174:	f8043603          	ld	a2,-128(s0)
ffffffff8040b178:	85be                	mv	a1,a5
ffffffff8040b17a:	fa843503          	ld	a0,-88(s0)
ffffffff8040b17e:	b22ff0ef          	jal	ra,ffffffff8040a4a0 <load_elf>
ffffffff8040b182:	f6a43823          	sd	a0,-144(s0)
ffffffff8040b186:	008037b7          	lui	a5,0x803
ffffffff8040b18a:	00879513          	slli	a0,a5,0x8
ffffffff8040b18e:	82eff0ef          	jal	ra,ffffffff8040a1bc <pa2kva>
ffffffff8040b192:	87aa                	mv	a5,a0
ffffffff8040b194:	85be                	mv	a1,a5
ffffffff8040b196:	f8043503          	ld	a0,-128(s0)
ffffffff8040b19a:	b0cfa0ef          	jal	ra,ffffffff804054a6 <share_pgtable>
ffffffff8040b19e:	f8843703          	ld	a4,-120(s0)
ffffffff8040b1a2:	77fd                	lui	a5,0xfffff
ffffffff8040b1a4:	97ba                	add	a5,a5,a4
ffffffff8040b1a6:	f9843803          	ld	a6,-104(s0)
ffffffff8040b1aa:	4701                	li	a4,0
ffffffff8040b1ac:	f7043683          	ld	a3,-144(s0)
ffffffff8040b1b0:	f8843603          	ld	a2,-120(s0)
ffffffff8040b1b4:	f9043583          	ld	a1,-112(s0)
ffffffff8040b1b8:	f8043503          	ld	a0,-128(s0)
ffffffff8040b1bc:	a21f70ef          	jal	ra,ffffffff80402bdc <init_pcb_stack>
ffffffff8040b1c0:	f9843783          	ld	a5,-104(s0)
ffffffff8040b1c4:	02878793          	addi	a5,a5,40 # fffffffffffff028 <__BSS_END__+0x7fbd78c8>
ffffffff8040b1c8:	853e                	mv	a0,a5
ffffffff8040b1ca:	f49fe0ef          	jal	ra,ffffffff8040a112 <list_del>
ffffffff8040b1ce:	f9843783          	ld	a5,-104(s0)
ffffffff8040b1d2:	02878793          	addi	a5,a5,40
ffffffff8040b1d6:	00003597          	auipc	a1,0x3
ffffffff8040b1da:	44258593          	addi	a1,a1,1090 # ffffffff8040e618 <ready_queue>
ffffffff8040b1de:	853e                	mv	a0,a5
ffffffff8040b1e0:	f7dfe0ef          	jal	ra,ffffffff8040a15c <list_add_tail>
ffffffff8040b1e4:	de6fa0ef          	jal	ra,ffffffff804057ca <allocfree>
ffffffff8040b1e8:	0000d797          	auipc	a5,0xd
ffffffff8040b1ec:	49078793          	addi	a5,a5,1168 # ffffffff80418678 <p.1919>
ffffffff8040b1f0:	639c                	ld	a5,0(a5)
ffffffff8040b1f2:	00018697          	auipc	a3,0x18
ffffffff8040b1f6:	52668693          	addi	a3,a3,1318 # ffffffff80423718 <cwd_sec>
ffffffff8040b1fa:	00018617          	auipc	a2,0x18
ffffffff8040b1fe:	51660613          	addi	a2,a2,1302 # ffffffff80423710 <cwd_clus>
ffffffff8040b202:	00018597          	auipc	a1,0x18
ffffffff8040b206:	51e58593          	addi	a1,a1,1310 # ffffffff80423720 <buf>
ffffffff8040b20a:	853e                	mv	a0,a5
ffffffff8040b20c:	e8eff0ef          	jal	ra,ffffffff8040a89a <get_next_dentry>
ffffffff8040b210:	872a                	mv	a4,a0
ffffffff8040b212:	0000d797          	auipc	a5,0xd
ffffffff8040b216:	46678793          	addi	a5,a5,1126 # ffffffff80418678 <p.1919>
ffffffff8040b21a:	e398                	sd	a4,0(a5)
ffffffff8040b21c:	0ff00793          	li	a5,255
ffffffff8040b220:	a80d                	j	ffffffff8040b252 <fat32_read_test+0x594>
ffffffff8040b222:	fc042783          	lw	a5,-64(s0)
ffffffff8040b226:	2785                	addiw	a5,a5,1
ffffffff8040b228:	fcf42023          	sw	a5,-64(s0)
ffffffff8040b22c:	fc042783          	lw	a5,-64(s0)
ffffffff8040b230:	0007871b          	sext.w	a4,a5
ffffffff8040b234:	47bd                	li	a5,15
ffffffff8040b236:	eae7f5e3          	bgeu	a5,a4,ffffffff8040b0e0 <fat32_read_test+0x422>
ffffffff8040b23a:	00003617          	auipc	a2,0x3
ffffffff8040b23e:	e3660613          	addi	a2,a2,-458 # ffffffff8040e070 <__FUNCTION__.1951>
ffffffff8040b242:	0eb00593          	li	a1,235
ffffffff8040b246:	00003517          	auipc	a0,0x3
ffffffff8040b24a:	e1250513          	addi	a0,a0,-494 # ffffffff8040e058 <__FUNCTION__.2304+0x158>
ffffffff8040b24e:	f3dfe0ef          	jal	ra,ffffffff8040a18a <_panic>
ffffffff8040b252:	853e                	mv	a0,a5
ffffffff8040b254:	60ea                	ld	ra,152(sp)
ffffffff8040b256:	644a                	ld	s0,144(sp)
ffffffff8040b258:	610d                	addi	sp,sp,160
ffffffff8040b25a:	8082                	ret

ffffffff8040b25c <fat32_write>:
ffffffff8040b25c:	7179                	addi	sp,sp,-48
ffffffff8040b25e:	f406                	sd	ra,40(sp)
ffffffff8040b260:	f022                	sd	s0,32(sp)
ffffffff8040b262:	1800                	addi	s0,sp,48
ffffffff8040b264:	87aa                	mv	a5,a0
ffffffff8040b266:	feb43023          	sd	a1,-32(s0)
ffffffff8040b26a:	fcc43c23          	sd	a2,-40(s0)
ffffffff8040b26e:	fef42623          	sw	a5,-20(s0)
ffffffff8040b272:	fd843783          	ld	a5,-40(s0)
ffffffff8040b276:	e399                	bnez	a5,ffffffff8040b27c <fat32_write+0x20>
ffffffff8040b278:	4781                	li	a5,0
ffffffff8040b27a:	a0a9                	j	ffffffff8040b2c4 <fat32_write+0x68>
ffffffff8040b27c:	fec42783          	lw	a5,-20(s0)
ffffffff8040b280:	0007871b          	sext.w	a4,a5
ffffffff8040b284:	4785                	li	a5,1
ffffffff8040b286:	02f71f63          	bne	a4,a5,ffffffff8040b2c4 <fat32_write+0x68>
ffffffff8040b28a:	fd843783          	ld	a5,-40(s0)
ffffffff8040b28e:	2781                	sext.w	a5,a5
ffffffff8040b290:	863e                	mv	a2,a5
ffffffff8040b292:	fe043583          	ld	a1,-32(s0)
ffffffff8040b296:	00019517          	auipc	a0,0x19
ffffffff8040b29a:	48a50513          	addi	a0,a0,1162 # ffffffff80424720 <stdout_buf>
ffffffff8040b29e:	8dbfa0ef          	jal	ra,ffffffff80405b78 <memcpy>
ffffffff8040b2a2:	00019717          	auipc	a4,0x19
ffffffff8040b2a6:	47e70713          	addi	a4,a4,1150 # ffffffff80424720 <stdout_buf>
ffffffff8040b2aa:	fd843783          	ld	a5,-40(s0)
ffffffff8040b2ae:	97ba                	add	a5,a5,a4
ffffffff8040b2b0:	00078023          	sb	zero,0(a5)
ffffffff8040b2b4:	00019517          	auipc	a0,0x19
ffffffff8040b2b8:	46c50513          	addi	a0,a0,1132 # ffffffff80424720 <stdout_buf>
ffffffff8040b2bc:	e08fb0ef          	jal	ra,ffffffff804068c4 <printk_port>
ffffffff8040b2c0:	87aa                	mv	a5,a0
ffffffff8040b2c2:	a009                	j	ffffffff8040b2c4 <fat32_write+0x68>
ffffffff8040b2c4:	853e                	mv	a0,a5
ffffffff8040b2c6:	70a2                	ld	ra,40(sp)
ffffffff8040b2c8:	7402                	ld	s0,32(sp)
ffffffff8040b2ca:	6145                	addi	sp,sp,48
ffffffff8040b2cc:	8082                	ret

ffffffff8040b2ce <unicode2char>:
ffffffff8040b2ce:	1101                	addi	sp,sp,-32
ffffffff8040b2d0:	ec22                	sd	s0,24(sp)
ffffffff8040b2d2:	1000                	addi	s0,sp,32
ffffffff8040b2d4:	87aa                	mv	a5,a0
ffffffff8040b2d6:	fef41723          	sh	a5,-18(s0)
ffffffff8040b2da:	fee45783          	lhu	a5,-18(s0)
ffffffff8040b2de:	0007871b          	sext.w	a4,a5
ffffffff8040b2e2:	04000793          	li	a5,64
ffffffff8040b2e6:	00e7ff63          	bgeu	a5,a4,ffffffff8040b304 <unicode2char+0x36>
ffffffff8040b2ea:	fee45783          	lhu	a5,-18(s0)
ffffffff8040b2ee:	0007871b          	sext.w	a4,a5
ffffffff8040b2f2:	05a00793          	li	a5,90
ffffffff8040b2f6:	00e7e763          	bltu	a5,a4,ffffffff8040b304 <unicode2char+0x36>
ffffffff8040b2fa:	fee45783          	lhu	a5,-18(s0)
ffffffff8040b2fe:	0ff7f793          	andi	a5,a5,255
ffffffff8040b302:	a8a9                	j	ffffffff8040b35c <unicode2char+0x8e>
ffffffff8040b304:	fee45783          	lhu	a5,-18(s0)
ffffffff8040b308:	0007871b          	sext.w	a4,a5
ffffffff8040b30c:	06000793          	li	a5,96
ffffffff8040b310:	00e7ff63          	bgeu	a5,a4,ffffffff8040b32e <unicode2char+0x60>
ffffffff8040b314:	fee45783          	lhu	a5,-18(s0)
ffffffff8040b318:	0007871b          	sext.w	a4,a5
ffffffff8040b31c:	07a00793          	li	a5,122
ffffffff8040b320:	00e7e763          	bltu	a5,a4,ffffffff8040b32e <unicode2char+0x60>
ffffffff8040b324:	fee45783          	lhu	a5,-18(s0)
ffffffff8040b328:	0ff7f793          	andi	a5,a5,255
ffffffff8040b32c:	a805                	j	ffffffff8040b35c <unicode2char+0x8e>
ffffffff8040b32e:	fee45783          	lhu	a5,-18(s0)
ffffffff8040b332:	0007871b          	sext.w	a4,a5
ffffffff8040b336:	05f00793          	li	a5,95
ffffffff8040b33a:	00f70f63          	beq	a4,a5,ffffffff8040b358 <unicode2char+0x8a>
ffffffff8040b33e:	fee45783          	lhu	a5,-18(s0)
ffffffff8040b342:	0007871b          	sext.w	a4,a5
ffffffff8040b346:	02e00793          	li	a5,46
ffffffff8040b34a:	00f71563          	bne	a4,a5,ffffffff8040b354 <unicode2char+0x86>
ffffffff8040b34e:	02e00793          	li	a5,46
ffffffff8040b352:	a029                	j	ffffffff8040b35c <unicode2char+0x8e>
ffffffff8040b354:	4781                	li	a5,0
ffffffff8040b356:	a019                	j	ffffffff8040b35c <unicode2char+0x8e>
ffffffff8040b358:	05f00793          	li	a5,95
ffffffff8040b35c:	853e                	mv	a0,a5
ffffffff8040b35e:	6462                	ld	s0,24(sp)
ffffffff8040b360:	6105                	addi	sp,sp,32
ffffffff8040b362:	8082                	ret

ffffffff8040b364 <char2unicode>:
ffffffff8040b364:	1101                	addi	sp,sp,-32
ffffffff8040b366:	ec22                	sd	s0,24(sp)
ffffffff8040b368:	1000                	addi	s0,sp,32
ffffffff8040b36a:	87aa                	mv	a5,a0
ffffffff8040b36c:	fef407a3          	sb	a5,-17(s0)
ffffffff8040b370:	fef44783          	lbu	a5,-17(s0)
ffffffff8040b374:	0ff7f713          	andi	a4,a5,255
ffffffff8040b378:	04000793          	li	a5,64
ffffffff8040b37c:	00e7ff63          	bgeu	a5,a4,ffffffff8040b39a <char2unicode+0x36>
ffffffff8040b380:	fef44783          	lbu	a5,-17(s0)
ffffffff8040b384:	0ff7f713          	andi	a4,a5,255
ffffffff8040b388:	05a00793          	li	a5,90
ffffffff8040b38c:	00e7e763          	bltu	a5,a4,ffffffff8040b39a <char2unicode+0x36>
ffffffff8040b390:	fef44783          	lbu	a5,-17(s0)
ffffffff8040b394:	17c2                	slli	a5,a5,0x30
ffffffff8040b396:	93c1                	srli	a5,a5,0x30
ffffffff8040b398:	a8a9                	j	ffffffff8040b3f2 <char2unicode+0x8e>
ffffffff8040b39a:	fef44783          	lbu	a5,-17(s0)
ffffffff8040b39e:	0ff7f713          	andi	a4,a5,255
ffffffff8040b3a2:	06000793          	li	a5,96
ffffffff8040b3a6:	00e7ff63          	bgeu	a5,a4,ffffffff8040b3c4 <char2unicode+0x60>
ffffffff8040b3aa:	fef44783          	lbu	a5,-17(s0)
ffffffff8040b3ae:	0ff7f713          	andi	a4,a5,255
ffffffff8040b3b2:	07a00793          	li	a5,122
ffffffff8040b3b6:	00e7e763          	bltu	a5,a4,ffffffff8040b3c4 <char2unicode+0x60>
ffffffff8040b3ba:	fef44783          	lbu	a5,-17(s0)
ffffffff8040b3be:	17c2                	slli	a5,a5,0x30
ffffffff8040b3c0:	93c1                	srli	a5,a5,0x30
ffffffff8040b3c2:	a805                	j	ffffffff8040b3f2 <char2unicode+0x8e>
ffffffff8040b3c4:	fef44783          	lbu	a5,-17(s0)
ffffffff8040b3c8:	0ff7f713          	andi	a4,a5,255
ffffffff8040b3cc:	05f00793          	li	a5,95
ffffffff8040b3d0:	00f70f63          	beq	a4,a5,ffffffff8040b3ee <char2unicode+0x8a>
ffffffff8040b3d4:	fef44783          	lbu	a5,-17(s0)
ffffffff8040b3d8:	0ff7f713          	andi	a4,a5,255
ffffffff8040b3dc:	02e00793          	li	a5,46
ffffffff8040b3e0:	00f71563          	bne	a4,a5,ffffffff8040b3ea <char2unicode+0x86>
ffffffff8040b3e4:	02e00793          	li	a5,46
ffffffff8040b3e8:	a029                	j	ffffffff8040b3f2 <char2unicode+0x8e>
ffffffff8040b3ea:	4781                	li	a5,0
ffffffff8040b3ec:	a019                	j	ffffffff8040b3f2 <char2unicode+0x8e>
ffffffff8040b3ee:	05f00793          	li	a5,95
ffffffff8040b3f2:	853e                	mv	a0,a5
ffffffff8040b3f4:	6462                	ld	s0,24(sp)
ffffffff8040b3f6:	6105                	addi	sp,sp,32
ffffffff8040b3f8:	8082                	ret

ffffffff8040b3fa <_create_new>:
ffffffff8040b3fa:	712d                	addi	sp,sp,-288
ffffffff8040b3fc:	ee06                	sd	ra,280(sp)
ffffffff8040b3fe:	ea22                	sd	s0,272(sp)
ffffffff8040b400:	e626                	sd	s1,264(sp)
ffffffff8040b402:	e24a                	sd	s2,256(sp)
ffffffff8040b404:	fdce                	sd	s3,248(sp)
ffffffff8040b406:	f9d2                	sd	s4,240(sp)
ffffffff8040b408:	f5d6                	sd	s5,232(sp)
ffffffff8040b40a:	f1da                	sd	s6,224(sp)
ffffffff8040b40c:	edde                	sd	s7,216(sp)
ffffffff8040b40e:	e9e2                	sd	s8,208(sp)
ffffffff8040b410:	e5e6                	sd	s9,200(sp)
ffffffff8040b412:	e1ea                	sd	s10,192(sp)
ffffffff8040b414:	1200                	addi	s0,sp,288
ffffffff8040b416:	eea43c23          	sd	a0,-264(s0)
ffffffff8040b41a:	87ae                	mv	a5,a1
ffffffff8040b41c:	eec43423          	sd	a2,-280(s0)
ffffffff8040b420:	8736                	mv	a4,a3
ffffffff8040b422:	eef42a23          	sw	a5,-268(s0)
ffffffff8040b426:	87ba                	mv	a5,a4
ffffffff8040b428:	eef42823          	sw	a5,-272(s0)
ffffffff8040b42c:	ef843503          	ld	a0,-264(s0)
ffffffff8040b430:	f12fa0ef          	jal	ra,ffffffff80405b42 <strlen>
ffffffff8040b434:	87aa                	mv	a5,a0
ffffffff8040b436:	f4f42623          	sw	a5,-180(s0)
ffffffff8040b43a:	ef442783          	lw	a5,-268(s0)
ffffffff8040b43e:	f4f42423          	sw	a5,-184(s0)
ffffffff8040b442:	f4c42783          	lw	a5,-180(s0)
ffffffff8040b446:	0007871b          	sext.w	a4,a5
ffffffff8040b44a:	47a1                	li	a5,8
ffffffff8040b44c:	00e7e663          	bltu	a5,a4,ffffffff8040b458 <_create_new+0x5e>
ffffffff8040b450:	4785                	li	a5,1
ffffffff8040b452:	f8f42823          	sw	a5,-112(s0)
ffffffff8040b456:	a811                	j	ffffffff8040b46a <_create_new+0x70>
ffffffff8040b458:	f4c42703          	lw	a4,-180(s0)
ffffffff8040b45c:	47b5                	li	a5,13
ffffffff8040b45e:	02f757bb          	divuw	a5,a4,a5
ffffffff8040b462:	2781                	sext.w	a5,a5
ffffffff8040b464:	2789                	addiw	a5,a5,2
ffffffff8040b466:	f8f42823          	sw	a5,-112(s0)
ffffffff8040b46a:	ef442783          	lw	a5,-268(s0)
ffffffff8040b46e:	f2440693          	addi	a3,s0,-220
ffffffff8040b472:	f9042703          	lw	a4,-112(s0)
ffffffff8040b476:	863a                	mv	a2,a4
ffffffff8040b478:	ee843583          	ld	a1,-280(s0)
ffffffff8040b47c:	853e                	mv	a0,a5
ffffffff8040b47e:	018010ef          	jal	ra,ffffffff8040c496 <search_empty_entry>
ffffffff8040b482:	f8a43423          	sd	a0,-120(s0)
ffffffff8040b486:	f2442783          	lw	a5,-220(s0)
ffffffff8040b48a:	853e                	mv	a0,a5
ffffffff8040b48c:	f79fe0ef          	jal	ra,ffffffff8040a404 <clus_of_sec>
ffffffff8040b490:	87aa                	mv	a5,a0
ffffffff8040b492:	2781                	sext.w	a5,a5
ffffffff8040b494:	eef42a23          	sw	a5,-268(s0)
ffffffff8040b498:	ee843503          	ld	a0,-280(s0)
ffffffff8040b49c:	72b000ef          	jal	ra,ffffffff8040c3c6 <search_empty_fat>
ffffffff8040b4a0:	87aa                	mv	a5,a0
ffffffff8040b4a2:	f4f42223          	sw	a5,-188(s0)
ffffffff8040b4a6:	f8843783          	ld	a5,-120(s0)
ffffffff8040b4aa:	ef89                	bnez	a5,ffffffff8040b4c4 <_create_new+0xca>
ffffffff8040b4ac:	00003617          	auipc	a2,0x3
ffffffff8040b4b0:	bd460613          	addi	a2,a2,-1068 # ffffffff8040e080 <__FUNCTION__.1977>
ffffffff8040b4b4:	12900593          	li	a1,297
ffffffff8040b4b8:	00003517          	auipc	a0,0x3
ffffffff8040b4bc:	ba050513          	addi	a0,a0,-1120 # ffffffff8040e058 <__FUNCTION__.2304+0x158>
ffffffff8040b4c0:	ccbfe0ef          	jal	ra,ffffffff8040a18a <_panic>
ffffffff8040b4c4:	f0040793          	addi	a5,s0,-256
ffffffff8040b4c8:	02000613          	li	a2,32
ffffffff8040b4cc:	4581                	li	a1,0
ffffffff8040b4ce:	853e                	mv	a0,a5
ffffffff8040b4d0:	865fa0ef          	jal	ra,ffffffff80405d34 <memset>
ffffffff8040b4d4:	f9042783          	lw	a5,-112(s0)
ffffffff8040b4d8:	0007871b          	sext.w	a4,a5
ffffffff8040b4dc:	4785                	li	a5,1
ffffffff8040b4de:	06f71b63          	bne	a4,a5,ffffffff8040b554 <_create_new+0x15a>
ffffffff8040b4e2:	f8042a23          	sw	zero,-108(s0)
ffffffff8040b4e6:	a025                	j	ffffffff8040b50e <_create_new+0x114>
ffffffff8040b4e8:	f9446783          	lwu	a5,-108(s0)
ffffffff8040b4ec:	ef843703          	ld	a4,-264(s0)
ffffffff8040b4f0:	97ba                	add	a5,a5,a4
ffffffff8040b4f2:	0007c703          	lbu	a4,0(a5)
ffffffff8040b4f6:	f9446783          	lwu	a5,-108(s0)
ffffffff8040b4fa:	fa040693          	addi	a3,s0,-96
ffffffff8040b4fe:	97b6                	add	a5,a5,a3
ffffffff8040b500:	f6e78023          	sb	a4,-160(a5)
ffffffff8040b504:	f9442783          	lw	a5,-108(s0)
ffffffff8040b508:	2785                	addiw	a5,a5,1
ffffffff8040b50a:	f8f42a23          	sw	a5,-108(s0)
ffffffff8040b50e:	f9442703          	lw	a4,-108(s0)
ffffffff8040b512:	f4c42783          	lw	a5,-180(s0)
ffffffff8040b516:	2701                	sext.w	a4,a4
ffffffff8040b518:	2781                	sext.w	a5,a5
ffffffff8040b51a:	fcf767e3          	bltu	a4,a5,ffffffff8040b4e8 <_create_new+0xee>
ffffffff8040b51e:	f4c42783          	lw	a5,-180(s0)
ffffffff8040b522:	f8f42c23          	sw	a5,-104(s0)
ffffffff8040b526:	a839                	j	ffffffff8040b544 <_create_new+0x14a>
ffffffff8040b528:	f9846783          	lwu	a5,-104(s0)
ffffffff8040b52c:	fa040713          	addi	a4,s0,-96
ffffffff8040b530:	97ba                	add	a5,a5,a4
ffffffff8040b532:	02000713          	li	a4,32
ffffffff8040b536:	f6e78023          	sb	a4,-160(a5)
ffffffff8040b53a:	f9842783          	lw	a5,-104(s0)
ffffffff8040b53e:	2785                	addiw	a5,a5,1
ffffffff8040b540:	f8f42c23          	sw	a5,-104(s0)
ffffffff8040b544:	f9842783          	lw	a5,-104(s0)
ffffffff8040b548:	0007871b          	sext.w	a4,a5
ffffffff8040b54c:	479d                	li	a5,7
ffffffff8040b54e:	fce7fde3          	bgeu	a5,a4,ffffffff8040b528 <_create_new+0x12e>
ffffffff8040b552:	a0b1                	j	ffffffff8040b59e <_create_new+0x1a4>
ffffffff8040b554:	f8042e23          	sw	zero,-100(s0)
ffffffff8040b558:	a025                	j	ffffffff8040b580 <_create_new+0x186>
ffffffff8040b55a:	f9c46783          	lwu	a5,-100(s0)
ffffffff8040b55e:	ef843703          	ld	a4,-264(s0)
ffffffff8040b562:	97ba                	add	a5,a5,a4
ffffffff8040b564:	0007c703          	lbu	a4,0(a5)
ffffffff8040b568:	f9c46783          	lwu	a5,-100(s0)
ffffffff8040b56c:	fa040693          	addi	a3,s0,-96
ffffffff8040b570:	97b6                	add	a5,a5,a3
ffffffff8040b572:	f6e78023          	sb	a4,-160(a5)
ffffffff8040b576:	f9c42783          	lw	a5,-100(s0)
ffffffff8040b57a:	2785                	addiw	a5,a5,1
ffffffff8040b57c:	f8f42e23          	sw	a5,-100(s0)
ffffffff8040b580:	f9c42783          	lw	a5,-100(s0)
ffffffff8040b584:	0007871b          	sext.w	a4,a5
ffffffff8040b588:	4795                	li	a5,5
ffffffff8040b58a:	fce7f8e3          	bgeu	a5,a4,ffffffff8040b55a <_create_new+0x160>
ffffffff8040b58e:	07e00793          	li	a5,126
ffffffff8040b592:	f0f40323          	sb	a5,-250(s0)
ffffffff8040b596:	03100793          	li	a5,49
ffffffff8040b59a:	f0f403a3          	sb	a5,-249(s0)
ffffffff8040b59e:	f8042223          	sw	zero,-124(s0)
ffffffff8040b5a2:	a839                	j	ffffffff8040b5c0 <_create_new+0x1c6>
ffffffff8040b5a4:	f8446783          	lwu	a5,-124(s0)
ffffffff8040b5a8:	fa040713          	addi	a4,s0,-96
ffffffff8040b5ac:	97ba                	add	a5,a5,a4
ffffffff8040b5ae:	02000713          	li	a4,32
ffffffff8040b5b2:	f6e78423          	sb	a4,-152(a5)
ffffffff8040b5b6:	f8442783          	lw	a5,-124(s0)
ffffffff8040b5ba:	2785                	addiw	a5,a5,1
ffffffff8040b5bc:	f8f42223          	sw	a5,-124(s0)
ffffffff8040b5c0:	f8442783          	lw	a5,-124(s0)
ffffffff8040b5c4:	0007871b          	sext.w	a4,a5
ffffffff8040b5c8:	4789                	li	a5,2
ffffffff8040b5ca:	fce7fde3          	bgeu	a5,a4,ffffffff8040b5a4 <_create_new+0x1aa>
ffffffff8040b5ce:	ef042783          	lw	a5,-272(s0)
ffffffff8040b5d2:	0007871b          	sext.w	a4,a5
ffffffff8040b5d6:	4785                	li	a5,1
ffffffff8040b5d8:	00f71663          	bne	a4,a5,ffffffff8040b5e4 <_create_new+0x1ea>
ffffffff8040b5dc:	47c1                	li	a5,16
ffffffff8040b5de:	f0f405a3          	sb	a5,-245(s0)
ffffffff8040b5e2:	a029                	j	ffffffff8040b5ec <_create_new+0x1f2>
ffffffff8040b5e4:	02000793          	li	a5,32
ffffffff8040b5e8:	f0f405a3          	sb	a5,-245(s0)
ffffffff8040b5ec:	f0040623          	sb	zero,-244(s0)
ffffffff8040b5f0:	f00406a3          	sb	zero,-243(s0)
ffffffff8040b5f4:	6795                	lui	a5,0x5
ffffffff8040b5f6:	3d478793          	addi	a5,a5,980 # 53d4 <_start-0xffffffff803fac2c>
ffffffff8040b5fa:	f0f41723          	sh	a5,-242(s0)
ffffffff8040b5fe:	6795                	lui	a5,0x5
ffffffff8040b600:	2bb78793          	addi	a5,a5,699 # 52bb <_start-0xffffffff803fad45>
ffffffff8040b604:	f0f41823          	sh	a5,-240(s0)
ffffffff8040b608:	6795                	lui	a5,0x5
ffffffff8040b60a:	2bb78793          	addi	a5,a5,699 # 52bb <_start-0xffffffff803fad45>
ffffffff8040b60e:	f0f41923          	sh	a5,-238(s0)
ffffffff8040b612:	f4442783          	lw	a5,-188(s0)
ffffffff8040b616:	0107d79b          	srliw	a5,a5,0x10
ffffffff8040b61a:	2781                	sext.w	a5,a5
ffffffff8040b61c:	17c2                	slli	a5,a5,0x30
ffffffff8040b61e:	93c1                	srli	a5,a5,0x30
ffffffff8040b620:	f0f41a23          	sh	a5,-236(s0)
ffffffff8040b624:	6795                	lui	a5,0x5
ffffffff8040b626:	3d378793          	addi	a5,a5,979 # 53d3 <_start-0xffffffff803fac2d>
ffffffff8040b62a:	f0f41b23          	sh	a5,-234(s0)
ffffffff8040b62e:	6795                	lui	a5,0x5
ffffffff8040b630:	2bb78793          	addi	a5,a5,699 # 52bb <_start-0xffffffff803fad45>
ffffffff8040b634:	f0f41c23          	sh	a5,-232(s0)
ffffffff8040b638:	f4442783          	lw	a5,-188(s0)
ffffffff8040b63c:	17c2                	slli	a5,a5,0x30
ffffffff8040b63e:	93c1                	srli	a5,a5,0x30
ffffffff8040b640:	f0f41d23          	sh	a5,-230(s0)
ffffffff8040b644:	f0042e23          	sw	zero,-228(s0)
ffffffff8040b648:	f9042783          	lw	a5,-112(s0)
ffffffff8040b64c:	37fd                	addiw	a5,a5,-1
ffffffff8040b64e:	2781                	sext.w	a5,a5
ffffffff8040b650:	870a                	mv	a4,sp
ffffffff8040b652:	8d3a                	mv	s10,a4
ffffffff8040b654:	02079713          	slli	a4,a5,0x20
ffffffff8040b658:	9301                	srli	a4,a4,0x20
ffffffff8040b65a:	177d                	addi	a4,a4,-1
ffffffff8040b65c:	f2e43c23          	sd	a4,-200(s0)
ffffffff8040b660:	02079713          	slli	a4,a5,0x20
ffffffff8040b664:	9301                	srli	a4,a4,0x20
ffffffff8040b666:	8c3a                	mv	s8,a4
ffffffff8040b668:	4c81                	li	s9,0
ffffffff8040b66a:	038c5713          	srli	a4,s8,0x38
ffffffff8040b66e:	008c9a93          	slli	s5,s9,0x8
ffffffff8040b672:	01576ab3          	or	s5,a4,s5
ffffffff8040b676:	008c1a13          	slli	s4,s8,0x8
ffffffff8040b67a:	02079713          	slli	a4,a5,0x20
ffffffff8040b67e:	9301                	srli	a4,a4,0x20
ffffffff8040b680:	8b3a                	mv	s6,a4
ffffffff8040b682:	4b81                	li	s7,0
ffffffff8040b684:	038b5713          	srli	a4,s6,0x38
ffffffff8040b688:	008b9993          	slli	s3,s7,0x8
ffffffff8040b68c:	013769b3          	or	s3,a4,s3
ffffffff8040b690:	008b1913          	slli	s2,s6,0x8
ffffffff8040b694:	1782                	slli	a5,a5,0x20
ffffffff8040b696:	9381                	srli	a5,a5,0x20
ffffffff8040b698:	0796                	slli	a5,a5,0x5
ffffffff8040b69a:	07bd                	addi	a5,a5,15
ffffffff8040b69c:	8391                	srli	a5,a5,0x4
ffffffff8040b69e:	0792                	slli	a5,a5,0x4
ffffffff8040b6a0:	40f10133          	sub	sp,sp,a5
ffffffff8040b6a4:	878a                	mv	a5,sp
ffffffff8040b6a6:	00078793          	mv	a5,a5
ffffffff8040b6aa:	f2f43823          	sd	a5,-208(s0)
ffffffff8040b6ae:	f9042783          	lw	a5,-112(s0)
ffffffff8040b6b2:	0007871b          	sext.w	a4,a5
ffffffff8040b6b6:	4785                	li	a5,1
ffffffff8040b6b8:	34e7f363          	bgeu	a5,a4,ffffffff8040b9fe <_create_new+0x604>
ffffffff8040b6bc:	f8042023          	sw	zero,-128(s0)
ffffffff8040b6c0:	a62d                	j	ffffffff8040b9ea <_create_new+0x5f0>
ffffffff8040b6c2:	f6042e23          	sw	zero,-132(s0)
ffffffff8040b6c6:	a07d                	j	ffffffff8040b774 <_create_new+0x37a>
ffffffff8040b6c8:	f8042703          	lw	a4,-128(s0)
ffffffff8040b6cc:	87ba                	mv	a5,a4
ffffffff8040b6ce:	0017979b          	slliw	a5,a5,0x1
ffffffff8040b6d2:	9fb9                	addw	a5,a5,a4
ffffffff8040b6d4:	0027979b          	slliw	a5,a5,0x2
ffffffff8040b6d8:	9fb9                	addw	a5,a5,a4
ffffffff8040b6da:	2781                	sext.w	a5,a5
ffffffff8040b6dc:	f7c42703          	lw	a4,-132(s0)
ffffffff8040b6e0:	9fb9                	addw	a5,a5,a4
ffffffff8040b6e2:	f2f42623          	sw	a5,-212(s0)
ffffffff8040b6e6:	f2c42703          	lw	a4,-212(s0)
ffffffff8040b6ea:	f4c42783          	lw	a5,-180(s0)
ffffffff8040b6ee:	2701                	sext.w	a4,a4
ffffffff8040b6f0:	2781                	sext.w	a5,a5
ffffffff8040b6f2:	00f77f63          	bgeu	a4,a5,ffffffff8040b710 <_create_new+0x316>
ffffffff8040b6f6:	f2c46783          	lwu	a5,-212(s0)
ffffffff8040b6fa:	ef843703          	ld	a4,-264(s0)
ffffffff8040b6fe:	97ba                	add	a5,a5,a4
ffffffff8040b700:	0007c783          	lbu	a5,0(a5)
ffffffff8040b704:	853e                	mv	a0,a5
ffffffff8040b706:	c5fff0ef          	jal	ra,ffffffff8040b364 <char2unicode>
ffffffff8040b70a:	87aa                	mv	a5,a0
ffffffff8040b70c:	873e                	mv	a4,a5
ffffffff8040b70e:	a829                	j	ffffffff8040b728 <_create_new+0x32e>
ffffffff8040b710:	f2c42703          	lw	a4,-212(s0)
ffffffff8040b714:	f4c42783          	lw	a5,-180(s0)
ffffffff8040b718:	2701                	sext.w	a4,a4
ffffffff8040b71a:	2781                	sext.w	a5,a5
ffffffff8040b71c:	00f71463          	bne	a4,a5,ffffffff8040b724 <_create_new+0x32a>
ffffffff8040b720:	4701                	li	a4,0
ffffffff8040b722:	a019                	j	ffffffff8040b728 <_create_new+0x32e>
ffffffff8040b724:	0ff00713          	li	a4,255
ffffffff8040b728:	f3043683          	ld	a3,-208(s0)
ffffffff8040b72c:	f7c46783          	lwu	a5,-132(s0)
ffffffff8040b730:	f8046603          	lwu	a2,-128(s0)
ffffffff8040b734:	0612                	slli	a2,a2,0x4
ffffffff8040b736:	97b2                	add	a5,a5,a2
ffffffff8040b738:	0786                	slli	a5,a5,0x1
ffffffff8040b73a:	97b6                	add	a5,a5,a3
ffffffff8040b73c:	0ff77593          	andi	a1,a4,255
ffffffff8040b740:	0017c683          	lbu	a3,1(a5)
ffffffff8040b744:	8a81                	andi	a3,a3,0
ffffffff8040b746:	8636                	mv	a2,a3
ffffffff8040b748:	86ae                	mv	a3,a1
ffffffff8040b74a:	8ed1                	or	a3,a3,a2
ffffffff8040b74c:	00d780a3          	sb	a3,1(a5)
ffffffff8040b750:	0087571b          	srliw	a4,a4,0x8
ffffffff8040b754:	03071613          	slli	a2,a4,0x30
ffffffff8040b758:	9241                	srli	a2,a2,0x30
ffffffff8040b75a:	0027c703          	lbu	a4,2(a5)
ffffffff8040b75e:	8b01                	andi	a4,a4,0
ffffffff8040b760:	86ba                	mv	a3,a4
ffffffff8040b762:	8732                	mv	a4,a2
ffffffff8040b764:	8f55                	or	a4,a4,a3
ffffffff8040b766:	00e78123          	sb	a4,2(a5)
ffffffff8040b76a:	f7c42783          	lw	a5,-132(s0)
ffffffff8040b76e:	2785                	addiw	a5,a5,1
ffffffff8040b770:	f6f42e23          	sw	a5,-132(s0)
ffffffff8040b774:	f7c42783          	lw	a5,-132(s0)
ffffffff8040b778:	0007871b          	sext.w	a4,a5
ffffffff8040b77c:	4791                	li	a5,4
ffffffff8040b77e:	f4e7f5e3          	bgeu	a5,a4,ffffffff8040b6c8 <_create_new+0x2ce>
ffffffff8040b782:	f6042c23          	sw	zero,-136(s0)
ffffffff8040b786:	a84d                	j	ffffffff8040b838 <_create_new+0x43e>
ffffffff8040b788:	f8042703          	lw	a4,-128(s0)
ffffffff8040b78c:	87ba                	mv	a5,a4
ffffffff8040b78e:	0017979b          	slliw	a5,a5,0x1
ffffffff8040b792:	9fb9                	addw	a5,a5,a4
ffffffff8040b794:	0027979b          	slliw	a5,a5,0x2
ffffffff8040b798:	9fb9                	addw	a5,a5,a4
ffffffff8040b79a:	2781                	sext.w	a5,a5
ffffffff8040b79c:	f7842703          	lw	a4,-136(s0)
ffffffff8040b7a0:	9fb9                	addw	a5,a5,a4
ffffffff8040b7a2:	2781                	sext.w	a5,a5
ffffffff8040b7a4:	2795                	addiw	a5,a5,5
ffffffff8040b7a6:	f2f42623          	sw	a5,-212(s0)
ffffffff8040b7aa:	f2c42703          	lw	a4,-212(s0)
ffffffff8040b7ae:	f4c42783          	lw	a5,-180(s0)
ffffffff8040b7b2:	2701                	sext.w	a4,a4
ffffffff8040b7b4:	2781                	sext.w	a5,a5
ffffffff8040b7b6:	00f77f63          	bgeu	a4,a5,ffffffff8040b7d4 <_create_new+0x3da>
ffffffff8040b7ba:	f2c46783          	lwu	a5,-212(s0)
ffffffff8040b7be:	ef843703          	ld	a4,-264(s0)
ffffffff8040b7c2:	97ba                	add	a5,a5,a4
ffffffff8040b7c4:	0007c783          	lbu	a5,0(a5)
ffffffff8040b7c8:	853e                	mv	a0,a5
ffffffff8040b7ca:	b9bff0ef          	jal	ra,ffffffff8040b364 <char2unicode>
ffffffff8040b7ce:	87aa                	mv	a5,a0
ffffffff8040b7d0:	873e                	mv	a4,a5
ffffffff8040b7d2:	a829                	j	ffffffff8040b7ec <_create_new+0x3f2>
ffffffff8040b7d4:	f2c42703          	lw	a4,-212(s0)
ffffffff8040b7d8:	f4c42783          	lw	a5,-180(s0)
ffffffff8040b7dc:	2701                	sext.w	a4,a4
ffffffff8040b7de:	2781                	sext.w	a5,a5
ffffffff8040b7e0:	00f71463          	bne	a4,a5,ffffffff8040b7e8 <_create_new+0x3ee>
ffffffff8040b7e4:	4701                	li	a4,0
ffffffff8040b7e6:	a019                	j	ffffffff8040b7ec <_create_new+0x3f2>
ffffffff8040b7e8:	0ff00713          	li	a4,255
ffffffff8040b7ec:	f3043683          	ld	a3,-208(s0)
ffffffff8040b7f0:	f7846783          	lwu	a5,-136(s0)
ffffffff8040b7f4:	f8046603          	lwu	a2,-128(s0)
ffffffff8040b7f8:	0612                	slli	a2,a2,0x4
ffffffff8040b7fa:	97b2                	add	a5,a5,a2
ffffffff8040b7fc:	0786                	slli	a5,a5,0x1
ffffffff8040b7fe:	97b6                	add	a5,a5,a3
ffffffff8040b800:	0ff77593          	andi	a1,a4,255
ffffffff8040b804:	00e7c683          	lbu	a3,14(a5)
ffffffff8040b808:	8a81                	andi	a3,a3,0
ffffffff8040b80a:	8636                	mv	a2,a3
ffffffff8040b80c:	86ae                	mv	a3,a1
ffffffff8040b80e:	8ed1                	or	a3,a3,a2
ffffffff8040b810:	00d78723          	sb	a3,14(a5)
ffffffff8040b814:	0087571b          	srliw	a4,a4,0x8
ffffffff8040b818:	03071613          	slli	a2,a4,0x30
ffffffff8040b81c:	9241                	srli	a2,a2,0x30
ffffffff8040b81e:	00f7c703          	lbu	a4,15(a5)
ffffffff8040b822:	8b01                	andi	a4,a4,0
ffffffff8040b824:	86ba                	mv	a3,a4
ffffffff8040b826:	8732                	mv	a4,a2
ffffffff8040b828:	8f55                	or	a4,a4,a3
ffffffff8040b82a:	00e787a3          	sb	a4,15(a5)
ffffffff8040b82e:	f7842783          	lw	a5,-136(s0)
ffffffff8040b832:	2785                	addiw	a5,a5,1
ffffffff8040b834:	f6f42c23          	sw	a5,-136(s0)
ffffffff8040b838:	f7842783          	lw	a5,-136(s0)
ffffffff8040b83c:	0007871b          	sext.w	a4,a5
ffffffff8040b840:	4795                	li	a5,5
ffffffff8040b842:	f4e7f3e3          	bgeu	a5,a4,ffffffff8040b788 <_create_new+0x38e>
ffffffff8040b846:	f6042a23          	sw	zero,-140(s0)
ffffffff8040b84a:	a855                	j	ffffffff8040b8fe <_create_new+0x504>
ffffffff8040b84c:	f8042703          	lw	a4,-128(s0)
ffffffff8040b850:	87ba                	mv	a5,a4
ffffffff8040b852:	0017979b          	slliw	a5,a5,0x1
ffffffff8040b856:	9fb9                	addw	a5,a5,a4
ffffffff8040b858:	0027979b          	slliw	a5,a5,0x2
ffffffff8040b85c:	9fb9                	addw	a5,a5,a4
ffffffff8040b85e:	2781                	sext.w	a5,a5
ffffffff8040b860:	f7442703          	lw	a4,-140(s0)
ffffffff8040b864:	9fb9                	addw	a5,a5,a4
ffffffff8040b866:	2781                	sext.w	a5,a5
ffffffff8040b868:	27ad                	addiw	a5,a5,11
ffffffff8040b86a:	f2f42623          	sw	a5,-212(s0)
ffffffff8040b86e:	f2c42703          	lw	a4,-212(s0)
ffffffff8040b872:	f4c42783          	lw	a5,-180(s0)
ffffffff8040b876:	2701                	sext.w	a4,a4
ffffffff8040b878:	2781                	sext.w	a5,a5
ffffffff8040b87a:	00f77f63          	bgeu	a4,a5,ffffffff8040b898 <_create_new+0x49e>
ffffffff8040b87e:	f2c46783          	lwu	a5,-212(s0)
ffffffff8040b882:	ef843703          	ld	a4,-264(s0)
ffffffff8040b886:	97ba                	add	a5,a5,a4
ffffffff8040b888:	0007c783          	lbu	a5,0(a5)
ffffffff8040b88c:	853e                	mv	a0,a5
ffffffff8040b88e:	ad7ff0ef          	jal	ra,ffffffff8040b364 <char2unicode>
ffffffff8040b892:	87aa                	mv	a5,a0
ffffffff8040b894:	873e                	mv	a4,a5
ffffffff8040b896:	a829                	j	ffffffff8040b8b0 <_create_new+0x4b6>
ffffffff8040b898:	f2c42703          	lw	a4,-212(s0)
ffffffff8040b89c:	f4c42783          	lw	a5,-180(s0)
ffffffff8040b8a0:	2701                	sext.w	a4,a4
ffffffff8040b8a2:	2781                	sext.w	a5,a5
ffffffff8040b8a4:	00f71463          	bne	a4,a5,ffffffff8040b8ac <_create_new+0x4b2>
ffffffff8040b8a8:	4701                	li	a4,0
ffffffff8040b8aa:	a019                	j	ffffffff8040b8b0 <_create_new+0x4b6>
ffffffff8040b8ac:	0ff00713          	li	a4,255
ffffffff8040b8b0:	f3043683          	ld	a3,-208(s0)
ffffffff8040b8b4:	f7446783          	lwu	a5,-140(s0)
ffffffff8040b8b8:	f8046603          	lwu	a2,-128(s0)
ffffffff8040b8bc:	0612                	slli	a2,a2,0x4
ffffffff8040b8be:	97b2                	add	a5,a5,a2
ffffffff8040b8c0:	07a1                	addi	a5,a5,8
ffffffff8040b8c2:	0786                	slli	a5,a5,0x1
ffffffff8040b8c4:	97b6                	add	a5,a5,a3
ffffffff8040b8c6:	0ff77593          	andi	a1,a4,255
ffffffff8040b8ca:	00c7c683          	lbu	a3,12(a5)
ffffffff8040b8ce:	8a81                	andi	a3,a3,0
ffffffff8040b8d0:	8636                	mv	a2,a3
ffffffff8040b8d2:	86ae                	mv	a3,a1
ffffffff8040b8d4:	8ed1                	or	a3,a3,a2
ffffffff8040b8d6:	00d78623          	sb	a3,12(a5)
ffffffff8040b8da:	0087571b          	srliw	a4,a4,0x8
ffffffff8040b8de:	03071613          	slli	a2,a4,0x30
ffffffff8040b8e2:	9241                	srli	a2,a2,0x30
ffffffff8040b8e4:	00d7c703          	lbu	a4,13(a5)
ffffffff8040b8e8:	8b01                	andi	a4,a4,0
ffffffff8040b8ea:	86ba                	mv	a3,a4
ffffffff8040b8ec:	8732                	mv	a4,a2
ffffffff8040b8ee:	8f55                	or	a4,a4,a3
ffffffff8040b8f0:	00e786a3          	sb	a4,13(a5)
ffffffff8040b8f4:	f7442783          	lw	a5,-140(s0)
ffffffff8040b8f8:	2785                	addiw	a5,a5,1
ffffffff8040b8fa:	f6f42a23          	sw	a5,-140(s0)
ffffffff8040b8fe:	f7442783          	lw	a5,-140(s0)
ffffffff8040b902:	0007871b          	sext.w	a4,a5
ffffffff8040b906:	4785                	li	a5,1
ffffffff8040b908:	f4e7f2e3          	bgeu	a5,a4,ffffffff8040b84c <_create_new+0x452>
ffffffff8040b90c:	f8042783          	lw	a5,-128(s0)
ffffffff8040b910:	0ff7f793          	andi	a5,a5,255
ffffffff8040b914:	2785                	addiw	a5,a5,1
ffffffff8040b916:	0ff7f793          	andi	a5,a5,255
ffffffff8040b91a:	8bbd                	andi	a5,a5,15
ffffffff8040b91c:	0ff7f793          	andi	a5,a5,255
ffffffff8040b920:	0407e793          	ori	a5,a5,64
ffffffff8040b924:	0ff7f713          	andi	a4,a5,255
ffffffff8040b928:	f3043683          	ld	a3,-208(s0)
ffffffff8040b92c:	f8046783          	lwu	a5,-128(s0)
ffffffff8040b930:	0796                	slli	a5,a5,0x5
ffffffff8040b932:	97b6                	add	a5,a5,a3
ffffffff8040b934:	00e78023          	sb	a4,0(a5)
ffffffff8040b938:	f3043703          	ld	a4,-208(s0)
ffffffff8040b93c:	f8046783          	lwu	a5,-128(s0)
ffffffff8040b940:	0796                	slli	a5,a5,0x5
ffffffff8040b942:	97ba                	add	a5,a5,a4
ffffffff8040b944:	473d                	li	a4,15
ffffffff8040b946:	00e785a3          	sb	a4,11(a5)
ffffffff8040b94a:	f3043703          	ld	a4,-208(s0)
ffffffff8040b94e:	f8046783          	lwu	a5,-128(s0)
ffffffff8040b952:	0796                	slli	a5,a5,0x5
ffffffff8040b954:	97ba                	add	a5,a5,a4
ffffffff8040b956:	00078623          	sb	zero,12(a5)
ffffffff8040b95a:	f60409a3          	sb	zero,-141(s0)
ffffffff8040b95e:	f0040793          	addi	a5,s0,-256
ffffffff8040b962:	f6f43423          	sd	a5,-152(s0)
ffffffff8040b966:	f6042223          	sw	zero,-156(s0)
ffffffff8040b96a:	a091                	j	ffffffff8040b9ae <_create_new+0x5b4>
ffffffff8040b96c:	f7344783          	lbu	a5,-141(s0)
ffffffff8040b970:	2781                	sext.w	a5,a5
ffffffff8040b972:	0077979b          	slliw	a5,a5,0x7
ffffffff8040b976:	2781                	sext.w	a5,a5
ffffffff8040b978:	0ff7f713          	andi	a4,a5,255
ffffffff8040b97c:	f7344783          	lbu	a5,-141(s0)
ffffffff8040b980:	0017d79b          	srliw	a5,a5,0x1
ffffffff8040b984:	0ff7f793          	andi	a5,a5,255
ffffffff8040b988:	9fb9                	addw	a5,a5,a4
ffffffff8040b98a:	0ff7f713          	andi	a4,a5,255
ffffffff8040b98e:	f6843783          	ld	a5,-152(s0)
ffffffff8040b992:	00178693          	addi	a3,a5,1
ffffffff8040b996:	f6d43423          	sd	a3,-152(s0)
ffffffff8040b99a:	0007c783          	lbu	a5,0(a5)
ffffffff8040b99e:	9fb9                	addw	a5,a5,a4
ffffffff8040b9a0:	f6f409a3          	sb	a5,-141(s0)
ffffffff8040b9a4:	f6442783          	lw	a5,-156(s0)
ffffffff8040b9a8:	2785                	addiw	a5,a5,1
ffffffff8040b9aa:	f6f42223          	sw	a5,-156(s0)
ffffffff8040b9ae:	f6442783          	lw	a5,-156(s0)
ffffffff8040b9b2:	0007871b          	sext.w	a4,a5
ffffffff8040b9b6:	47a9                	li	a5,10
ffffffff8040b9b8:	fae7dae3          	bge	a5,a4,ffffffff8040b96c <_create_new+0x572>
ffffffff8040b9bc:	f3043703          	ld	a4,-208(s0)
ffffffff8040b9c0:	f8046783          	lwu	a5,-128(s0)
ffffffff8040b9c4:	0796                	slli	a5,a5,0x5
ffffffff8040b9c6:	97ba                	add	a5,a5,a4
ffffffff8040b9c8:	f7344703          	lbu	a4,-141(s0)
ffffffff8040b9cc:	00e786a3          	sb	a4,13(a5)
ffffffff8040b9d0:	f3043703          	ld	a4,-208(s0)
ffffffff8040b9d4:	f8046783          	lwu	a5,-128(s0)
ffffffff8040b9d8:	0796                	slli	a5,a5,0x5
ffffffff8040b9da:	97ba                	add	a5,a5,a4
ffffffff8040b9dc:	00078623          	sb	zero,12(a5)
ffffffff8040b9e0:	f8042783          	lw	a5,-128(s0)
ffffffff8040b9e4:	2785                	addiw	a5,a5,1
ffffffff8040b9e6:	f8f42023          	sw	a5,-128(s0)
ffffffff8040b9ea:	f9042783          	lw	a5,-112(s0)
ffffffff8040b9ee:	37fd                	addiw	a5,a5,-1
ffffffff8040b9f0:	0007871b          	sext.w	a4,a5
ffffffff8040b9f4:	f8042783          	lw	a5,-128(s0)
ffffffff8040b9f8:	2781                	sext.w	a5,a5
ffffffff8040b9fa:	cce7e4e3          	bltu	a5,a4,ffffffff8040b6c2 <_create_new+0x2c8>
ffffffff8040b9fe:	f2442783          	lw	a5,-220(s0)
ffffffff8040ba02:	85be                	mv	a1,a5
ffffffff8040ba04:	ee843503          	ld	a0,-280(s0)
ffffffff8040ba08:	da5fe0ef          	jal	ra,ffffffff8040a7ac <sd_read>
ffffffff8040ba0c:	f6042023          	sw	zero,-160(s0)
ffffffff8040ba10:	a219                	j	ffffffff8040bb16 <_create_new+0x71c>
ffffffff8040ba12:	f9042703          	lw	a4,-112(s0)
ffffffff8040ba16:	f6042783          	lw	a5,-160(s0)
ffffffff8040ba1a:	40f707bb          	subw	a5,a4,a5
ffffffff8040ba1e:	2781                	sext.w	a5,a5
ffffffff8040ba20:	37f9                	addiw	a5,a5,-2
ffffffff8040ba22:	2781                	sext.w	a5,a5
ffffffff8040ba24:	1782                	slli	a5,a5,0x20
ffffffff8040ba26:	9381                	srli	a5,a5,0x20
ffffffff8040ba28:	0796                	slli	a5,a5,0x5
ffffffff8040ba2a:	f3043703          	ld	a4,-208(s0)
ffffffff8040ba2e:	97ba                	add	a5,a5,a4
ffffffff8040ba30:	02000613          	li	a2,32
ffffffff8040ba34:	85be                	mv	a1,a5
ffffffff8040ba36:	f8843503          	ld	a0,-120(s0)
ffffffff8040ba3a:	93efa0ef          	jal	ra,ffffffff80405b78 <memcpy>
ffffffff8040ba3e:	f8843783          	ld	a5,-120(s0)
ffffffff8040ba42:	02078713          	addi	a4,a5,32
ffffffff8040ba46:	00018797          	auipc	a5,0x18
ffffffff8040ba4a:	ca278793          	addi	a5,a5,-862 # ffffffff804236e8 <fat>
ffffffff8040ba4e:	47dc                	lw	a5,12(a5)
ffffffff8040ba50:	0007861b          	sext.w	a2,a5
ffffffff8040ba54:	6685                	lui	a3,0x1
ffffffff8040ba56:	00c6f363          	bgeu	a3,a2,ffffffff8040ba5c <_create_new+0x662>
ffffffff8040ba5a:	6785                	lui	a5,0x1
ffffffff8040ba5c:	2781                	sext.w	a5,a5
ffffffff8040ba5e:	1782                	slli	a5,a5,0x20
ffffffff8040ba60:	9381                	srli	a5,a5,0x20
ffffffff8040ba62:	ee843683          	ld	a3,-280(s0)
ffffffff8040ba66:	97b6                	add	a5,a5,a3
ffffffff8040ba68:	08f71463          	bne	a4,a5,ffffffff8040baf0 <_create_new+0x6f6>
ffffffff8040ba6c:	f2442783          	lw	a5,-220(s0)
ffffffff8040ba70:	85be                	mv	a1,a5
ffffffff8040ba72:	ee843503          	ld	a0,-280(s0)
ffffffff8040ba76:	d93fe0ef          	jal	ra,ffffffff8040a808 <sd_write>
ffffffff8040ba7a:	f2442783          	lw	a5,-220(s0)
ffffffff8040ba7e:	2785                	addiw	a5,a5,1
ffffffff8040ba80:	2781                	sext.w	a5,a5
ffffffff8040ba82:	853e                	mv	a0,a5
ffffffff8040ba84:	981fe0ef          	jal	ra,ffffffff8040a404 <clus_of_sec>
ffffffff8040ba88:	87aa                	mv	a5,a0
ffffffff8040ba8a:	0007849b          	sext.w	s1,a5
ffffffff8040ba8e:	f2442783          	lw	a5,-220(s0)
ffffffff8040ba92:	853e                	mv	a0,a5
ffffffff8040ba94:	971fe0ef          	jal	ra,ffffffff8040a404 <clus_of_sec>
ffffffff8040ba98:	87aa                	mv	a5,a0
ffffffff8040ba9a:	2781                	sext.w	a5,a5
ffffffff8040ba9c:	8726                	mv	a4,s1
ffffffff8040ba9e:	04f70963          	beq	a4,a5,ffffffff8040baf0 <_create_new+0x6f6>
ffffffff8040baa2:	f2442783          	lw	a5,-220(s0)
ffffffff8040baa6:	853e                	mv	a0,a5
ffffffff8040baa8:	95dfe0ef          	jal	ra,ffffffff8040a404 <clus_of_sec>
ffffffff8040baac:	87aa                	mv	a5,a0
ffffffff8040baae:	2781                	sext.w	a5,a5
ffffffff8040bab0:	853e                	mv	a0,a5
ffffffff8040bab2:	89bfe0ef          	jal	ra,ffffffff8040a34c <get_next_cluster>
ffffffff8040bab6:	87aa                	mv	a5,a0
ffffffff8040bab8:	2781                	sext.w	a5,a5
ffffffff8040baba:	873e                	mv	a4,a5
ffffffff8040babc:	100007b7          	lui	a5,0x10000
ffffffff8040bac0:	17fd                	addi	a5,a5,-1
ffffffff8040bac2:	02f71763          	bne	a4,a5,ffffffff8040baf0 <_create_new+0x6f6>
ffffffff8040bac6:	ee843503          	ld	a0,-280(s0)
ffffffff8040baca:	0fd000ef          	jal	ra,ffffffff8040c3c6 <search_empty_fat>
ffffffff8040bace:	87aa                	mv	a5,a0
ffffffff8040bad0:	f2f42423          	sw	a5,-216(s0)
ffffffff8040bad4:	ef442783          	lw	a5,-268(s0)
ffffffff8040bad8:	f2842703          	lw	a4,-216(s0)
ffffffff8040badc:	ee843603          	ld	a2,-280(s0)
ffffffff8040bae0:	85ba                	mv	a1,a4
ffffffff8040bae2:	853e                	mv	a0,a5
ffffffff8040bae4:	712000ef          	jal	ra,ffffffff8040c1f6 <write_fat_table>
ffffffff8040bae8:	f2842783          	lw	a5,-216(s0)
ffffffff8040baec:	eef42a23          	sw	a5,-268(s0)
ffffffff8040baf0:	f2440713          	addi	a4,s0,-220
ffffffff8040baf4:	ef440793          	addi	a5,s0,-268
ffffffff8040baf8:	86ba                	mv	a3,a4
ffffffff8040bafa:	863e                	mv	a2,a5
ffffffff8040bafc:	ee843583          	ld	a1,-280(s0)
ffffffff8040bb00:	f8843503          	ld	a0,-120(s0)
ffffffff8040bb04:	d97fe0ef          	jal	ra,ffffffff8040a89a <get_next_dentry>
ffffffff8040bb08:	f8a43423          	sd	a0,-120(s0)
ffffffff8040bb0c:	f6042783          	lw	a5,-160(s0)
ffffffff8040bb10:	2785                	addiw	a5,a5,1
ffffffff8040bb12:	f6f42023          	sw	a5,-160(s0)
ffffffff8040bb16:	f9042783          	lw	a5,-112(s0)
ffffffff8040bb1a:	37fd                	addiw	a5,a5,-1
ffffffff8040bb1c:	0007871b          	sext.w	a4,a5
ffffffff8040bb20:	f6042783          	lw	a5,-160(s0)
ffffffff8040bb24:	2781                	sext.w	a5,a5
ffffffff8040bb26:	eee7e6e3          	bltu	a5,a4,ffffffff8040ba12 <_create_new+0x618>
ffffffff8040bb2a:	f0040793          	addi	a5,s0,-256
ffffffff8040bb2e:	02000613          	li	a2,32
ffffffff8040bb32:	85be                	mv	a1,a5
ffffffff8040bb34:	f8843503          	ld	a0,-120(s0)
ffffffff8040bb38:	840fa0ef          	jal	ra,ffffffff80405b78 <memcpy>
ffffffff8040bb3c:	f2442783          	lw	a5,-220(s0)
ffffffff8040bb40:	85be                	mv	a1,a5
ffffffff8040bb42:	ee843503          	ld	a0,-280(s0)
ffffffff8040bb46:	cc3fe0ef          	jal	ra,ffffffff8040a808 <sd_write>
ffffffff8040bb4a:	ef042783          	lw	a5,-272(s0)
ffffffff8040bb4e:	0007871b          	sext.w	a4,a5
ffffffff8040bb52:	4785                	li	a5,1
ffffffff8040bb54:	40f71663          	bne	a4,a5,ffffffff8040bf60 <_create_new+0xb66>
ffffffff8040bb58:	f4442783          	lw	a5,-188(s0)
ffffffff8040bb5c:	853e                	mv	a0,a5
ffffffff8040bb5e:	ec6fe0ef          	jal	ra,ffffffff8040a224 <first_sec_of_clus>
ffffffff8040bb62:	87aa                	mv	a5,a0
ffffffff8040bb64:	2781                	sext.w	a5,a5
ffffffff8040bb66:	f2f42223          	sw	a5,-220(s0)
ffffffff8040bb6a:	00018797          	auipc	a5,0x18
ffffffff8040bb6e:	b7e78793          	addi	a5,a5,-1154 # ffffffff804236e8 <fat>
ffffffff8040bb72:	47dc                	lw	a5,12(a5)
ffffffff8040bb74:	0007869b          	sext.w	a3,a5
ffffffff8040bb78:	6705                	lui	a4,0x1
ffffffff8040bb7a:	00d77363          	bgeu	a4,a3,ffffffff8040bb80 <_create_new+0x786>
ffffffff8040bb7e:	6785                	lui	a5,0x1
ffffffff8040bb80:	2781                	sext.w	a5,a5
ffffffff8040bb82:	863e                	mv	a2,a5
ffffffff8040bb84:	4581                	li	a1,0
ffffffff8040bb86:	ee843503          	ld	a0,-280(s0)
ffffffff8040bb8a:	9aafa0ef          	jal	ra,ffffffff80405d34 <memset>
ffffffff8040bb8e:	ee843783          	ld	a5,-280(s0)
ffffffff8040bb92:	f8f43423          	sd	a5,-120(s0)
ffffffff8040bb96:	f8843783          	ld	a5,-120(s0)
ffffffff8040bb9a:	02e00713          	li	a4,46
ffffffff8040bb9e:	00e78023          	sb	a4,0(a5) # 1000 <_start-0xffffffff803ff000>
ffffffff8040bba2:	4785                	li	a5,1
ffffffff8040bba4:	f4f42e23          	sw	a5,-164(s0)
ffffffff8040bba8:	a839                	j	ffffffff8040bbc6 <_create_new+0x7cc>
ffffffff8040bbaa:	f8843703          	ld	a4,-120(s0)
ffffffff8040bbae:	f5c46783          	lwu	a5,-164(s0)
ffffffff8040bbb2:	97ba                	add	a5,a5,a4
ffffffff8040bbb4:	02000713          	li	a4,32
ffffffff8040bbb8:	00e78023          	sb	a4,0(a5)
ffffffff8040bbbc:	f5c42783          	lw	a5,-164(s0)
ffffffff8040bbc0:	2785                	addiw	a5,a5,1
ffffffff8040bbc2:	f4f42e23          	sw	a5,-164(s0)
ffffffff8040bbc6:	f5c42783          	lw	a5,-164(s0)
ffffffff8040bbca:	0007871b          	sext.w	a4,a5
ffffffff8040bbce:	479d                	li	a5,7
ffffffff8040bbd0:	fce7fde3          	bgeu	a5,a4,ffffffff8040bbaa <_create_new+0x7b0>
ffffffff8040bbd4:	f4042c23          	sw	zero,-168(s0)
ffffffff8040bbd8:	a839                	j	ffffffff8040bbf6 <_create_new+0x7fc>
ffffffff8040bbda:	f8843703          	ld	a4,-120(s0)
ffffffff8040bbde:	f5846783          	lwu	a5,-168(s0)
ffffffff8040bbe2:	97ba                	add	a5,a5,a4
ffffffff8040bbe4:	02000713          	li	a4,32
ffffffff8040bbe8:	00e78423          	sb	a4,8(a5)
ffffffff8040bbec:	f5842783          	lw	a5,-168(s0)
ffffffff8040bbf0:	2785                	addiw	a5,a5,1
ffffffff8040bbf2:	f4f42c23          	sw	a5,-168(s0)
ffffffff8040bbf6:	f5842783          	lw	a5,-168(s0)
ffffffff8040bbfa:	0007871b          	sext.w	a4,a5
ffffffff8040bbfe:	4789                	li	a5,2
ffffffff8040bc00:	fce7fde3          	bgeu	a5,a4,ffffffff8040bbda <_create_new+0x7e0>
ffffffff8040bc04:	f8843783          	ld	a5,-120(s0)
ffffffff8040bc08:	4741                	li	a4,16
ffffffff8040bc0a:	00e785a3          	sb	a4,11(a5)
ffffffff8040bc0e:	f8843783          	ld	a5,-120(s0)
ffffffff8040bc12:	00078623          	sb	zero,12(a5)
ffffffff8040bc16:	f8843783          	ld	a5,-120(s0)
ffffffff8040bc1a:	000786a3          	sb	zero,13(a5)
ffffffff8040bc1e:	f8843783          	ld	a5,-120(s0)
ffffffff8040bc22:	00e7c703          	lbu	a4,14(a5)
ffffffff8040bc26:	8b01                	andi	a4,a4,0
ffffffff8040bc28:	fd476713          	ori	a4,a4,-44
ffffffff8040bc2c:	00e78723          	sb	a4,14(a5)
ffffffff8040bc30:	00f7c703          	lbu	a4,15(a5)
ffffffff8040bc34:	8b01                	andi	a4,a4,0
ffffffff8040bc36:	05376713          	ori	a4,a4,83
ffffffff8040bc3a:	00e787a3          	sb	a4,15(a5)
ffffffff8040bc3e:	f8843783          	ld	a5,-120(s0)
ffffffff8040bc42:	0107c703          	lbu	a4,16(a5)
ffffffff8040bc46:	8b01                	andi	a4,a4,0
ffffffff8040bc48:	fbb76713          	ori	a4,a4,-69
ffffffff8040bc4c:	00e78823          	sb	a4,16(a5)
ffffffff8040bc50:	0117c703          	lbu	a4,17(a5)
ffffffff8040bc54:	8b01                	andi	a4,a4,0
ffffffff8040bc56:	05276713          	ori	a4,a4,82
ffffffff8040bc5a:	00e788a3          	sb	a4,17(a5)
ffffffff8040bc5e:	f8843783          	ld	a5,-120(s0)
ffffffff8040bc62:	0127c703          	lbu	a4,18(a5)
ffffffff8040bc66:	8b01                	andi	a4,a4,0
ffffffff8040bc68:	fbb76713          	ori	a4,a4,-69
ffffffff8040bc6c:	00e78923          	sb	a4,18(a5)
ffffffff8040bc70:	0137c703          	lbu	a4,19(a5)
ffffffff8040bc74:	8b01                	andi	a4,a4,0
ffffffff8040bc76:	05276713          	ori	a4,a4,82
ffffffff8040bc7a:	00e789a3          	sb	a4,19(a5)
ffffffff8040bc7e:	f4442783          	lw	a5,-188(s0)
ffffffff8040bc82:	0107d79b          	srliw	a5,a5,0x10
ffffffff8040bc86:	2781                	sext.w	a5,a5
ffffffff8040bc88:	03079713          	slli	a4,a5,0x30
ffffffff8040bc8c:	9341                	srli	a4,a4,0x30
ffffffff8040bc8e:	f8843783          	ld	a5,-120(s0)
ffffffff8040bc92:	0ff77593          	andi	a1,a4,255
ffffffff8040bc96:	0147c683          	lbu	a3,20(a5)
ffffffff8040bc9a:	8a81                	andi	a3,a3,0
ffffffff8040bc9c:	8636                	mv	a2,a3
ffffffff8040bc9e:	86ae                	mv	a3,a1
ffffffff8040bca0:	8ed1                	or	a3,a3,a2
ffffffff8040bca2:	00d78a23          	sb	a3,20(a5)
ffffffff8040bca6:	0087571b          	srliw	a4,a4,0x8
ffffffff8040bcaa:	03071613          	slli	a2,a4,0x30
ffffffff8040bcae:	9241                	srli	a2,a2,0x30
ffffffff8040bcb0:	0157c703          	lbu	a4,21(a5)
ffffffff8040bcb4:	8b01                	andi	a4,a4,0
ffffffff8040bcb6:	86ba                	mv	a3,a4
ffffffff8040bcb8:	8732                	mv	a4,a2
ffffffff8040bcba:	8f55                	or	a4,a4,a3
ffffffff8040bcbc:	00e78aa3          	sb	a4,21(a5)
ffffffff8040bcc0:	f8843783          	ld	a5,-120(s0)
ffffffff8040bcc4:	0167c703          	lbu	a4,22(a5)
ffffffff8040bcc8:	8b01                	andi	a4,a4,0
ffffffff8040bcca:	fd376713          	ori	a4,a4,-45
ffffffff8040bcce:	00e78b23          	sb	a4,22(a5)
ffffffff8040bcd2:	0177c703          	lbu	a4,23(a5)
ffffffff8040bcd6:	8b01                	andi	a4,a4,0
ffffffff8040bcd8:	05376713          	ori	a4,a4,83
ffffffff8040bcdc:	00e78ba3          	sb	a4,23(a5)
ffffffff8040bce0:	f8843783          	ld	a5,-120(s0)
ffffffff8040bce4:	0187c703          	lbu	a4,24(a5)
ffffffff8040bce8:	8b01                	andi	a4,a4,0
ffffffff8040bcea:	fbb76713          	ori	a4,a4,-69
ffffffff8040bcee:	00e78c23          	sb	a4,24(a5)
ffffffff8040bcf2:	0197c703          	lbu	a4,25(a5)
ffffffff8040bcf6:	8b01                	andi	a4,a4,0
ffffffff8040bcf8:	05276713          	ori	a4,a4,82
ffffffff8040bcfc:	00e78ca3          	sb	a4,25(a5)
ffffffff8040bd00:	f4442783          	lw	a5,-188(s0)
ffffffff8040bd04:	03079713          	slli	a4,a5,0x30
ffffffff8040bd08:	9341                	srli	a4,a4,0x30
ffffffff8040bd0a:	f8843783          	ld	a5,-120(s0)
ffffffff8040bd0e:	0ff77593          	andi	a1,a4,255
ffffffff8040bd12:	01a7c683          	lbu	a3,26(a5)
ffffffff8040bd16:	8a81                	andi	a3,a3,0
ffffffff8040bd18:	8636                	mv	a2,a3
ffffffff8040bd1a:	86ae                	mv	a3,a1
ffffffff8040bd1c:	8ed1                	or	a3,a3,a2
ffffffff8040bd1e:	00d78d23          	sb	a3,26(a5)
ffffffff8040bd22:	0087571b          	srliw	a4,a4,0x8
ffffffff8040bd26:	03071613          	slli	a2,a4,0x30
ffffffff8040bd2a:	9241                	srli	a2,a2,0x30
ffffffff8040bd2c:	01b7c703          	lbu	a4,27(a5)
ffffffff8040bd30:	8b01                	andi	a4,a4,0
ffffffff8040bd32:	86ba                	mv	a3,a4
ffffffff8040bd34:	8732                	mv	a4,a2
ffffffff8040bd36:	8f55                	or	a4,a4,a3
ffffffff8040bd38:	00e78da3          	sb	a4,27(a5)
ffffffff8040bd3c:	f8843783          	ld	a5,-120(s0)
ffffffff8040bd40:	01c7c703          	lbu	a4,28(a5)
ffffffff8040bd44:	8b01                	andi	a4,a4,0
ffffffff8040bd46:	00e78e23          	sb	a4,28(a5)
ffffffff8040bd4a:	01d7c703          	lbu	a4,29(a5)
ffffffff8040bd4e:	8b01                	andi	a4,a4,0
ffffffff8040bd50:	00e78ea3          	sb	a4,29(a5)
ffffffff8040bd54:	01e7c703          	lbu	a4,30(a5)
ffffffff8040bd58:	8b01                	andi	a4,a4,0
ffffffff8040bd5a:	00e78f23          	sb	a4,30(a5)
ffffffff8040bd5e:	01f7c703          	lbu	a4,31(a5)
ffffffff8040bd62:	8b01                	andi	a4,a4,0
ffffffff8040bd64:	00e78fa3          	sb	a4,31(a5)
ffffffff8040bd68:	f8843783          	ld	a5,-120(s0)
ffffffff8040bd6c:	02078793          	addi	a5,a5,32
ffffffff8040bd70:	f8f43423          	sd	a5,-120(s0)
ffffffff8040bd74:	f8843783          	ld	a5,-120(s0)
ffffffff8040bd78:	02e00713          	li	a4,46
ffffffff8040bd7c:	00e78023          	sb	a4,0(a5)
ffffffff8040bd80:	f8843783          	ld	a5,-120(s0)
ffffffff8040bd84:	02e00713          	li	a4,46
ffffffff8040bd88:	00e780a3          	sb	a4,1(a5)
ffffffff8040bd8c:	4789                	li	a5,2
ffffffff8040bd8e:	f4f42a23          	sw	a5,-172(s0)
ffffffff8040bd92:	a839                	j	ffffffff8040bdb0 <_create_new+0x9b6>
ffffffff8040bd94:	f8843703          	ld	a4,-120(s0)
ffffffff8040bd98:	f5446783          	lwu	a5,-172(s0)
ffffffff8040bd9c:	97ba                	add	a5,a5,a4
ffffffff8040bd9e:	02000713          	li	a4,32
ffffffff8040bda2:	00e78023          	sb	a4,0(a5)
ffffffff8040bda6:	f5442783          	lw	a5,-172(s0)
ffffffff8040bdaa:	2785                	addiw	a5,a5,1
ffffffff8040bdac:	f4f42a23          	sw	a5,-172(s0)
ffffffff8040bdb0:	f5442783          	lw	a5,-172(s0)
ffffffff8040bdb4:	0007871b          	sext.w	a4,a5
ffffffff8040bdb8:	479d                	li	a5,7
ffffffff8040bdba:	fce7fde3          	bgeu	a5,a4,ffffffff8040bd94 <_create_new+0x99a>
ffffffff8040bdbe:	f4042823          	sw	zero,-176(s0)
ffffffff8040bdc2:	a839                	j	ffffffff8040bde0 <_create_new+0x9e6>
ffffffff8040bdc4:	f8843703          	ld	a4,-120(s0)
ffffffff8040bdc8:	f5046783          	lwu	a5,-176(s0)
ffffffff8040bdcc:	97ba                	add	a5,a5,a4
ffffffff8040bdce:	02000713          	li	a4,32
ffffffff8040bdd2:	00e78423          	sb	a4,8(a5)
ffffffff8040bdd6:	f5042783          	lw	a5,-176(s0)
ffffffff8040bdda:	2785                	addiw	a5,a5,1
ffffffff8040bddc:	f4f42823          	sw	a5,-176(s0)
ffffffff8040bde0:	f5042783          	lw	a5,-176(s0)
ffffffff8040bde4:	0007871b          	sext.w	a4,a5
ffffffff8040bde8:	4789                	li	a5,2
ffffffff8040bdea:	fce7fde3          	bgeu	a5,a4,ffffffff8040bdc4 <_create_new+0x9ca>
ffffffff8040bdee:	f8843783          	ld	a5,-120(s0)
ffffffff8040bdf2:	4741                	li	a4,16
ffffffff8040bdf4:	00e785a3          	sb	a4,11(a5)
ffffffff8040bdf8:	f8843783          	ld	a5,-120(s0)
ffffffff8040bdfc:	00078623          	sb	zero,12(a5)
ffffffff8040be00:	f8843783          	ld	a5,-120(s0)
ffffffff8040be04:	000786a3          	sb	zero,13(a5)
ffffffff8040be08:	f8843783          	ld	a5,-120(s0)
ffffffff8040be0c:	00e7c703          	lbu	a4,14(a5)
ffffffff8040be10:	8b01                	andi	a4,a4,0
ffffffff8040be12:	fd476713          	ori	a4,a4,-44
ffffffff8040be16:	00e78723          	sb	a4,14(a5)
ffffffff8040be1a:	00f7c703          	lbu	a4,15(a5)
ffffffff8040be1e:	8b01                	andi	a4,a4,0
ffffffff8040be20:	05376713          	ori	a4,a4,83
ffffffff8040be24:	00e787a3          	sb	a4,15(a5)
ffffffff8040be28:	f8843783          	ld	a5,-120(s0)
ffffffff8040be2c:	0107c703          	lbu	a4,16(a5)
ffffffff8040be30:	8b01                	andi	a4,a4,0
ffffffff8040be32:	fbb76713          	ori	a4,a4,-69
ffffffff8040be36:	00e78823          	sb	a4,16(a5)
ffffffff8040be3a:	0117c703          	lbu	a4,17(a5)
ffffffff8040be3e:	8b01                	andi	a4,a4,0
ffffffff8040be40:	05276713          	ori	a4,a4,82
ffffffff8040be44:	00e788a3          	sb	a4,17(a5)
ffffffff8040be48:	f8843783          	ld	a5,-120(s0)
ffffffff8040be4c:	0127c703          	lbu	a4,18(a5)
ffffffff8040be50:	8b01                	andi	a4,a4,0
ffffffff8040be52:	fbb76713          	ori	a4,a4,-69
ffffffff8040be56:	00e78923          	sb	a4,18(a5)
ffffffff8040be5a:	0137c703          	lbu	a4,19(a5)
ffffffff8040be5e:	8b01                	andi	a4,a4,0
ffffffff8040be60:	05276713          	ori	a4,a4,82
ffffffff8040be64:	00e789a3          	sb	a4,19(a5)
ffffffff8040be68:	f4842783          	lw	a5,-184(s0)
ffffffff8040be6c:	0107d79b          	srliw	a5,a5,0x10
ffffffff8040be70:	2781                	sext.w	a5,a5
ffffffff8040be72:	03079713          	slli	a4,a5,0x30
ffffffff8040be76:	9341                	srli	a4,a4,0x30
ffffffff8040be78:	f8843783          	ld	a5,-120(s0)
ffffffff8040be7c:	0ff77593          	andi	a1,a4,255
ffffffff8040be80:	0147c683          	lbu	a3,20(a5)
ffffffff8040be84:	8a81                	andi	a3,a3,0
ffffffff8040be86:	8636                	mv	a2,a3
ffffffff8040be88:	86ae                	mv	a3,a1
ffffffff8040be8a:	8ed1                	or	a3,a3,a2
ffffffff8040be8c:	00d78a23          	sb	a3,20(a5)
ffffffff8040be90:	0087571b          	srliw	a4,a4,0x8
ffffffff8040be94:	03071613          	slli	a2,a4,0x30
ffffffff8040be98:	9241                	srli	a2,a2,0x30
ffffffff8040be9a:	0157c703          	lbu	a4,21(a5)
ffffffff8040be9e:	8b01                	andi	a4,a4,0
ffffffff8040bea0:	86ba                	mv	a3,a4
ffffffff8040bea2:	8732                	mv	a4,a2
ffffffff8040bea4:	8f55                	or	a4,a4,a3
ffffffff8040bea6:	00e78aa3          	sb	a4,21(a5)
ffffffff8040beaa:	f8843783          	ld	a5,-120(s0)
ffffffff8040beae:	0167c703          	lbu	a4,22(a5)
ffffffff8040beb2:	8b01                	andi	a4,a4,0
ffffffff8040beb4:	fd376713          	ori	a4,a4,-45
ffffffff8040beb8:	00e78b23          	sb	a4,22(a5)
ffffffff8040bebc:	0177c703          	lbu	a4,23(a5)
ffffffff8040bec0:	8b01                	andi	a4,a4,0
ffffffff8040bec2:	05376713          	ori	a4,a4,83
ffffffff8040bec6:	00e78ba3          	sb	a4,23(a5)
ffffffff8040beca:	f8843783          	ld	a5,-120(s0)
ffffffff8040bece:	0187c703          	lbu	a4,24(a5)
ffffffff8040bed2:	8b01                	andi	a4,a4,0
ffffffff8040bed4:	fbb76713          	ori	a4,a4,-69
ffffffff8040bed8:	00e78c23          	sb	a4,24(a5)
ffffffff8040bedc:	0197c703          	lbu	a4,25(a5)
ffffffff8040bee0:	8b01                	andi	a4,a4,0
ffffffff8040bee2:	05276713          	ori	a4,a4,82
ffffffff8040bee6:	00e78ca3          	sb	a4,25(a5)
ffffffff8040beea:	f4842783          	lw	a5,-184(s0)
ffffffff8040beee:	03079713          	slli	a4,a5,0x30
ffffffff8040bef2:	9341                	srli	a4,a4,0x30
ffffffff8040bef4:	f8843783          	ld	a5,-120(s0)
ffffffff8040bef8:	0ff77593          	andi	a1,a4,255
ffffffff8040befc:	01a7c683          	lbu	a3,26(a5)
ffffffff8040bf00:	8a81                	andi	a3,a3,0
ffffffff8040bf02:	8636                	mv	a2,a3
ffffffff8040bf04:	86ae                	mv	a3,a1
ffffffff8040bf06:	8ed1                	or	a3,a3,a2
ffffffff8040bf08:	00d78d23          	sb	a3,26(a5)
ffffffff8040bf0c:	0087571b          	srliw	a4,a4,0x8
ffffffff8040bf10:	03071613          	slli	a2,a4,0x30
ffffffff8040bf14:	9241                	srli	a2,a2,0x30
ffffffff8040bf16:	01b7c703          	lbu	a4,27(a5)
ffffffff8040bf1a:	8b01                	andi	a4,a4,0
ffffffff8040bf1c:	86ba                	mv	a3,a4
ffffffff8040bf1e:	8732                	mv	a4,a2
ffffffff8040bf20:	8f55                	or	a4,a4,a3
ffffffff8040bf22:	00e78da3          	sb	a4,27(a5)
ffffffff8040bf26:	f8843783          	ld	a5,-120(s0)
ffffffff8040bf2a:	01c7c703          	lbu	a4,28(a5)
ffffffff8040bf2e:	8b01                	andi	a4,a4,0
ffffffff8040bf30:	00e78e23          	sb	a4,28(a5)
ffffffff8040bf34:	01d7c703          	lbu	a4,29(a5)
ffffffff8040bf38:	8b01                	andi	a4,a4,0
ffffffff8040bf3a:	00e78ea3          	sb	a4,29(a5)
ffffffff8040bf3e:	01e7c703          	lbu	a4,30(a5)
ffffffff8040bf42:	8b01                	andi	a4,a4,0
ffffffff8040bf44:	00e78f23          	sb	a4,30(a5)
ffffffff8040bf48:	01f7c703          	lbu	a4,31(a5)
ffffffff8040bf4c:	8b01                	andi	a4,a4,0
ffffffff8040bf4e:	00e78fa3          	sb	a4,31(a5)
ffffffff8040bf52:	f2442783          	lw	a5,-220(s0)
ffffffff8040bf56:	85be                	mv	a1,a5
ffffffff8040bf58:	ee843503          	ld	a0,-280(s0)
ffffffff8040bf5c:	8adfe0ef          	jal	ra,ffffffff8040a808 <sd_write>
ffffffff8040bf60:	f4442783          	lw	a5,-188(s0)
ffffffff8040bf64:	ee843603          	ld	a2,-280(s0)
ffffffff8040bf68:	85be                	mv	a1,a5
ffffffff8040bf6a:	4501                	li	a0,0
ffffffff8040bf6c:	28a000ef          	jal	ra,ffffffff8040c1f6 <write_fat_table>
ffffffff8040bf70:	f4442783          	lw	a5,-188(s0)
ffffffff8040bf74:	816a                	mv	sp,s10
ffffffff8040bf76:	853e                	mv	a0,a5
ffffffff8040bf78:	ee040113          	addi	sp,s0,-288
ffffffff8040bf7c:	60f2                	ld	ra,280(sp)
ffffffff8040bf7e:	6452                	ld	s0,272(sp)
ffffffff8040bf80:	64b2                	ld	s1,264(sp)
ffffffff8040bf82:	6912                	ld	s2,256(sp)
ffffffff8040bf84:	79ee                	ld	s3,248(sp)
ffffffff8040bf86:	7a4e                	ld	s4,240(sp)
ffffffff8040bf88:	7aae                	ld	s5,232(sp)
ffffffff8040bf8a:	7b0e                	ld	s6,224(sp)
ffffffff8040bf8c:	6bee                	ld	s7,216(sp)
ffffffff8040bf8e:	6c4e                	ld	s8,208(sp)
ffffffff8040bf90:	6cae                	ld	s9,200(sp)
ffffffff8040bf92:	6d0e                	ld	s10,192(sp)
ffffffff8040bf94:	6115                	addi	sp,sp,288
ffffffff8040bf96:	8082                	ret

ffffffff8040bf98 <fat32_mkdir>:
ffffffff8040bf98:	7171                	addi	sp,sp,-176
ffffffff8040bf9a:	f506                	sd	ra,168(sp)
ffffffff8040bf9c:	f122                	sd	s0,160(sp)
ffffffff8040bf9e:	ed26                	sd	s1,152(sp)
ffffffff8040bfa0:	e94a                	sd	s2,144(sp)
ffffffff8040bfa2:	e54e                	sd	s3,136(sp)
ffffffff8040bfa4:	e152                	sd	s4,128(sp)
ffffffff8040bfa6:	fcd6                	sd	s5,120(sp)
ffffffff8040bfa8:	f8da                	sd	s6,112(sp)
ffffffff8040bfaa:	f4de                	sd	s7,104(sp)
ffffffff8040bfac:	f0e2                	sd	s8,96(sp)
ffffffff8040bfae:	ece6                	sd	s9,88(sp)
ffffffff8040bfb0:	1900                	addi	s0,sp,176
ffffffff8040bfb2:	87aa                	mv	a5,a0
ffffffff8040bfb4:	f4b43823          	sd	a1,-176(s0)
ffffffff8040bfb8:	8732                	mv	a4,a2
ffffffff8040bfba:	f4f42e23          	sw	a5,-164(s0)
ffffffff8040bfbe:	87ba                	mv	a5,a4
ffffffff8040bfc0:	f4f42c23          	sw	a5,-168(s0)
ffffffff8040bfc4:	878a                	mv	a5,sp
ffffffff8040bfc6:	84be                	mv	s1,a5
ffffffff8040bfc8:	fb8f90ef          	jal	ra,ffffffff80405780 <kalloc>
ffffffff8040bfcc:	f8a43023          	sd	a0,-128(s0)
ffffffff8040bfd0:	f5043503          	ld	a0,-176(s0)
ffffffff8040bfd4:	b6ff90ef          	jal	ra,ffffffff80405b42 <strlen>
ffffffff8040bfd8:	87aa                	mv	a5,a0
ffffffff8040bfda:	2785                	addiw	a5,a5,1
ffffffff8040bfdc:	2781                	sext.w	a5,a5
ffffffff8040bfde:	873e                	mv	a4,a5
ffffffff8040bfe0:	177d                	addi	a4,a4,-1
ffffffff8040bfe2:	f6e43c23          	sd	a4,-136(s0)
ffffffff8040bfe6:	873e                	mv	a4,a5
ffffffff8040bfe8:	8c3a                	mv	s8,a4
ffffffff8040bfea:	4c81                	li	s9,0
ffffffff8040bfec:	03dc5713          	srli	a4,s8,0x3d
ffffffff8040bff0:	003c9a93          	slli	s5,s9,0x3
ffffffff8040bff4:	01576ab3          	or	s5,a4,s5
ffffffff8040bff8:	003c1a13          	slli	s4,s8,0x3
ffffffff8040bffc:	873e                	mv	a4,a5
ffffffff8040bffe:	8b3a                	mv	s6,a4
ffffffff8040c000:	4b81                	li	s7,0
ffffffff8040c002:	03db5713          	srli	a4,s6,0x3d
ffffffff8040c006:	003b9993          	slli	s3,s7,0x3
ffffffff8040c00a:	013769b3          	or	s3,a4,s3
ffffffff8040c00e:	003b1913          	slli	s2,s6,0x3
ffffffff8040c012:	07bd                	addi	a5,a5,15
ffffffff8040c014:	8391                	srli	a5,a5,0x4
ffffffff8040c016:	0792                	slli	a5,a5,0x4
ffffffff8040c018:	40f10133          	sub	sp,sp,a5
ffffffff8040c01c:	878a                	mv	a5,sp
ffffffff8040c01e:	00078793          	mv	a5,a5
ffffffff8040c022:	f6f43823          	sd	a5,-144(s0)
ffffffff8040c026:	f7043783          	ld	a5,-144(s0)
ffffffff8040c02a:	f5043583          	ld	a1,-176(s0)
ffffffff8040c02e:	853e                	mv	a0,a5
ffffffff8040c030:	e0ff90ef          	jal	ra,ffffffff80405e3e <strcpy>
ffffffff8040c034:	f80407a3          	sb	zero,-113(s0)
ffffffff8040c038:	f8043783          	ld	a5,-128(s0)
ffffffff8040c03c:	f6f43423          	sd	a5,-152(s0)
ffffffff8040c040:	f7043783          	ld	a5,-144(s0)
ffffffff8040c044:	0007c783          	lbu	a5,0(a5)
ffffffff8040c048:	873e                	mv	a4,a5
ffffffff8040c04a:	02f00793          	li	a5,47
ffffffff8040c04e:	02f71463          	bne	a4,a5,ffffffff8040c076 <fat32_mkdir+0xde>
ffffffff8040c052:	00017797          	auipc	a5,0x17
ffffffff8040c056:	69678793          	addi	a5,a5,1686 # ffffffff804236e8 <fat>
ffffffff8040c05a:	53dc                	lw	a5,36(a5)
ffffffff8040c05c:	f8f42423          	sw	a5,-120(s0)
ffffffff8040c060:	f7043783          	ld	a5,-144(s0)
ffffffff8040c064:	0785                	addi	a5,a5,1
ffffffff8040c066:	f8f43c23          	sd	a5,-104(s0)
ffffffff8040c06a:	f7043783          	ld	a5,-144(s0)
ffffffff8040c06e:	0785                	addi	a5,a5,1
ffffffff8040c070:	f8f43823          	sd	a5,-112(s0)
ffffffff8040c074:	a041                	j	ffffffff8040c0f4 <fat32_mkdir+0x15c>
ffffffff8040c076:	f5c42783          	lw	a5,-164(s0)
ffffffff8040c07a:	0007871b          	sext.w	a4,a5
ffffffff8040c07e:	f9c00793          	li	a5,-100
ffffffff8040c082:	00f71a63          	bne	a4,a5,ffffffff8040c096 <fat32_mkdir+0xfe>
ffffffff8040c086:	00017797          	auipc	a5,0x17
ffffffff8040c08a:	68e78793          	addi	a5,a5,1678 # ffffffff80423714 <cwd_first_clus>
ffffffff8040c08e:	439c                	lw	a5,0(a5)
ffffffff8040c090:	f8f42423          	sw	a5,-120(s0)
ffffffff8040c094:	a091                	j	ffffffff8040c0d8 <fat32_mkdir+0x140>
ffffffff8040c096:	00014797          	auipc	a5,0x14
ffffffff8040c09a:	9f278793          	addi	a5,a5,-1550 # ffffffff8041fa88 <current_running>
ffffffff8040c09e:	6398                	ld	a4,0(a5)
ffffffff8040c0a0:	f5c46783          	lwu	a5,-164(s0)
ffffffff8040c0a4:	0796                	slli	a5,a5,0x5
ffffffff8040c0a6:	97ba                	add	a5,a5,a4
ffffffff8040c0a8:	0d87c783          	lbu	a5,216(a5)
ffffffff8040c0ac:	cf99                	beqz	a5,ffffffff8040c0ca <fat32_mkdir+0x132>
ffffffff8040c0ae:	00014797          	auipc	a5,0x14
ffffffff8040c0b2:	9da78793          	addi	a5,a5,-1574 # ffffffff8041fa88 <current_running>
ffffffff8040c0b6:	6398                	ld	a4,0(a5)
ffffffff8040c0b8:	f5c46783          	lwu	a5,-164(s0)
ffffffff8040c0bc:	0799                	addi	a5,a5,6
ffffffff8040c0be:	0796                	slli	a5,a5,0x5
ffffffff8040c0c0:	97ba                	add	a5,a5,a4
ffffffff8040c0c2:	43dc                	lw	a5,4(a5)
ffffffff8040c0c4:	f8f42423          	sw	a5,-120(s0)
ffffffff8040c0c8:	a801                	j	ffffffff8040c0d8 <fat32_mkdir+0x140>
ffffffff8040c0ca:	f8043503          	ld	a0,-128(s0)
ffffffff8040c0ce:	ecaf90ef          	jal	ra,ffffffff80405798 <kfree>
ffffffff8040c0d2:	0ff00793          	li	a5,255
ffffffff8040c0d6:	a8fd                	j	ffffffff8040c1d4 <fat32_mkdir+0x23c>
ffffffff8040c0d8:	f7043783          	ld	a5,-144(s0)
ffffffff8040c0dc:	f8f43c23          	sd	a5,-104(s0)
ffffffff8040c0e0:	f7043783          	ld	a5,-144(s0)
ffffffff8040c0e4:	f8f43823          	sd	a5,-112(s0)
ffffffff8040c0e8:	a031                	j	ffffffff8040c0f4 <fat32_mkdir+0x15c>
ffffffff8040c0ea:	f9843783          	ld	a5,-104(s0)
ffffffff8040c0ee:	0785                	addi	a5,a5,1
ffffffff8040c0f0:	f8f43c23          	sd	a5,-104(s0)
ffffffff8040c0f4:	f9843783          	ld	a5,-104(s0)
ffffffff8040c0f8:	0007c783          	lbu	a5,0(a5)
ffffffff8040c0fc:	873e                	mv	a4,a5
ffffffff8040c0fe:	02f00793          	li	a5,47
ffffffff8040c102:	00f70763          	beq	a4,a5,ffffffff8040c110 <fat32_mkdir+0x178>
ffffffff8040c106:	f9843783          	ld	a5,-104(s0)
ffffffff8040c10a:	0007c783          	lbu	a5,0(a5)
ffffffff8040c10e:	fff1                	bnez	a5,ffffffff8040c0ea <fat32_mkdir+0x152>
ffffffff8040c110:	f9843783          	ld	a5,-104(s0)
ffffffff8040c114:	0007c783          	lbu	a5,0(a5)
ffffffff8040c118:	c799                	beqz	a5,ffffffff8040c126 <fat32_mkdir+0x18e>
ffffffff8040c11a:	f9843783          	ld	a5,-104(s0)
ffffffff8040c11e:	0785                	addi	a5,a5,1
ffffffff8040c120:	0007c783          	lbu	a5,0(a5)
ffffffff8040c124:	e781                	bnez	a5,ffffffff8040c12c <fat32_mkdir+0x194>
ffffffff8040c126:	4785                	li	a5,1
ffffffff8040c128:	f8f407a3          	sb	a5,-113(s0)
ffffffff8040c12c:	f9843783          	ld	a5,-104(s0)
ffffffff8040c130:	00078023          	sb	zero,0(a5)
ffffffff8040c134:	f8f44783          	lbu	a5,-113(s0)
ffffffff8040c138:	0ff7f793          	andi	a5,a5,255
ffffffff8040c13c:	c7bd                	beqz	a5,ffffffff8040c1aa <fat32_mkdir+0x212>
ffffffff8040c13e:	f8842783          	lw	a5,-120(s0)
ffffffff8040c142:	4685                	li	a3,1
ffffffff8040c144:	f8043603          	ld	a2,-128(s0)
ffffffff8040c148:	85be                	mv	a1,a5
ffffffff8040c14a:	f9043503          	ld	a0,-112(s0)
ffffffff8040c14e:	486000ef          	jal	ra,ffffffff8040c5d4 <search>
ffffffff8040c152:	87aa                	mv	a5,a0
ffffffff8040c154:	c799                	beqz	a5,ffffffff8040c162 <fat32_mkdir+0x1ca>
ffffffff8040c156:	f8043503          	ld	a0,-128(s0)
ffffffff8040c15a:	e3ef90ef          	jal	ra,ffffffff80405798 <kfree>
ffffffff8040c15e:	4781                	li	a5,0
ffffffff8040c160:	a895                	j	ffffffff8040c1d4 <fat32_mkdir+0x23c>
ffffffff8040c162:	f9043783          	ld	a5,-112(s0)
ffffffff8040c166:	0007c783          	lbu	a5,0(a5)
ffffffff8040c16a:	873e                	mv	a4,a5
ffffffff8040c16c:	f8842783          	lw	a5,-120(s0)
ffffffff8040c170:	4685                	li	a3,1
ffffffff8040c172:	f8043603          	ld	a2,-128(s0)
ffffffff8040c176:	85be                	mv	a1,a5
ffffffff8040c178:	853a                	mv	a0,a4
ffffffff8040c17a:	a80ff0ef          	jal	ra,ffffffff8040b3fa <_create_new>
ffffffff8040c17e:	f8043503          	ld	a0,-128(s0)
ffffffff8040c182:	e16f90ef          	jal	ra,ffffffff80405798 <kfree>
ffffffff8040c186:	4781                	li	a5,0
ffffffff8040c188:	a0b1                	j	ffffffff8040c1d4 <fat32_mkdir+0x23c>
ffffffff8040c18a:	f6843503          	ld	a0,-152(s0)
ffffffff8040c18e:	940fe0ef          	jal	ra,ffffffff8040a2ce <get_cluster_from_dentry>
ffffffff8040c192:	87aa                	mv	a5,a0
ffffffff8040c194:	f8f42423          	sw	a5,-120(s0)
ffffffff8040c198:	f9843783          	ld	a5,-104(s0)
ffffffff8040c19c:	0785                	addi	a5,a5,1
ffffffff8040c19e:	f8f43c23          	sd	a5,-104(s0)
ffffffff8040c1a2:	f9843783          	ld	a5,-104(s0)
ffffffff8040c1a6:	f8f43823          	sd	a5,-112(s0)
ffffffff8040c1aa:	f8842783          	lw	a5,-120(s0)
ffffffff8040c1ae:	4685                	li	a3,1
ffffffff8040c1b0:	f8043603          	ld	a2,-128(s0)
ffffffff8040c1b4:	85be                	mv	a1,a5
ffffffff8040c1b6:	f9043503          	ld	a0,-112(s0)
ffffffff8040c1ba:	41a000ef          	jal	ra,ffffffff8040c5d4 <search>
ffffffff8040c1be:	f6a43423          	sd	a0,-152(s0)
ffffffff8040c1c2:	f6843783          	ld	a5,-152(s0)
ffffffff8040c1c6:	f3f1                	bnez	a5,ffffffff8040c18a <fat32_mkdir+0x1f2>
ffffffff8040c1c8:	f8043503          	ld	a0,-128(s0)
ffffffff8040c1cc:	dccf90ef          	jal	ra,ffffffff80405798 <kfree>
ffffffff8040c1d0:	0ff00793          	li	a5,255
ffffffff8040c1d4:	8126                	mv	sp,s1
ffffffff8040c1d6:	853e                	mv	a0,a5
ffffffff8040c1d8:	f5040113          	addi	sp,s0,-176
ffffffff8040c1dc:	70aa                	ld	ra,168(sp)
ffffffff8040c1de:	740a                	ld	s0,160(sp)
ffffffff8040c1e0:	64ea                	ld	s1,152(sp)
ffffffff8040c1e2:	694a                	ld	s2,144(sp)
ffffffff8040c1e4:	69aa                	ld	s3,136(sp)
ffffffff8040c1e6:	6a0a                	ld	s4,128(sp)
ffffffff8040c1e8:	7ae6                	ld	s5,120(sp)
ffffffff8040c1ea:	7b46                	ld	s6,112(sp)
ffffffff8040c1ec:	7ba6                	ld	s7,104(sp)
ffffffff8040c1ee:	7c06                	ld	s8,96(sp)
ffffffff8040c1f0:	6ce6                	ld	s9,88(sp)
ffffffff8040c1f2:	614d                	addi	sp,sp,176
ffffffff8040c1f4:	8082                	ret

ffffffff8040c1f6 <write_fat_table>:
ffffffff8040c1f6:	7179                	addi	sp,sp,-48
ffffffff8040c1f8:	f406                	sd	ra,40(sp)
ffffffff8040c1fa:	f022                	sd	s0,32(sp)
ffffffff8040c1fc:	1800                	addi	s0,sp,48
ffffffff8040c1fe:	87aa                	mv	a5,a0
ffffffff8040c200:	872e                	mv	a4,a1
ffffffff8040c202:	fcc43823          	sd	a2,-48(s0)
ffffffff8040c206:	fcf42e23          	sw	a5,-36(s0)
ffffffff8040c20a:	87ba                	mv	a5,a4
ffffffff8040c20c:	fcf42c23          	sw	a5,-40(s0)
ffffffff8040c210:	fdc42783          	lw	a5,-36(s0)
ffffffff8040c214:	2781                	sext.w	a5,a5
ffffffff8040c216:	cbe9                	beqz	a5,ffffffff8040c2e8 <write_fat_table+0xf2>
ffffffff8040c218:	fdc42783          	lw	a5,-36(s0)
ffffffff8040c21c:	853e                	mv	a0,a5
ffffffff8040c21e:	848fe0ef          	jal	ra,ffffffff8040a266 <fat_sec_of_clus>
ffffffff8040c222:	87aa                	mv	a5,a0
ffffffff8040c224:	2781                	sext.w	a5,a5
ffffffff8040c226:	85be                	mv	a1,a5
ffffffff8040c228:	fd043503          	ld	a0,-48(s0)
ffffffff8040c22c:	d80fe0ef          	jal	ra,ffffffff8040a7ac <sd_read>
ffffffff8040c230:	fdc42783          	lw	a5,-36(s0)
ffffffff8040c234:	853e                	mv	a0,a5
ffffffff8040c236:	8e2fe0ef          	jal	ra,ffffffff8040a318 <fat_offset_of_clus>
ffffffff8040c23a:	87aa                	mv	a5,a0
ffffffff8040c23c:	2781                	sext.w	a5,a5
ffffffff8040c23e:	1782                	slli	a5,a5,0x20
ffffffff8040c240:	9381                	srli	a5,a5,0x20
ffffffff8040c242:	fd043703          	ld	a4,-48(s0)
ffffffff8040c246:	97ba                	add	a5,a5,a4
ffffffff8040c248:	fef43423          	sd	a5,-24(s0)
ffffffff8040c24c:	fe843783          	ld	a5,-24(s0)
ffffffff8040c250:	fd842703          	lw	a4,-40(s0)
ffffffff8040c254:	c398                	sw	a4,0(a5)
ffffffff8040c256:	fdc42783          	lw	a5,-36(s0)
ffffffff8040c25a:	853e                	mv	a0,a5
ffffffff8040c25c:	80afe0ef          	jal	ra,ffffffff8040a266 <fat_sec_of_clus>
ffffffff8040c260:	87aa                	mv	a5,a0
ffffffff8040c262:	2781                	sext.w	a5,a5
ffffffff8040c264:	85be                	mv	a1,a5
ffffffff8040c266:	fd043503          	ld	a0,-48(s0)
ffffffff8040c26a:	d9efe0ef          	jal	ra,ffffffff8040a808 <sd_write>
ffffffff8040c26e:	fdc42783          	lw	a5,-36(s0)
ffffffff8040c272:	853e                	mv	a0,a5
ffffffff8040c274:	ff3fd0ef          	jal	ra,ffffffff8040a266 <fat_sec_of_clus>
ffffffff8040c278:	87aa                	mv	a5,a0
ffffffff8040c27a:	0007871b          	sext.w	a4,a5
ffffffff8040c27e:	00017797          	auipc	a5,0x17
ffffffff8040c282:	46a78793          	addi	a5,a5,1130 # ffffffff804236e8 <fat>
ffffffff8040c286:	539c                	lw	a5,32(a5)
ffffffff8040c288:	40f707bb          	subw	a5,a4,a5
ffffffff8040c28c:	2781                	sext.w	a5,a5
ffffffff8040c28e:	85be                	mv	a1,a5
ffffffff8040c290:	fd043503          	ld	a0,-48(s0)
ffffffff8040c294:	d18fe0ef          	jal	ra,ffffffff8040a7ac <sd_read>
ffffffff8040c298:	fdc42783          	lw	a5,-36(s0)
ffffffff8040c29c:	853e                	mv	a0,a5
ffffffff8040c29e:	87afe0ef          	jal	ra,ffffffff8040a318 <fat_offset_of_clus>
ffffffff8040c2a2:	87aa                	mv	a5,a0
ffffffff8040c2a4:	2781                	sext.w	a5,a5
ffffffff8040c2a6:	1782                	slli	a5,a5,0x20
ffffffff8040c2a8:	9381                	srli	a5,a5,0x20
ffffffff8040c2aa:	fd043703          	ld	a4,-48(s0)
ffffffff8040c2ae:	97ba                	add	a5,a5,a4
ffffffff8040c2b0:	fef43423          	sd	a5,-24(s0)
ffffffff8040c2b4:	fe843783          	ld	a5,-24(s0)
ffffffff8040c2b8:	fd842703          	lw	a4,-40(s0)
ffffffff8040c2bc:	c398                	sw	a4,0(a5)
ffffffff8040c2be:	fdc42783          	lw	a5,-36(s0)
ffffffff8040c2c2:	853e                	mv	a0,a5
ffffffff8040c2c4:	fa3fd0ef          	jal	ra,ffffffff8040a266 <fat_sec_of_clus>
ffffffff8040c2c8:	87aa                	mv	a5,a0
ffffffff8040c2ca:	0007871b          	sext.w	a4,a5
ffffffff8040c2ce:	00017797          	auipc	a5,0x17
ffffffff8040c2d2:	41a78793          	addi	a5,a5,1050 # ffffffff804236e8 <fat>
ffffffff8040c2d6:	539c                	lw	a5,32(a5)
ffffffff8040c2d8:	40f707bb          	subw	a5,a4,a5
ffffffff8040c2dc:	2781                	sext.w	a5,a5
ffffffff8040c2de:	85be                	mv	a1,a5
ffffffff8040c2e0:	fd043503          	ld	a0,-48(s0)
ffffffff8040c2e4:	d24fe0ef          	jal	ra,ffffffff8040a808 <sd_write>
ffffffff8040c2e8:	fd842783          	lw	a5,-40(s0)
ffffffff8040c2ec:	853e                	mv	a0,a5
ffffffff8040c2ee:	f79fd0ef          	jal	ra,ffffffff8040a266 <fat_sec_of_clus>
ffffffff8040c2f2:	87aa                	mv	a5,a0
ffffffff8040c2f4:	2781                	sext.w	a5,a5
ffffffff8040c2f6:	85be                	mv	a1,a5
ffffffff8040c2f8:	fd043503          	ld	a0,-48(s0)
ffffffff8040c2fc:	cb0fe0ef          	jal	ra,ffffffff8040a7ac <sd_read>
ffffffff8040c300:	fd842783          	lw	a5,-40(s0)
ffffffff8040c304:	853e                	mv	a0,a5
ffffffff8040c306:	812fe0ef          	jal	ra,ffffffff8040a318 <fat_offset_of_clus>
ffffffff8040c30a:	87aa                	mv	a5,a0
ffffffff8040c30c:	2781                	sext.w	a5,a5
ffffffff8040c30e:	1782                	slli	a5,a5,0x20
ffffffff8040c310:	9381                	srli	a5,a5,0x20
ffffffff8040c312:	fd043703          	ld	a4,-48(s0)
ffffffff8040c316:	97ba                	add	a5,a5,a4
ffffffff8040c318:	fef43423          	sd	a5,-24(s0)
ffffffff8040c31c:	fe843783          	ld	a5,-24(s0)
ffffffff8040c320:	10000737          	lui	a4,0x10000
ffffffff8040c324:	177d                	addi	a4,a4,-1
ffffffff8040c326:	c398                	sw	a4,0(a5)
ffffffff8040c328:	fd842783          	lw	a5,-40(s0)
ffffffff8040c32c:	853e                	mv	a0,a5
ffffffff8040c32e:	f39fd0ef          	jal	ra,ffffffff8040a266 <fat_sec_of_clus>
ffffffff8040c332:	87aa                	mv	a5,a0
ffffffff8040c334:	2781                	sext.w	a5,a5
ffffffff8040c336:	85be                	mv	a1,a5
ffffffff8040c338:	fd043503          	ld	a0,-48(s0)
ffffffff8040c33c:	cccfe0ef          	jal	ra,ffffffff8040a808 <sd_write>
ffffffff8040c340:	fd842783          	lw	a5,-40(s0)
ffffffff8040c344:	853e                	mv	a0,a5
ffffffff8040c346:	f21fd0ef          	jal	ra,ffffffff8040a266 <fat_sec_of_clus>
ffffffff8040c34a:	87aa                	mv	a5,a0
ffffffff8040c34c:	0007871b          	sext.w	a4,a5
ffffffff8040c350:	00017797          	auipc	a5,0x17
ffffffff8040c354:	39878793          	addi	a5,a5,920 # ffffffff804236e8 <fat>
ffffffff8040c358:	539c                	lw	a5,32(a5)
ffffffff8040c35a:	40f707bb          	subw	a5,a4,a5
ffffffff8040c35e:	2781                	sext.w	a5,a5
ffffffff8040c360:	85be                	mv	a1,a5
ffffffff8040c362:	fd043503          	ld	a0,-48(s0)
ffffffff8040c366:	c46fe0ef          	jal	ra,ffffffff8040a7ac <sd_read>
ffffffff8040c36a:	fd842783          	lw	a5,-40(s0)
ffffffff8040c36e:	853e                	mv	a0,a5
ffffffff8040c370:	fa9fd0ef          	jal	ra,ffffffff8040a318 <fat_offset_of_clus>
ffffffff8040c374:	87aa                	mv	a5,a0
ffffffff8040c376:	2781                	sext.w	a5,a5
ffffffff8040c378:	1782                	slli	a5,a5,0x20
ffffffff8040c37a:	9381                	srli	a5,a5,0x20
ffffffff8040c37c:	fd043703          	ld	a4,-48(s0)
ffffffff8040c380:	97ba                	add	a5,a5,a4
ffffffff8040c382:	fef43423          	sd	a5,-24(s0)
ffffffff8040c386:	fe843783          	ld	a5,-24(s0)
ffffffff8040c38a:	10000737          	lui	a4,0x10000
ffffffff8040c38e:	177d                	addi	a4,a4,-1
ffffffff8040c390:	c398                	sw	a4,0(a5)
ffffffff8040c392:	fd842783          	lw	a5,-40(s0)
ffffffff8040c396:	853e                	mv	a0,a5
ffffffff8040c398:	ecffd0ef          	jal	ra,ffffffff8040a266 <fat_sec_of_clus>
ffffffff8040c39c:	87aa                	mv	a5,a0
ffffffff8040c39e:	0007871b          	sext.w	a4,a5
ffffffff8040c3a2:	00017797          	auipc	a5,0x17
ffffffff8040c3a6:	34678793          	addi	a5,a5,838 # ffffffff804236e8 <fat>
ffffffff8040c3aa:	539c                	lw	a5,32(a5)
ffffffff8040c3ac:	40f707bb          	subw	a5,a4,a5
ffffffff8040c3b0:	2781                	sext.w	a5,a5
ffffffff8040c3b2:	85be                	mv	a1,a5
ffffffff8040c3b4:	fd043503          	ld	a0,-48(s0)
ffffffff8040c3b8:	c50fe0ef          	jal	ra,ffffffff8040a808 <sd_write>
ffffffff8040c3bc:	0001                	nop
ffffffff8040c3be:	70a2                	ld	ra,40(sp)
ffffffff8040c3c0:	7402                	ld	s0,32(sp)
ffffffff8040c3c2:	6145                	addi	sp,sp,48
ffffffff8040c3c4:	8082                	ret

ffffffff8040c3c6 <search_empty_fat>:
ffffffff8040c3c6:	7139                	addi	sp,sp,-64
ffffffff8040c3c8:	fc06                	sd	ra,56(sp)
ffffffff8040c3ca:	f822                	sd	s0,48(sp)
ffffffff8040c3cc:	0080                	addi	s0,sp,64
ffffffff8040c3ce:	fca43423          	sd	a0,-56(s0)
ffffffff8040c3d2:	00017797          	auipc	a5,0x17
ffffffff8040c3d6:	31678793          	addi	a5,a5,790 # ffffffff804236e8 <fat>
ffffffff8040c3da:	4398                	lw	a4,0(a5)
ffffffff8040c3dc:	00017797          	auipc	a5,0x17
ffffffff8040c3e0:	30c78793          	addi	a5,a5,780 # ffffffff804236e8 <fat>
ffffffff8040c3e4:	539c                	lw	a5,32(a5)
ffffffff8040c3e6:	40f707bb          	subw	a5,a4,a5
ffffffff8040c3ea:	fef42223          	sw	a5,-28(s0)
ffffffff8040c3ee:	fe442783          	lw	a5,-28(s0)
ffffffff8040c3f2:	853e                	mv	a0,a5
ffffffff8040c3f4:	810fe0ef          	jal	ra,ffffffff8040a404 <clus_of_sec>
ffffffff8040c3f8:	87aa                	mv	a5,a0
ffffffff8040c3fa:	fef42023          	sw	a5,-32(s0)
ffffffff8040c3fe:	fe442783          	lw	a5,-28(s0)
ffffffff8040c402:	85be                	mv	a1,a5
ffffffff8040c404:	fc843503          	ld	a0,-56(s0)
ffffffff8040c408:	ba4fe0ef          	jal	ra,ffffffff8040a7ac <sd_read>
ffffffff8040c40c:	fc843783          	ld	a5,-56(s0)
ffffffff8040c410:	fcf43c23          	sd	a5,-40(s0)
ffffffff8040c414:	fe042623          	sw	zero,-20(s0)
ffffffff8040c418:	fe042423          	sw	zero,-24(s0)
ffffffff8040c41c:	a00d                	j	ffffffff8040c43e <search_empty_fat+0x78>
ffffffff8040c41e:	fe846703          	lwu	a4,-24(s0)
ffffffff8040c422:	fec46783          	lwu	a5,-20(s0)
ffffffff8040c426:	97ba                	add	a5,a5,a4
ffffffff8040c428:	fd843703          	ld	a4,-40(s0)
ffffffff8040c42c:	97ba                	add	a5,a5,a4
ffffffff8040c42e:	0007c783          	lbu	a5,0(a5)
ffffffff8040c432:	ef91                	bnez	a5,ffffffff8040c44e <search_empty_fat+0x88>
ffffffff8040c434:	fe842783          	lw	a5,-24(s0)
ffffffff8040c438:	2785                	addiw	a5,a5,1
ffffffff8040c43a:	fef42423          	sw	a5,-24(s0)
ffffffff8040c43e:	fe842783          	lw	a5,-24(s0)
ffffffff8040c442:	0007871b          	sext.w	a4,a5
ffffffff8040c446:	478d                	li	a5,3
ffffffff8040c448:	fce7fbe3          	bgeu	a5,a4,ffffffff8040c41e <search_empty_fat+0x58>
ffffffff8040c44c:	a011                	j	ffffffff8040c450 <search_empty_fat+0x8a>
ffffffff8040c44e:	0001                	nop
ffffffff8040c450:	fe842783          	lw	a5,-24(s0)
ffffffff8040c454:	0007871b          	sext.w	a4,a5
ffffffff8040c458:	4791                	li	a5,4
ffffffff8040c45a:	00f70863          	beq	a4,a5,ffffffff8040c46a <search_empty_fat+0xa4>
ffffffff8040c45e:	fec42783          	lw	a5,-20(s0)
ffffffff8040c462:	2791                	addiw	a5,a5,4
ffffffff8040c464:	fef42623          	sw	a5,-20(s0)
ffffffff8040c468:	bf45                	j	ffffffff8040c418 <search_empty_fat+0x52>
ffffffff8040c46a:	0001                	nop
ffffffff8040c46c:	fec42783          	lw	a5,-20(s0)
ffffffff8040c470:	0027d79b          	srliw	a5,a5,0x2
ffffffff8040c474:	2781                	sext.w	a5,a5
ffffffff8040c476:	fc843603          	ld	a2,-56(s0)
ffffffff8040c47a:	85be                	mv	a1,a5
ffffffff8040c47c:	4501                	li	a0,0
ffffffff8040c47e:	d79ff0ef          	jal	ra,ffffffff8040c1f6 <write_fat_table>
ffffffff8040c482:	fec42783          	lw	a5,-20(s0)
ffffffff8040c486:	0027d79b          	srliw	a5,a5,0x2
ffffffff8040c48a:	2781                	sext.w	a5,a5
ffffffff8040c48c:	853e                	mv	a0,a5
ffffffff8040c48e:	70e2                	ld	ra,56(sp)
ffffffff8040c490:	7442                	ld	s0,48(sp)
ffffffff8040c492:	6121                	addi	sp,sp,64
ffffffff8040c494:	8082                	ret

ffffffff8040c496 <search_empty_entry>:
ffffffff8040c496:	711d                	addi	sp,sp,-96
ffffffff8040c498:	ec86                	sd	ra,88(sp)
ffffffff8040c49a:	e8a2                	sd	s0,80(sp)
ffffffff8040c49c:	1080                	addi	s0,sp,96
ffffffff8040c49e:	87aa                	mv	a5,a0
ffffffff8040c4a0:	fab43823          	sd	a1,-80(s0)
ffffffff8040c4a4:	8732                	mv	a4,a2
ffffffff8040c4a6:	fad43423          	sd	a3,-88(s0)
ffffffff8040c4aa:	faf42e23          	sw	a5,-68(s0)
ffffffff8040c4ae:	87ba                	mv	a5,a4
ffffffff8040c4b0:	faf42c23          	sw	a5,-72(s0)
ffffffff8040c4b4:	fbc42783          	lw	a5,-68(s0)
ffffffff8040c4b8:	fcf42623          	sw	a5,-52(s0)
ffffffff8040c4bc:	fbc42783          	lw	a5,-68(s0)
ffffffff8040c4c0:	853e                	mv	a0,a5
ffffffff8040c4c2:	d63fd0ef          	jal	ra,ffffffff8040a224 <first_sec_of_clus>
ffffffff8040c4c6:	87aa                	mv	a5,a0
ffffffff8040c4c8:	0007871b          	sext.w	a4,a5
ffffffff8040c4cc:	fa843783          	ld	a5,-88(s0)
ffffffff8040c4d0:	c398                	sw	a4,0(a5)
ffffffff8040c4d2:	fa843783          	ld	a5,-88(s0)
ffffffff8040c4d6:	439c                	lw	a5,0(a5)
ffffffff8040c4d8:	85be                	mv	a1,a5
ffffffff8040c4da:	fb043503          	ld	a0,-80(s0)
ffffffff8040c4de:	acefe0ef          	jal	ra,ffffffff8040a7ac <sd_read>
ffffffff8040c4e2:	fb043783          	ld	a5,-80(s0)
ffffffff8040c4e6:	fef43423          	sd	a5,-24(s0)
ffffffff8040c4ea:	fe042223          	sw	zero,-28(s0)
ffffffff8040c4ee:	fe843783          	ld	a5,-24(s0)
ffffffff8040c4f2:	fcf43c23          	sd	a5,-40(s0)
ffffffff8040c4f6:	fa843783          	ld	a5,-88(s0)
ffffffff8040c4fa:	439c                	lw	a5,0(a5)
ffffffff8040c4fc:	fcf42a23          	sw	a5,-44(s0)
ffffffff8040c500:	fc042823          	sw	zero,-48(s0)
ffffffff8040c504:	a855                	j	ffffffff8040c5b8 <search_empty_entry+0x122>
ffffffff8040c506:	fe843503          	ld	a0,-24(s0)
ffffffff8040c50a:	2bd000ef          	jal	ra,ffffffff8040cfc6 <is_zero_dentry>
ffffffff8040c50e:	87aa                	mv	a5,a0
ffffffff8040c510:	eba1                	bnez	a5,ffffffff8040c560 <search_empty_entry+0xca>
ffffffff8040c512:	fe843783          	ld	a5,-24(s0)
ffffffff8040c516:	0007c783          	lbu	a5,0(a5)
ffffffff8040c51a:	873e                	mv	a4,a5
ffffffff8040c51c:	0e500793          	li	a5,229
ffffffff8040c520:	04f70063          	beq	a4,a5,ffffffff8040c560 <search_empty_entry+0xca>
ffffffff8040c524:	fe042223          	sw	zero,-28(s0)
ffffffff8040c528:	fa843783          	ld	a5,-88(s0)
ffffffff8040c52c:	439c                	lw	a5,0(a5)
ffffffff8040c52e:	1782                	slli	a5,a5,0x20
ffffffff8040c530:	9381                	srli	a5,a5,0x20
ffffffff8040c532:	873e                	mv	a4,a5
ffffffff8040c534:	fcc40793          	addi	a5,s0,-52
ffffffff8040c538:	86ba                	mv	a3,a4
ffffffff8040c53a:	863e                	mv	a2,a5
ffffffff8040c53c:	fb043583          	ld	a1,-80(s0)
ffffffff8040c540:	fe843503          	ld	a0,-24(s0)
ffffffff8040c544:	b56fe0ef          	jal	ra,ffffffff8040a89a <get_next_dentry>
ffffffff8040c548:	fea43423          	sd	a0,-24(s0)
ffffffff8040c54c:	fe843783          	ld	a5,-24(s0)
ffffffff8040c550:	fcf43c23          	sd	a5,-40(s0)
ffffffff8040c554:	fa843783          	ld	a5,-88(s0)
ffffffff8040c558:	439c                	lw	a5,0(a5)
ffffffff8040c55a:	fcf42a23          	sw	a5,-44(s0)
ffffffff8040c55e:	a881                	j	ffffffff8040c5ae <search_empty_entry+0x118>
ffffffff8040c560:	fe442783          	lw	a5,-28(s0)
ffffffff8040c564:	2785                	addiw	a5,a5,1
ffffffff8040c566:	fef42223          	sw	a5,-28(s0)
ffffffff8040c56a:	fe442703          	lw	a4,-28(s0)
ffffffff8040c56e:	fb842783          	lw	a5,-72(s0)
ffffffff8040c572:	2701                	sext.w	a4,a4
ffffffff8040c574:	2781                	sext.w	a5,a5
ffffffff8040c576:	00f71a63          	bne	a4,a5,ffffffff8040c58a <search_empty_entry+0xf4>
ffffffff8040c57a:	fa843783          	ld	a5,-88(s0)
ffffffff8040c57e:	fd442703          	lw	a4,-44(s0)
ffffffff8040c582:	c398                	sw	a4,0(a5)
ffffffff8040c584:	fd843783          	ld	a5,-40(s0)
ffffffff8040c588:	a089                	j	ffffffff8040c5ca <search_empty_entry+0x134>
ffffffff8040c58a:	fa843783          	ld	a5,-88(s0)
ffffffff8040c58e:	439c                	lw	a5,0(a5)
ffffffff8040c590:	1782                	slli	a5,a5,0x20
ffffffff8040c592:	9381                	srli	a5,a5,0x20
ffffffff8040c594:	873e                	mv	a4,a5
ffffffff8040c596:	fcc40793          	addi	a5,s0,-52
ffffffff8040c59a:	86ba                	mv	a3,a4
ffffffff8040c59c:	863e                	mv	a2,a5
ffffffff8040c59e:	fb043583          	ld	a1,-80(s0)
ffffffff8040c5a2:	fe843503          	ld	a0,-24(s0)
ffffffff8040c5a6:	af4fe0ef          	jal	ra,ffffffff8040a89a <get_next_dentry>
ffffffff8040c5aa:	fea43423          	sd	a0,-24(s0)
ffffffff8040c5ae:	fd042783          	lw	a5,-48(s0)
ffffffff8040c5b2:	2785                	addiw	a5,a5,1
ffffffff8040c5b4:	fcf42823          	sw	a5,-48(s0)
ffffffff8040c5b8:	fd042783          	lw	a5,-48(s0)
ffffffff8040c5bc:	0007871b          	sext.w	a4,a5
ffffffff8040c5c0:	0fe00793          	li	a5,254
ffffffff8040c5c4:	f4e7f1e3          	bgeu	a5,a4,ffffffff8040c506 <search_empty_entry+0x70>
ffffffff8040c5c8:	4781                	li	a5,0
ffffffff8040c5ca:	853e                	mv	a0,a5
ffffffff8040c5cc:	60e6                	ld	ra,88(sp)
ffffffff8040c5ce:	6446                	ld	s0,80(sp)
ffffffff8040c5d0:	6125                	addi	sp,sp,96
ffffffff8040c5d2:	8082                	ret

ffffffff8040c5d4 <search>:
ffffffff8040c5d4:	7159                	addi	sp,sp,-112
ffffffff8040c5d6:	f486                	sd	ra,104(sp)
ffffffff8040c5d8:	f0a2                	sd	s0,96(sp)
ffffffff8040c5da:	eca6                	sd	s1,88(sp)
ffffffff8040c5dc:	1880                	addi	s0,sp,112
ffffffff8040c5de:	faa43423          	sd	a0,-88(s0)
ffffffff8040c5e2:	87ae                	mv	a5,a1
ffffffff8040c5e4:	f8c43c23          	sd	a2,-104(s0)
ffffffff8040c5e8:	8736                	mv	a4,a3
ffffffff8040c5ea:	faf42223          	sw	a5,-92(s0)
ffffffff8040c5ee:	87ba                	mv	a5,a4
ffffffff8040c5f0:	faf42023          	sw	a5,-96(s0)
ffffffff8040c5f4:	fa442783          	lw	a5,-92(s0)
ffffffff8040c5f8:	faf42c23          	sw	a5,-72(s0)
ffffffff8040c5fc:	fa442783          	lw	a5,-92(s0)
ffffffff8040c600:	853e                	mv	a0,a5
ffffffff8040c602:	c23fd0ef          	jal	ra,ffffffff8040a224 <first_sec_of_clus>
ffffffff8040c606:	87aa                	mv	a5,a0
ffffffff8040c608:	2781                	sext.w	a5,a5
ffffffff8040c60a:	faf42a23          	sw	a5,-76(s0)
ffffffff8040c60e:	fb442783          	lw	a5,-76(s0)
ffffffff8040c612:	85be                	mv	a1,a5
ffffffff8040c614:	f9843503          	ld	a0,-104(s0)
ffffffff8040c618:	994fe0ef          	jal	ra,ffffffff8040a7ac <sd_read>
ffffffff8040c61c:	f9843783          	ld	a5,-104(s0)
ffffffff8040c620:	fcf43c23          	sd	a5,-40(s0)
ffffffff8040c624:	a9d9                	j	ffffffff8040cafa <search+0x526>
ffffffff8040c626:	fb440713          	addi	a4,s0,-76
ffffffff8040c62a:	fb840793          	addi	a5,s0,-72
ffffffff8040c62e:	86ba                	mv	a3,a4
ffffffff8040c630:	863e                	mv	a2,a5
ffffffff8040c632:	f9843583          	ld	a1,-104(s0)
ffffffff8040c636:	fd843503          	ld	a0,-40(s0)
ffffffff8040c63a:	a60fe0ef          	jal	ra,ffffffff8040a89a <get_next_dentry>
ffffffff8040c63e:	fca43c23          	sd	a0,-40(s0)
ffffffff8040c642:	fd843783          	ld	a5,-40(s0)
ffffffff8040c646:	0007c783          	lbu	a5,0(a5)
ffffffff8040c64a:	873e                	mv	a4,a5
ffffffff8040c64c:	0e500793          	li	a5,229
ffffffff8040c650:	fcf70be3          	beq	a4,a5,ffffffff8040c626 <search+0x52>
ffffffff8040c654:	fd843783          	ld	a5,-40(s0)
ffffffff8040c658:	fcf43423          	sd	a5,-56(s0)
ffffffff8040c65c:	fc843783          	ld	a5,-56(s0)
ffffffff8040c660:	00b7c783          	lbu	a5,11(a5)
ffffffff8040c664:	873e                	mv	a4,a5
ffffffff8040c666:	47bd                	li	a5,15
ffffffff8040c668:	2ef71a63          	bne	a4,a5,ffffffff8040c95c <search+0x388>
ffffffff8040c66c:	fc843783          	ld	a5,-56(s0)
ffffffff8040c670:	0007c783          	lbu	a5,0(a5)
ffffffff8040c674:	2781                	sext.w	a5,a5
ffffffff8040c676:	0407f793          	andi	a5,a5,64
ffffffff8040c67a:	2781                	sext.w	a5,a5
ffffffff8040c67c:	2e078063          	beqz	a5,ffffffff8040c95c <search+0x388>
ffffffff8040c680:	fc843783          	ld	a5,-56(s0)
ffffffff8040c684:	0007c783          	lbu	a5,0(a5)
ffffffff8040c688:	8bbd                	andi	a5,a5,15
ffffffff8040c68a:	fcf403a3          	sb	a5,-57(s0)
ffffffff8040c68e:	fc744783          	lbu	a5,-57(s0)
ffffffff8040c692:	2781                	sext.w	a5,a5
ffffffff8040c694:	873e                	mv	a4,a5
ffffffff8040c696:	87ba                	mv	a5,a4
ffffffff8040c698:	0017979b          	slliw	a5,a5,0x1
ffffffff8040c69c:	9fb9                	addw	a5,a5,a4
ffffffff8040c69e:	0027979b          	slliw	a5,a5,0x2
ffffffff8040c6a2:	9fb9                	addw	a5,a5,a4
ffffffff8040c6a4:	2781                	sext.w	a5,a5
ffffffff8040c6a6:	853e                	mv	a0,a5
ffffffff8040c6a8:	d8cf80ef          	jal	ra,ffffffff80404c34 <kmalloc>
ffffffff8040c6ac:	fca43823          	sd	a0,-48(s0)
ffffffff8040c6b0:	fa040fa3          	sb	zero,-65(s0)
ffffffff8040c6b4:	ac59                	j	ffffffff8040c94a <search+0x376>
ffffffff8040c6b6:	fc040323          	sb	zero,-58(s0)
ffffffff8040c6ba:	fc0402a3          	sb	zero,-59(s0)
ffffffff8040c6be:	a875                	j	ffffffff8040c77a <search+0x1a6>
ffffffff8040c6c0:	fc544783          	lbu	a5,-59(s0)
ffffffff8040c6c4:	2781                	sext.w	a5,a5
ffffffff8040c6c6:	fc843703          	ld	a4,-56(s0)
ffffffff8040c6ca:	0786                	slli	a5,a5,0x1
ffffffff8040c6cc:	97ba                	add	a5,a5,a4
ffffffff8040c6ce:	0017c703          	lbu	a4,1(a5)
ffffffff8040c6d2:	0027c783          	lbu	a5,2(a5)
ffffffff8040c6d6:	07a2                	slli	a5,a5,0x8
ffffffff8040c6d8:	8fd9                	or	a5,a5,a4
ffffffff8040c6da:	faf41e23          	sh	a5,-68(s0)
ffffffff8040c6de:	fbc45783          	lhu	a5,-68(s0)
ffffffff8040c6e2:	2781                	sext.w	a5,a5
ffffffff8040c6e4:	cb89                	beqz	a5,ffffffff8040c6f6 <search+0x122>
ffffffff8040c6e6:	fbc45783          	lhu	a5,-68(s0)
ffffffff8040c6ea:	0007871b          	sext.w	a4,a5
ffffffff8040c6ee:	67c1                	lui	a5,0x10
ffffffff8040c6f0:	17fd                	addi	a5,a5,-1
ffffffff8040c6f2:	02f71b63          	bne	a4,a5,ffffffff8040c728 <search+0x154>
ffffffff8040c6f6:	fc744783          	lbu	a5,-57(s0)
ffffffff8040c6fa:	2781                	sext.w	a5,a5
ffffffff8040c6fc:	873e                	mv	a4,a5
ffffffff8040c6fe:	87ba                	mv	a5,a4
ffffffff8040c700:	0017979b          	slliw	a5,a5,0x1
ffffffff8040c704:	9fb9                	addw	a5,a5,a4
ffffffff8040c706:	0027979b          	slliw	a5,a5,0x2
ffffffff8040c70a:	9fb9                	addw	a5,a5,a4
ffffffff8040c70c:	0007871b          	sext.w	a4,a5
ffffffff8040c710:	fc644783          	lbu	a5,-58(s0)
ffffffff8040c714:	2781                	sext.w	a5,a5
ffffffff8040c716:	9fb9                	addw	a5,a5,a4
ffffffff8040c718:	2781                	sext.w	a5,a5
ffffffff8040c71a:	873e                	mv	a4,a5
ffffffff8040c71c:	fd043783          	ld	a5,-48(s0)
ffffffff8040c720:	97ba                	add	a5,a5,a4
ffffffff8040c722:	00078023          	sb	zero,0(a5) # 10000 <_start-0xffffffff803f0000>
ffffffff8040c726:	a08d                	j	ffffffff8040c788 <search+0x1b4>
ffffffff8040c728:	fc744783          	lbu	a5,-57(s0)
ffffffff8040c72c:	2781                	sext.w	a5,a5
ffffffff8040c72e:	873e                	mv	a4,a5
ffffffff8040c730:	87ba                	mv	a5,a4
ffffffff8040c732:	0017979b          	slliw	a5,a5,0x1
ffffffff8040c736:	9fb9                	addw	a5,a5,a4
ffffffff8040c738:	0027979b          	slliw	a5,a5,0x2
ffffffff8040c73c:	9fb9                	addw	a5,a5,a4
ffffffff8040c73e:	0007871b          	sext.w	a4,a5
ffffffff8040c742:	fc644783          	lbu	a5,-58(s0)
ffffffff8040c746:	2781                	sext.w	a5,a5
ffffffff8040c748:	9fb9                	addw	a5,a5,a4
ffffffff8040c74a:	2781                	sext.w	a5,a5
ffffffff8040c74c:	873e                	mv	a4,a5
ffffffff8040c74e:	fd043783          	ld	a5,-48(s0)
ffffffff8040c752:	00e784b3          	add	s1,a5,a4
ffffffff8040c756:	fbc45783          	lhu	a5,-68(s0)
ffffffff8040c75a:	853e                	mv	a0,a5
ffffffff8040c75c:	b73fe0ef          	jal	ra,ffffffff8040b2ce <unicode2char>
ffffffff8040c760:	87aa                	mv	a5,a0
ffffffff8040c762:	00f48023          	sb	a5,0(s1)
ffffffff8040c766:	fc644783          	lbu	a5,-58(s0)
ffffffff8040c76a:	2785                	addiw	a5,a5,1
ffffffff8040c76c:	fcf40323          	sb	a5,-58(s0)
ffffffff8040c770:	fc544783          	lbu	a5,-59(s0)
ffffffff8040c774:	2785                	addiw	a5,a5,1
ffffffff8040c776:	fcf402a3          	sb	a5,-59(s0)
ffffffff8040c77a:	fc544783          	lbu	a5,-59(s0)
ffffffff8040c77e:	0ff7f713          	andi	a4,a5,255
ffffffff8040c782:	4791                	li	a5,4
ffffffff8040c784:	f2e7fee3          	bgeu	a5,a4,ffffffff8040c6c0 <search+0xec>
ffffffff8040c788:	fc040223          	sb	zero,-60(s0)
ffffffff8040c78c:	a875                	j	ffffffff8040c848 <search+0x274>
ffffffff8040c78e:	fc444783          	lbu	a5,-60(s0)
ffffffff8040c792:	2781                	sext.w	a5,a5
ffffffff8040c794:	fc843703          	ld	a4,-56(s0)
ffffffff8040c798:	0786                	slli	a5,a5,0x1
ffffffff8040c79a:	97ba                	add	a5,a5,a4
ffffffff8040c79c:	00e7c703          	lbu	a4,14(a5)
ffffffff8040c7a0:	00f7c783          	lbu	a5,15(a5)
ffffffff8040c7a4:	07a2                	slli	a5,a5,0x8
ffffffff8040c7a6:	8fd9                	or	a5,a5,a4
ffffffff8040c7a8:	faf41e23          	sh	a5,-68(s0)
ffffffff8040c7ac:	fbc45783          	lhu	a5,-68(s0)
ffffffff8040c7b0:	2781                	sext.w	a5,a5
ffffffff8040c7b2:	cb89                	beqz	a5,ffffffff8040c7c4 <search+0x1f0>
ffffffff8040c7b4:	fbc45783          	lhu	a5,-68(s0)
ffffffff8040c7b8:	0007871b          	sext.w	a4,a5
ffffffff8040c7bc:	67c1                	lui	a5,0x10
ffffffff8040c7be:	17fd                	addi	a5,a5,-1
ffffffff8040c7c0:	02f71b63          	bne	a4,a5,ffffffff8040c7f6 <search+0x222>
ffffffff8040c7c4:	fc744783          	lbu	a5,-57(s0)
ffffffff8040c7c8:	2781                	sext.w	a5,a5
ffffffff8040c7ca:	873e                	mv	a4,a5
ffffffff8040c7cc:	87ba                	mv	a5,a4
ffffffff8040c7ce:	0017979b          	slliw	a5,a5,0x1
ffffffff8040c7d2:	9fb9                	addw	a5,a5,a4
ffffffff8040c7d4:	0027979b          	slliw	a5,a5,0x2
ffffffff8040c7d8:	9fb9                	addw	a5,a5,a4
ffffffff8040c7da:	0007871b          	sext.w	a4,a5
ffffffff8040c7de:	fc644783          	lbu	a5,-58(s0)
ffffffff8040c7e2:	2781                	sext.w	a5,a5
ffffffff8040c7e4:	9fb9                	addw	a5,a5,a4
ffffffff8040c7e6:	2781                	sext.w	a5,a5
ffffffff8040c7e8:	873e                	mv	a4,a5
ffffffff8040c7ea:	fd043783          	ld	a5,-48(s0)
ffffffff8040c7ee:	97ba                	add	a5,a5,a4
ffffffff8040c7f0:	00078023          	sb	zero,0(a5) # 10000 <_start-0xffffffff803f0000>
ffffffff8040c7f4:	a08d                	j	ffffffff8040c856 <search+0x282>
ffffffff8040c7f6:	fc744783          	lbu	a5,-57(s0)
ffffffff8040c7fa:	2781                	sext.w	a5,a5
ffffffff8040c7fc:	873e                	mv	a4,a5
ffffffff8040c7fe:	87ba                	mv	a5,a4
ffffffff8040c800:	0017979b          	slliw	a5,a5,0x1
ffffffff8040c804:	9fb9                	addw	a5,a5,a4
ffffffff8040c806:	0027979b          	slliw	a5,a5,0x2
ffffffff8040c80a:	9fb9                	addw	a5,a5,a4
ffffffff8040c80c:	0007871b          	sext.w	a4,a5
ffffffff8040c810:	fc644783          	lbu	a5,-58(s0)
ffffffff8040c814:	2781                	sext.w	a5,a5
ffffffff8040c816:	9fb9                	addw	a5,a5,a4
ffffffff8040c818:	2781                	sext.w	a5,a5
ffffffff8040c81a:	873e                	mv	a4,a5
ffffffff8040c81c:	fd043783          	ld	a5,-48(s0)
ffffffff8040c820:	00e784b3          	add	s1,a5,a4
ffffffff8040c824:	fbc45783          	lhu	a5,-68(s0)
ffffffff8040c828:	853e                	mv	a0,a5
ffffffff8040c82a:	aa5fe0ef          	jal	ra,ffffffff8040b2ce <unicode2char>
ffffffff8040c82e:	87aa                	mv	a5,a0
ffffffff8040c830:	00f48023          	sb	a5,0(s1)
ffffffff8040c834:	fc644783          	lbu	a5,-58(s0)
ffffffff8040c838:	2785                	addiw	a5,a5,1
ffffffff8040c83a:	fcf40323          	sb	a5,-58(s0)
ffffffff8040c83e:	fc444783          	lbu	a5,-60(s0)
ffffffff8040c842:	2785                	addiw	a5,a5,1
ffffffff8040c844:	fcf40223          	sb	a5,-60(s0)
ffffffff8040c848:	fc444783          	lbu	a5,-60(s0)
ffffffff8040c84c:	0ff7f713          	andi	a4,a5,255
ffffffff8040c850:	4795                	li	a5,5
ffffffff8040c852:	f2e7fee3          	bgeu	a5,a4,ffffffff8040c78e <search+0x1ba>
ffffffff8040c856:	fc0401a3          	sb	zero,-61(s0)
ffffffff8040c85a:	a87d                	j	ffffffff8040c918 <search+0x344>
ffffffff8040c85c:	fc344783          	lbu	a5,-61(s0)
ffffffff8040c860:	2781                	sext.w	a5,a5
ffffffff8040c862:	fc843703          	ld	a4,-56(s0)
ffffffff8040c866:	07a1                	addi	a5,a5,8
ffffffff8040c868:	0786                	slli	a5,a5,0x1
ffffffff8040c86a:	97ba                	add	a5,a5,a4
ffffffff8040c86c:	00c7c703          	lbu	a4,12(a5)
ffffffff8040c870:	00d7c783          	lbu	a5,13(a5)
ffffffff8040c874:	07a2                	slli	a5,a5,0x8
ffffffff8040c876:	8fd9                	or	a5,a5,a4
ffffffff8040c878:	faf41e23          	sh	a5,-68(s0)
ffffffff8040c87c:	fbc45783          	lhu	a5,-68(s0)
ffffffff8040c880:	2781                	sext.w	a5,a5
ffffffff8040c882:	cb89                	beqz	a5,ffffffff8040c894 <search+0x2c0>
ffffffff8040c884:	fbc45783          	lhu	a5,-68(s0)
ffffffff8040c888:	0007871b          	sext.w	a4,a5
ffffffff8040c88c:	67c1                	lui	a5,0x10
ffffffff8040c88e:	17fd                	addi	a5,a5,-1
ffffffff8040c890:	02f71b63          	bne	a4,a5,ffffffff8040c8c6 <search+0x2f2>
ffffffff8040c894:	fc744783          	lbu	a5,-57(s0)
ffffffff8040c898:	2781                	sext.w	a5,a5
ffffffff8040c89a:	873e                	mv	a4,a5
ffffffff8040c89c:	87ba                	mv	a5,a4
ffffffff8040c89e:	0017979b          	slliw	a5,a5,0x1
ffffffff8040c8a2:	9fb9                	addw	a5,a5,a4
ffffffff8040c8a4:	0027979b          	slliw	a5,a5,0x2
ffffffff8040c8a8:	9fb9                	addw	a5,a5,a4
ffffffff8040c8aa:	0007871b          	sext.w	a4,a5
ffffffff8040c8ae:	fc644783          	lbu	a5,-58(s0)
ffffffff8040c8b2:	2781                	sext.w	a5,a5
ffffffff8040c8b4:	9fb9                	addw	a5,a5,a4
ffffffff8040c8b6:	2781                	sext.w	a5,a5
ffffffff8040c8b8:	873e                	mv	a4,a5
ffffffff8040c8ba:	fd043783          	ld	a5,-48(s0)
ffffffff8040c8be:	97ba                	add	a5,a5,a4
ffffffff8040c8c0:	00078023          	sb	zero,0(a5) # 10000 <_start-0xffffffff803f0000>
ffffffff8040c8c4:	a08d                	j	ffffffff8040c926 <search+0x352>
ffffffff8040c8c6:	fc744783          	lbu	a5,-57(s0)
ffffffff8040c8ca:	2781                	sext.w	a5,a5
ffffffff8040c8cc:	873e                	mv	a4,a5
ffffffff8040c8ce:	87ba                	mv	a5,a4
ffffffff8040c8d0:	0017979b          	slliw	a5,a5,0x1
ffffffff8040c8d4:	9fb9                	addw	a5,a5,a4
ffffffff8040c8d6:	0027979b          	slliw	a5,a5,0x2
ffffffff8040c8da:	9fb9                	addw	a5,a5,a4
ffffffff8040c8dc:	0007871b          	sext.w	a4,a5
ffffffff8040c8e0:	fc644783          	lbu	a5,-58(s0)
ffffffff8040c8e4:	2781                	sext.w	a5,a5
ffffffff8040c8e6:	9fb9                	addw	a5,a5,a4
ffffffff8040c8e8:	2781                	sext.w	a5,a5
ffffffff8040c8ea:	873e                	mv	a4,a5
ffffffff8040c8ec:	fd043783          	ld	a5,-48(s0)
ffffffff8040c8f0:	00e784b3          	add	s1,a5,a4
ffffffff8040c8f4:	fbc45783          	lhu	a5,-68(s0)
ffffffff8040c8f8:	853e                	mv	a0,a5
ffffffff8040c8fa:	9d5fe0ef          	jal	ra,ffffffff8040b2ce <unicode2char>
ffffffff8040c8fe:	87aa                	mv	a5,a0
ffffffff8040c900:	00f48023          	sb	a5,0(s1)
ffffffff8040c904:	fc644783          	lbu	a5,-58(s0)
ffffffff8040c908:	2785                	addiw	a5,a5,1
ffffffff8040c90a:	fcf40323          	sb	a5,-58(s0)
ffffffff8040c90e:	fc344783          	lbu	a5,-61(s0)
ffffffff8040c912:	2785                	addiw	a5,a5,1
ffffffff8040c914:	fcf401a3          	sb	a5,-61(s0)
ffffffff8040c918:	fc344783          	lbu	a5,-61(s0)
ffffffff8040c91c:	0ff7f713          	andi	a4,a5,255
ffffffff8040c920:	4785                	li	a5,1
ffffffff8040c922:	f2e7fde3          	bgeu	a5,a4,ffffffff8040c85c <search+0x288>
ffffffff8040c926:	fb440713          	addi	a4,s0,-76
ffffffff8040c92a:	fb840793          	addi	a5,s0,-72
ffffffff8040c92e:	86ba                	mv	a3,a4
ffffffff8040c930:	863e                	mv	a2,a5
ffffffff8040c932:	f9843583          	ld	a1,-104(s0)
ffffffff8040c936:	fd843503          	ld	a0,-40(s0)
ffffffff8040c93a:	f61fd0ef          	jal	ra,ffffffff8040a89a <get_next_dentry>
ffffffff8040c93e:	fca43c23          	sd	a0,-40(s0)
ffffffff8040c942:	fd843783          	ld	a5,-40(s0)
ffffffff8040c946:	fcf43423          	sd	a5,-56(s0)
ffffffff8040c94a:	fc744783          	lbu	a5,-57(s0)
ffffffff8040c94e:	fff7871b          	addiw	a4,a5,-1
ffffffff8040c952:	fce403a3          	sb	a4,-57(s0)
ffffffff8040c956:	d60790e3          	bnez	a5,ffffffff8040c6b6 <search+0xe2>
ffffffff8040c95a:	a20d                	j	ffffffff8040ca7c <search+0x4a8>
ffffffff8040c95c:	fc040123          	sb	zero,-62(s0)
ffffffff8040c960:	4535                	li	a0,13
ffffffff8040c962:	ad2f80ef          	jal	ra,ffffffff80404c34 <kmalloc>
ffffffff8040c966:	fca43823          	sd	a0,-48(s0)
ffffffff8040c96a:	fc0400a3          	sb	zero,-63(s0)
ffffffff8040c96e:	a881                	j	ffffffff8040c9be <search+0x3ea>
ffffffff8040c970:	fc144783          	lbu	a5,-63(s0)
ffffffff8040c974:	2781                	sext.w	a5,a5
ffffffff8040c976:	fd843703          	ld	a4,-40(s0)
ffffffff8040c97a:	97ba                	add	a5,a5,a4
ffffffff8040c97c:	0007c783          	lbu	a5,0(a5)
ffffffff8040c980:	873e                	mv	a4,a5
ffffffff8040c982:	02000793          	li	a5,32
ffffffff8040c986:	04f70463          	beq	a4,a5,ffffffff8040c9ce <search+0x3fa>
ffffffff8040c98a:	fc144783          	lbu	a5,-63(s0)
ffffffff8040c98e:	0007871b          	sext.w	a4,a5
ffffffff8040c992:	fc244783          	lbu	a5,-62(s0)
ffffffff8040c996:	0017869b          	addiw	a3,a5,1
ffffffff8040c99a:	fcd40123          	sb	a3,-62(s0)
ffffffff8040c99e:	86be                	mv	a3,a5
ffffffff8040c9a0:	fd043783          	ld	a5,-48(s0)
ffffffff8040c9a4:	97b6                	add	a5,a5,a3
ffffffff8040c9a6:	fd843683          	ld	a3,-40(s0)
ffffffff8040c9aa:	9736                	add	a4,a4,a3
ffffffff8040c9ac:	00074703          	lbu	a4,0(a4) # 10000000 <_start-0xffffffff70400000>
ffffffff8040c9b0:	00e78023          	sb	a4,0(a5)
ffffffff8040c9b4:	fc144783          	lbu	a5,-63(s0)
ffffffff8040c9b8:	2785                	addiw	a5,a5,1
ffffffff8040c9ba:	fcf400a3          	sb	a5,-63(s0)
ffffffff8040c9be:	fc144783          	lbu	a5,-63(s0)
ffffffff8040c9c2:	0ff7f713          	andi	a4,a5,255
ffffffff8040c9c6:	479d                	li	a5,7
ffffffff8040c9c8:	fae7f4e3          	bgeu	a5,a4,ffffffff8040c970 <search+0x39c>
ffffffff8040c9cc:	a011                	j	ffffffff8040c9d0 <search+0x3fc>
ffffffff8040c9ce:	0001                	nop
ffffffff8040c9d0:	fd843783          	ld	a5,-40(s0)
ffffffff8040c9d4:	0087c783          	lbu	a5,8(a5)
ffffffff8040c9d8:	873e                	mv	a4,a5
ffffffff8040c9da:	02000793          	li	a5,32
ffffffff8040c9de:	02f70063          	beq	a4,a5,ffffffff8040c9fe <search+0x42a>
ffffffff8040c9e2:	fc244783          	lbu	a5,-62(s0)
ffffffff8040c9e6:	0017871b          	addiw	a4,a5,1
ffffffff8040c9ea:	fce40123          	sb	a4,-62(s0)
ffffffff8040c9ee:	873e                	mv	a4,a5
ffffffff8040c9f0:	fd043783          	ld	a5,-48(s0)
ffffffff8040c9f4:	97ba                	add	a5,a5,a4
ffffffff8040c9f6:	02e00713          	li	a4,46
ffffffff8040c9fa:	00e78023          	sb	a4,0(a5)
ffffffff8040c9fe:	fc040023          	sb	zero,-64(s0)
ffffffff8040ca02:	a881                	j	ffffffff8040ca52 <search+0x47e>
ffffffff8040ca04:	fc044783          	lbu	a5,-64(s0)
ffffffff8040ca08:	2781                	sext.w	a5,a5
ffffffff8040ca0a:	fd843703          	ld	a4,-40(s0)
ffffffff8040ca0e:	97ba                	add	a5,a5,a4
ffffffff8040ca10:	0087c783          	lbu	a5,8(a5)
ffffffff8040ca14:	873e                	mv	a4,a5
ffffffff8040ca16:	02000793          	li	a5,32
ffffffff8040ca1a:	04f70463          	beq	a4,a5,ffffffff8040ca62 <search+0x48e>
ffffffff8040ca1e:	fc044783          	lbu	a5,-64(s0)
ffffffff8040ca22:	0007871b          	sext.w	a4,a5
ffffffff8040ca26:	fc244783          	lbu	a5,-62(s0)
ffffffff8040ca2a:	0017869b          	addiw	a3,a5,1
ffffffff8040ca2e:	fcd40123          	sb	a3,-62(s0)
ffffffff8040ca32:	86be                	mv	a3,a5
ffffffff8040ca34:	fd043783          	ld	a5,-48(s0)
ffffffff8040ca38:	97b6                	add	a5,a5,a3
ffffffff8040ca3a:	fd843683          	ld	a3,-40(s0)
ffffffff8040ca3e:	9736                	add	a4,a4,a3
ffffffff8040ca40:	00074703          	lbu	a4,0(a4)
ffffffff8040ca44:	00e78023          	sb	a4,0(a5)
ffffffff8040ca48:	fc044783          	lbu	a5,-64(s0)
ffffffff8040ca4c:	2785                	addiw	a5,a5,1
ffffffff8040ca4e:	fcf40023          	sb	a5,-64(s0)
ffffffff8040ca52:	fc044783          	lbu	a5,-64(s0)
ffffffff8040ca56:	0ff7f713          	andi	a4,a5,255
ffffffff8040ca5a:	4789                	li	a5,2
ffffffff8040ca5c:	fae7f4e3          	bgeu	a5,a4,ffffffff8040ca04 <search+0x430>
ffffffff8040ca60:	a011                	j	ffffffff8040ca64 <search+0x490>
ffffffff8040ca62:	0001                	nop
ffffffff8040ca64:	fc244783          	lbu	a5,-62(s0)
ffffffff8040ca68:	0017871b          	addiw	a4,a5,1
ffffffff8040ca6c:	fce40123          	sb	a4,-62(s0)
ffffffff8040ca70:	873e                	mv	a4,a5
ffffffff8040ca72:	fd043783          	ld	a5,-48(s0)
ffffffff8040ca76:	97ba                	add	a5,a5,a4
ffffffff8040ca78:	00078023          	sb	zero,0(a5)
ffffffff8040ca7c:	fd843783          	ld	a5,-40(s0)
ffffffff8040ca80:	00b7c783          	lbu	a5,11(a5)
ffffffff8040ca84:	2781                	sext.w	a5,a5
ffffffff8040ca86:	8bc1                	andi	a5,a5,16
ffffffff8040ca88:	2781                	sext.w	a5,a5
ffffffff8040ca8a:	c39d                	beqz	a5,ffffffff8040cab0 <search+0x4dc>
ffffffff8040ca8c:	fa042783          	lw	a5,-96(s0)
ffffffff8040ca90:	0007871b          	sext.w	a4,a5
ffffffff8040ca94:	4785                	li	a5,1
ffffffff8040ca96:	00f71d63          	bne	a4,a5,ffffffff8040cab0 <search+0x4dc>
ffffffff8040ca9a:	fa843583          	ld	a1,-88(s0)
ffffffff8040ca9e:	fd043503          	ld	a0,-48(s0)
ffffffff8040caa2:	588000ef          	jal	ra,ffffffff8040d02a <filenamecmp>
ffffffff8040caa6:	87aa                	mv	a5,a0
ffffffff8040caa8:	e781                	bnez	a5,ffffffff8040cab0 <search+0x4dc>
ffffffff8040caaa:	fd843783          	ld	a5,-40(s0)
ffffffff8040caae:	a8b1                	j	ffffffff8040cb0a <search+0x536>
ffffffff8040cab0:	fd843783          	ld	a5,-40(s0)
ffffffff8040cab4:	00b7c783          	lbu	a5,11(a5)
ffffffff8040cab8:	2781                	sext.w	a5,a5
ffffffff8040caba:	8bc1                	andi	a5,a5,16
ffffffff8040cabc:	2781                	sext.w	a5,a5
ffffffff8040cabe:	e385                	bnez	a5,ffffffff8040cade <search+0x50a>
ffffffff8040cac0:	fa042783          	lw	a5,-96(s0)
ffffffff8040cac4:	2781                	sext.w	a5,a5
ffffffff8040cac6:	ef81                	bnez	a5,ffffffff8040cade <search+0x50a>
ffffffff8040cac8:	fa843583          	ld	a1,-88(s0)
ffffffff8040cacc:	fd043503          	ld	a0,-48(s0)
ffffffff8040cad0:	55a000ef          	jal	ra,ffffffff8040d02a <filenamecmp>
ffffffff8040cad4:	87aa                	mv	a5,a0
ffffffff8040cad6:	e781                	bnez	a5,ffffffff8040cade <search+0x50a>
ffffffff8040cad8:	fd843783          	ld	a5,-40(s0)
ffffffff8040cadc:	a03d                	j	ffffffff8040cb0a <search+0x536>
ffffffff8040cade:	fb440713          	addi	a4,s0,-76
ffffffff8040cae2:	fb840793          	addi	a5,s0,-72
ffffffff8040cae6:	86ba                	mv	a3,a4
ffffffff8040cae8:	863e                	mv	a2,a5
ffffffff8040caea:	f9843583          	ld	a1,-104(s0)
ffffffff8040caee:	fd843503          	ld	a0,-40(s0)
ffffffff8040caf2:	da9fd0ef          	jal	ra,ffffffff8040a89a <get_next_dentry>
ffffffff8040caf6:	fca43c23          	sd	a0,-40(s0)
ffffffff8040cafa:	fd843503          	ld	a0,-40(s0)
ffffffff8040cafe:	4c8000ef          	jal	ra,ffffffff8040cfc6 <is_zero_dentry>
ffffffff8040cb02:	87aa                	mv	a5,a0
ffffffff8040cb04:	b2078fe3          	beqz	a5,ffffffff8040c642 <search+0x6e>
ffffffff8040cb08:	4781                	li	a5,0
ffffffff8040cb0a:	853e                	mv	a0,a5
ffffffff8040cb0c:	70a6                	ld	ra,104(sp)
ffffffff8040cb0e:	7406                	ld	s0,96(sp)
ffffffff8040cb10:	64e6                	ld	s1,88(sp)
ffffffff8040cb12:	6165                	addi	sp,sp,112
ffffffff8040cb14:	8082                	ret

ffffffff8040cb16 <fat32_open>:
ffffffff8040cb16:	7155                	addi	sp,sp,-208
ffffffff8040cb18:	e586                	sd	ra,200(sp)
ffffffff8040cb1a:	e1a2                	sd	s0,192(sp)
ffffffff8040cb1c:	fd26                	sd	s1,184(sp)
ffffffff8040cb1e:	f94a                	sd	s2,176(sp)
ffffffff8040cb20:	f54e                	sd	s3,168(sp)
ffffffff8040cb22:	f152                	sd	s4,160(sp)
ffffffff8040cb24:	ed56                	sd	s5,152(sp)
ffffffff8040cb26:	e95a                	sd	s6,144(sp)
ffffffff8040cb28:	e55e                	sd	s7,136(sp)
ffffffff8040cb2a:	e162                	sd	s8,128(sp)
ffffffff8040cb2c:	fce6                	sd	s9,120(sp)
ffffffff8040cb2e:	f8ea                	sd	s10,112(sp)
ffffffff8040cb30:	0980                	addi	s0,sp,208
ffffffff8040cb32:	87aa                	mv	a5,a0
ffffffff8040cb34:	f4b43023          	sd	a1,-192(s0)
ffffffff8040cb38:	8736                	mv	a4,a3
ffffffff8040cb3a:	f4f42623          	sw	a5,-180(s0)
ffffffff8040cb3e:	87b2                	mv	a5,a2
ffffffff8040cb40:	f4f42423          	sw	a5,-184(s0)
ffffffff8040cb44:	87ba                	mv	a5,a4
ffffffff8040cb46:	f2f42e23          	sw	a5,-196(s0)
ffffffff8040cb4a:	878a                	mv	a5,sp
ffffffff8040cb4c:	8d3e                	mv	s10,a5
ffffffff8040cb4e:	f4043503          	ld	a0,-192(s0)
ffffffff8040cb52:	ff1f80ef          	jal	ra,ffffffff80405b42 <strlen>
ffffffff8040cb56:	87aa                	mv	a5,a0
ffffffff8040cb58:	2785                	addiw	a5,a5,1
ffffffff8040cb5a:	2781                	sext.w	a5,a5
ffffffff8040cb5c:	873e                	mv	a4,a5
ffffffff8040cb5e:	177d                	addi	a4,a4,-1
ffffffff8040cb60:	f6e43c23          	sd	a4,-136(s0)
ffffffff8040cb64:	873e                	mv	a4,a5
ffffffff8040cb66:	8c3a                	mv	s8,a4
ffffffff8040cb68:	4c81                	li	s9,0
ffffffff8040cb6a:	03dc5713          	srli	a4,s8,0x3d
ffffffff8040cb6e:	003c9a93          	slli	s5,s9,0x3
ffffffff8040cb72:	01576ab3          	or	s5,a4,s5
ffffffff8040cb76:	003c1a13          	slli	s4,s8,0x3
ffffffff8040cb7a:	873e                	mv	a4,a5
ffffffff8040cb7c:	8b3a                	mv	s6,a4
ffffffff8040cb7e:	4b81                	li	s7,0
ffffffff8040cb80:	03db5713          	srli	a4,s6,0x3d
ffffffff8040cb84:	003b9993          	slli	s3,s7,0x3
ffffffff8040cb88:	013769b3          	or	s3,a4,s3
ffffffff8040cb8c:	003b1913          	slli	s2,s6,0x3
ffffffff8040cb90:	07bd                	addi	a5,a5,15
ffffffff8040cb92:	8391                	srli	a5,a5,0x4
ffffffff8040cb94:	0792                	slli	a5,a5,0x4
ffffffff8040cb96:	40f10133          	sub	sp,sp,a5
ffffffff8040cb9a:	878a                	mv	a5,sp
ffffffff8040cb9c:	00078793          	mv	a5,a5
ffffffff8040cba0:	f6f43823          	sd	a5,-144(s0)
ffffffff8040cba4:	f7043783          	ld	a5,-144(s0)
ffffffff8040cba8:	f4043583          	ld	a1,-192(s0)
ffffffff8040cbac:	853e                	mv	a0,a5
ffffffff8040cbae:	a90f90ef          	jal	ra,ffffffff80405e3e <strcpy>
ffffffff8040cbb2:	f80407a3          	sb	zero,-113(s0)
ffffffff8040cbb6:	bcbf80ef          	jal	ra,ffffffff80405780 <kalloc>
ffffffff8040cbba:	f6a43423          	sd	a0,-152(s0)
ffffffff8040cbbe:	f6843783          	ld	a5,-152(s0)
ffffffff8040cbc2:	f6f43023          	sd	a5,-160(s0)
ffffffff8040cbc6:	f7043783          	ld	a5,-144(s0)
ffffffff8040cbca:	0007c783          	lbu	a5,0(a5)
ffffffff8040cbce:	873e                	mv	a4,a5
ffffffff8040cbd0:	02f00793          	li	a5,47
ffffffff8040cbd4:	02f71463          	bne	a4,a5,ffffffff8040cbfc <fat32_open+0xe6>
ffffffff8040cbd8:	00017797          	auipc	a5,0x17
ffffffff8040cbdc:	b1078793          	addi	a5,a5,-1264 # ffffffff804236e8 <fat>
ffffffff8040cbe0:	53dc                	lw	a5,36(a5)
ffffffff8040cbe2:	f8f42423          	sw	a5,-120(s0)
ffffffff8040cbe6:	f7043783          	ld	a5,-144(s0)
ffffffff8040cbea:	0785                	addi	a5,a5,1
ffffffff8040cbec:	f8f43c23          	sd	a5,-104(s0)
ffffffff8040cbf0:	f7043783          	ld	a5,-144(s0)
ffffffff8040cbf4:	0785                	addi	a5,a5,1
ffffffff8040cbf6:	f8f43823          	sd	a5,-112(s0)
ffffffff8040cbfa:	a059                	j	ffffffff8040cc80 <fat32_open+0x16a>
ffffffff8040cbfc:	f4c42783          	lw	a5,-180(s0)
ffffffff8040cc00:	0007871b          	sext.w	a4,a5
ffffffff8040cc04:	f9c00793          	li	a5,-100
ffffffff8040cc08:	00f71a63          	bne	a4,a5,ffffffff8040cc1c <fat32_open+0x106>
ffffffff8040cc0c:	00017797          	auipc	a5,0x17
ffffffff8040cc10:	b0878793          	addi	a5,a5,-1272 # ffffffff80423714 <cwd_first_clus>
ffffffff8040cc14:	439c                	lw	a5,0(a5)
ffffffff8040cc16:	f8f42423          	sw	a5,-120(s0)
ffffffff8040cc1a:	a0a9                	j	ffffffff8040cc64 <fat32_open+0x14e>
ffffffff8040cc1c:	f4c42783          	lw	a5,-180(s0)
ffffffff8040cc20:	0007871b          	sext.w	a4,a5
ffffffff8040cc24:	47bd                	li	a5,15
ffffffff8040cc26:	02e7ec63          	bltu	a5,a4,ffffffff8040cc5e <fat32_open+0x148>
ffffffff8040cc2a:	00013797          	auipc	a5,0x13
ffffffff8040cc2e:	e5e78793          	addi	a5,a5,-418 # ffffffff8041fa88 <current_running>
ffffffff8040cc32:	6398                	ld	a4,0(a5)
ffffffff8040cc34:	f4c46783          	lwu	a5,-180(s0)
ffffffff8040cc38:	0796                	slli	a5,a5,0x5
ffffffff8040cc3a:	97ba                	add	a5,a5,a4
ffffffff8040cc3c:	0d87c783          	lbu	a5,216(a5)
ffffffff8040cc40:	cf99                	beqz	a5,ffffffff8040cc5e <fat32_open+0x148>
ffffffff8040cc42:	00013797          	auipc	a5,0x13
ffffffff8040cc46:	e4678793          	addi	a5,a5,-442 # ffffffff8041fa88 <current_running>
ffffffff8040cc4a:	6398                	ld	a4,0(a5)
ffffffff8040cc4c:	f4c46783          	lwu	a5,-180(s0)
ffffffff8040cc50:	0799                	addi	a5,a5,6
ffffffff8040cc52:	0796                	slli	a5,a5,0x5
ffffffff8040cc54:	97ba                	add	a5,a5,a4
ffffffff8040cc56:	43dc                	lw	a5,4(a5)
ffffffff8040cc58:	f8f42423          	sw	a5,-120(s0)
ffffffff8040cc5c:	a021                	j	ffffffff8040cc64 <fat32_open+0x14e>
ffffffff8040cc5e:	67c1                	lui	a5,0x10
ffffffff8040cc60:	17fd                	addi	a5,a5,-1
ffffffff8040cc62:	ace5                	j	ffffffff8040cf5a <fat32_open+0x444>
ffffffff8040cc64:	f7043783          	ld	a5,-144(s0)
ffffffff8040cc68:	f8f43c23          	sd	a5,-104(s0)
ffffffff8040cc6c:	f7043783          	ld	a5,-144(s0)
ffffffff8040cc70:	f8f43823          	sd	a5,-112(s0)
ffffffff8040cc74:	a031                	j	ffffffff8040cc80 <fat32_open+0x16a>
ffffffff8040cc76:	f9843783          	ld	a5,-104(s0)
ffffffff8040cc7a:	0785                	addi	a5,a5,1
ffffffff8040cc7c:	f8f43c23          	sd	a5,-104(s0)
ffffffff8040cc80:	f9843783          	ld	a5,-104(s0)
ffffffff8040cc84:	0007c783          	lbu	a5,0(a5) # 10000 <_start-0xffffffff803f0000>
ffffffff8040cc88:	873e                	mv	a4,a5
ffffffff8040cc8a:	02f00793          	li	a5,47
ffffffff8040cc8e:	00f70763          	beq	a4,a5,ffffffff8040cc9c <fat32_open+0x186>
ffffffff8040cc92:	f9843783          	ld	a5,-104(s0)
ffffffff8040cc96:	0007c783          	lbu	a5,0(a5)
ffffffff8040cc9a:	fff1                	bnez	a5,ffffffff8040cc76 <fat32_open+0x160>
ffffffff8040cc9c:	f9843783          	ld	a5,-104(s0)
ffffffff8040cca0:	0007c783          	lbu	a5,0(a5)
ffffffff8040cca4:	c799                	beqz	a5,ffffffff8040ccb2 <fat32_open+0x19c>
ffffffff8040cca6:	f9843783          	ld	a5,-104(s0)
ffffffff8040ccaa:	0785                	addi	a5,a5,1
ffffffff8040ccac:	0007c783          	lbu	a5,0(a5)
ffffffff8040ccb0:	e781                	bnez	a5,ffffffff8040ccb8 <fat32_open+0x1a2>
ffffffff8040ccb2:	4785                	li	a5,1
ffffffff8040ccb4:	f8f407a3          	sb	a5,-113(s0)
ffffffff8040ccb8:	f9843783          	ld	a5,-104(s0)
ffffffff8040ccbc:	00078023          	sb	zero,0(a5)
ffffffff8040ccc0:	f8f44783          	lbu	a5,-113(s0)
ffffffff8040ccc4:	0ff7f793          	andi	a5,a5,255
ffffffff8040ccc8:	26078463          	beqz	a5,ffffffff8040cf30 <fat32_open+0x41a>
ffffffff8040cccc:	f4842703          	lw	a4,-184(s0)
ffffffff8040ccd0:	002007b7          	lui	a5,0x200
ffffffff8040ccd4:	8ff9                	and	a5,a5,a4
ffffffff8040ccd6:	2781                	sext.w	a5,a5
ffffffff8040ccd8:	00f037b3          	snez	a5,a5
ffffffff8040ccdc:	0ff7f793          	andi	a5,a5,255
ffffffff8040cce0:	f4f42e23          	sw	a5,-164(s0)
ffffffff8040cce4:	f5c42703          	lw	a4,-164(s0)
ffffffff8040cce8:	f8842783          	lw	a5,-120(s0)
ffffffff8040ccec:	86ba                	mv	a3,a4
ffffffff8040ccee:	f6843603          	ld	a2,-152(s0)
ffffffff8040ccf2:	85be                	mv	a1,a5
ffffffff8040ccf4:	f9043503          	ld	a0,-112(s0)
ffffffff8040ccf8:	8ddff0ef          	jal	ra,ffffffff8040c5d4 <search>
ffffffff8040ccfc:	f6a43023          	sd	a0,-160(s0)
ffffffff8040cd00:	f6043783          	ld	a5,-160(s0)
ffffffff8040cd04:	0e078a63          	beqz	a5,ffffffff8040cdf8 <fat32_open+0x2e2>
ffffffff8040cd08:	f80403a3          	sb	zero,-121(s0)
ffffffff8040cd0c:	a8c1                	j	ffffffff8040cddc <fat32_open+0x2c6>
ffffffff8040cd0e:	00013797          	auipc	a5,0x13
ffffffff8040cd12:	d7a78793          	addi	a5,a5,-646 # ffffffff8041fa88 <current_running>
ffffffff8040cd16:	6398                	ld	a4,0(a5)
ffffffff8040cd18:	f8744783          	lbu	a5,-121(s0)
ffffffff8040cd1c:	2781                	sext.w	a5,a5
ffffffff8040cd1e:	0796                	slli	a5,a5,0x5
ffffffff8040cd20:	97ba                	add	a5,a5,a4
ffffffff8040cd22:	0d87c783          	lbu	a5,216(a5)
ffffffff8040cd26:	e7d5                	bnez	a5,ffffffff8040cdd2 <fat32_open+0x2bc>
ffffffff8040cd28:	00013797          	auipc	a5,0x13
ffffffff8040cd2c:	d6078793          	addi	a5,a5,-672 # ffffffff8041fa88 <current_running>
ffffffff8040cd30:	6398                	ld	a4,0(a5)
ffffffff8040cd32:	f8744783          	lbu	a5,-121(s0)
ffffffff8040cd36:	2781                	sext.w	a5,a5
ffffffff8040cd38:	0799                	addi	a5,a5,6
ffffffff8040cd3a:	0796                	slli	a5,a5,0x5
ffffffff8040cd3c:	97ba                	add	a5,a5,a4
ffffffff8040cd3e:	00078023          	sb	zero,0(a5)
ffffffff8040cd42:	00013797          	auipc	a5,0x13
ffffffff8040cd46:	d4678793          	addi	a5,a5,-698 # ffffffff8041fa88 <current_running>
ffffffff8040cd4a:	6384                	ld	s1,0(a5)
ffffffff8040cd4c:	f8744783          	lbu	a5,-121(s0)
ffffffff8040cd50:	0007891b          	sext.w	s2,a5
ffffffff8040cd54:	f6043503          	ld	a0,-160(s0)
ffffffff8040cd58:	d76fd0ef          	jal	ra,ffffffff8040a2ce <get_cluster_from_dentry>
ffffffff8040cd5c:	87aa                	mv	a5,a0
ffffffff8040cd5e:	0007871b          	sext.w	a4,a5
ffffffff8040cd62:	00690793          	addi	a5,s2,6
ffffffff8040cd66:	0796                	slli	a5,a5,0x5
ffffffff8040cd68:	97a6                	add	a5,a5,s1
ffffffff8040cd6a:	c3d8                	sw	a4,4(a5)
ffffffff8040cd6c:	00013797          	auipc	a5,0x13
ffffffff8040cd70:	d1c78793          	addi	a5,a5,-740 # ffffffff8041fa88 <current_running>
ffffffff8040cd74:	6394                	ld	a3,0(a5)
ffffffff8040cd76:	f8744783          	lbu	a5,-121(s0)
ffffffff8040cd7a:	2781                	sext.w	a5,a5
ffffffff8040cd7c:	f4842703          	lw	a4,-184(s0)
ffffffff8040cd80:	0ff77713          	andi	a4,a4,255
ffffffff8040cd84:	0799                	addi	a5,a5,6
ffffffff8040cd86:	0796                	slli	a5,a5,0x5
ffffffff8040cd88:	97b6                	add	a5,a5,a3
ffffffff8040cd8a:	00e78423          	sb	a4,8(a5)
ffffffff8040cd8e:	00013797          	auipc	a5,0x13
ffffffff8040cd92:	cfa78793          	addi	a5,a5,-774 # ffffffff8041fa88 <current_running>
ffffffff8040cd96:	6398                	ld	a4,0(a5)
ffffffff8040cd98:	f8744783          	lbu	a5,-121(s0)
ffffffff8040cd9c:	2781                	sext.w	a5,a5
ffffffff8040cd9e:	0796                	slli	a5,a5,0x5
ffffffff8040cda0:	97ba                	add	a5,a5,a4
ffffffff8040cda2:	0c07b823          	sd	zero,208(a5)
ffffffff8040cda6:	00013797          	auipc	a5,0x13
ffffffff8040cdaa:	ce278793          	addi	a5,a5,-798 # ffffffff8041fa88 <current_running>
ffffffff8040cdae:	6398                	ld	a4,0(a5)
ffffffff8040cdb0:	f8744783          	lbu	a5,-121(s0)
ffffffff8040cdb4:	2781                	sext.w	a5,a5
ffffffff8040cdb6:	0796                	slli	a5,a5,0x5
ffffffff8040cdb8:	97ba                	add	a5,a5,a4
ffffffff8040cdba:	4705                	li	a4,1
ffffffff8040cdbc:	0ce78c23          	sb	a4,216(a5)
ffffffff8040cdc0:	f6843503          	ld	a0,-152(s0)
ffffffff8040cdc4:	9d5f80ef          	jal	ra,ffffffff80405798 <kfree>
ffffffff8040cdc8:	f8744783          	lbu	a5,-121(s0)
ffffffff8040cdcc:	17c2                	slli	a5,a5,0x30
ffffffff8040cdce:	93c1                	srli	a5,a5,0x30
ffffffff8040cdd0:	a269                	j	ffffffff8040cf5a <fat32_open+0x444>
ffffffff8040cdd2:	f8744783          	lbu	a5,-121(s0)
ffffffff8040cdd6:	2785                	addiw	a5,a5,1
ffffffff8040cdd8:	f8f403a3          	sb	a5,-121(s0)
ffffffff8040cddc:	f8744783          	lbu	a5,-121(s0)
ffffffff8040cde0:	0ff7f713          	andi	a4,a5,255
ffffffff8040cde4:	47bd                	li	a5,15
ffffffff8040cde6:	f2e7f4e3          	bgeu	a5,a4,ffffffff8040cd0e <fat32_open+0x1f8>
ffffffff8040cdea:	f6843503          	ld	a0,-152(s0)
ffffffff8040cdee:	9abf80ef          	jal	ra,ffffffff80405798 <kfree>
ffffffff8040cdf2:	67c1                	lui	a5,0x10
ffffffff8040cdf4:	17fd                	addi	a5,a5,-1
ffffffff8040cdf6:	a295                	j	ffffffff8040cf5a <fat32_open+0x444>
ffffffff8040cdf8:	f5c42783          	lw	a5,-164(s0)
ffffffff8040cdfc:	0007871b          	sext.w	a4,a5
ffffffff8040ce00:	4785                	li	a5,1
ffffffff8040ce02:	00f71963          	bne	a4,a5,ffffffff8040ce14 <fat32_open+0x2fe>
ffffffff8040ce06:	f6843503          	ld	a0,-152(s0)
ffffffff8040ce0a:	98ff80ef          	jal	ra,ffffffff80405798 <kfree>
ffffffff8040ce0e:	67c1                	lui	a5,0x10
ffffffff8040ce10:	17fd                	addi	a5,a5,-1
ffffffff8040ce12:	a2a1                	j	ffffffff8040cf5a <fat32_open+0x444>
ffffffff8040ce14:	f8842783          	lw	a5,-120(s0)
ffffffff8040ce18:	4681                	li	a3,0
ffffffff8040ce1a:	f6843603          	ld	a2,-152(s0)
ffffffff8040ce1e:	85be                	mv	a1,a5
ffffffff8040ce20:	f9043503          	ld	a0,-112(s0)
ffffffff8040ce24:	dd6fe0ef          	jal	ra,ffffffff8040b3fa <_create_new>
ffffffff8040ce28:	87aa                	mv	a5,a0
ffffffff8040ce2a:	f4f42c23          	sw	a5,-168(s0)
ffffffff8040ce2e:	f8040323          	sb	zero,-122(s0)
ffffffff8040ce32:	a0c9                	j	ffffffff8040cef4 <fat32_open+0x3de>
ffffffff8040ce34:	00013797          	auipc	a5,0x13
ffffffff8040ce38:	c5478793          	addi	a5,a5,-940 # ffffffff8041fa88 <current_running>
ffffffff8040ce3c:	6398                	ld	a4,0(a5)
ffffffff8040ce3e:	f8644783          	lbu	a5,-122(s0)
ffffffff8040ce42:	2781                	sext.w	a5,a5
ffffffff8040ce44:	0796                	slli	a5,a5,0x5
ffffffff8040ce46:	97ba                	add	a5,a5,a4
ffffffff8040ce48:	0d87c783          	lbu	a5,216(a5)
ffffffff8040ce4c:	efd9                	bnez	a5,ffffffff8040ceea <fat32_open+0x3d4>
ffffffff8040ce4e:	00013797          	auipc	a5,0x13
ffffffff8040ce52:	c3a78793          	addi	a5,a5,-966 # ffffffff8041fa88 <current_running>
ffffffff8040ce56:	6398                	ld	a4,0(a5)
ffffffff8040ce58:	f8644783          	lbu	a5,-122(s0)
ffffffff8040ce5c:	2781                	sext.w	a5,a5
ffffffff8040ce5e:	0799                	addi	a5,a5,6
ffffffff8040ce60:	0796                	slli	a5,a5,0x5
ffffffff8040ce62:	97ba                	add	a5,a5,a4
ffffffff8040ce64:	00078023          	sb	zero,0(a5)
ffffffff8040ce68:	00013797          	auipc	a5,0x13
ffffffff8040ce6c:	c2078793          	addi	a5,a5,-992 # ffffffff8041fa88 <current_running>
ffffffff8040ce70:	6398                	ld	a4,0(a5)
ffffffff8040ce72:	f8644783          	lbu	a5,-122(s0)
ffffffff8040ce76:	2781                	sext.w	a5,a5
ffffffff8040ce78:	0799                	addi	a5,a5,6
ffffffff8040ce7a:	0796                	slli	a5,a5,0x5
ffffffff8040ce7c:	97ba                	add	a5,a5,a4
ffffffff8040ce7e:	f5842703          	lw	a4,-168(s0)
ffffffff8040ce82:	c3d8                	sw	a4,4(a5)
ffffffff8040ce84:	00013797          	auipc	a5,0x13
ffffffff8040ce88:	c0478793          	addi	a5,a5,-1020 # ffffffff8041fa88 <current_running>
ffffffff8040ce8c:	6394                	ld	a3,0(a5)
ffffffff8040ce8e:	f8644783          	lbu	a5,-122(s0)
ffffffff8040ce92:	2781                	sext.w	a5,a5
ffffffff8040ce94:	f4842703          	lw	a4,-184(s0)
ffffffff8040ce98:	0ff77713          	andi	a4,a4,255
ffffffff8040ce9c:	0799                	addi	a5,a5,6
ffffffff8040ce9e:	0796                	slli	a5,a5,0x5
ffffffff8040cea0:	97b6                	add	a5,a5,a3
ffffffff8040cea2:	00e78423          	sb	a4,8(a5)
ffffffff8040cea6:	00013797          	auipc	a5,0x13
ffffffff8040ceaa:	be278793          	addi	a5,a5,-1054 # ffffffff8041fa88 <current_running>
ffffffff8040ceae:	6398                	ld	a4,0(a5)
ffffffff8040ceb0:	f8644783          	lbu	a5,-122(s0)
ffffffff8040ceb4:	2781                	sext.w	a5,a5
ffffffff8040ceb6:	0796                	slli	a5,a5,0x5
ffffffff8040ceb8:	97ba                	add	a5,a5,a4
ffffffff8040ceba:	0c07b823          	sd	zero,208(a5)
ffffffff8040cebe:	00013797          	auipc	a5,0x13
ffffffff8040cec2:	bca78793          	addi	a5,a5,-1078 # ffffffff8041fa88 <current_running>
ffffffff8040cec6:	6398                	ld	a4,0(a5)
ffffffff8040cec8:	f8644783          	lbu	a5,-122(s0)
ffffffff8040cecc:	2781                	sext.w	a5,a5
ffffffff8040cece:	0796                	slli	a5,a5,0x5
ffffffff8040ced0:	97ba                	add	a5,a5,a4
ffffffff8040ced2:	4705                	li	a4,1
ffffffff8040ced4:	0ce78c23          	sb	a4,216(a5)
ffffffff8040ced8:	f6843503          	ld	a0,-152(s0)
ffffffff8040cedc:	8bdf80ef          	jal	ra,ffffffff80405798 <kfree>
ffffffff8040cee0:	f8644783          	lbu	a5,-122(s0)
ffffffff8040cee4:	17c2                	slli	a5,a5,0x30
ffffffff8040cee6:	93c1                	srli	a5,a5,0x30
ffffffff8040cee8:	a88d                	j	ffffffff8040cf5a <fat32_open+0x444>
ffffffff8040ceea:	f8644783          	lbu	a5,-122(s0)
ffffffff8040ceee:	2785                	addiw	a5,a5,1
ffffffff8040cef0:	f8f40323          	sb	a5,-122(s0)
ffffffff8040cef4:	f8644783          	lbu	a5,-122(s0)
ffffffff8040cef8:	0ff7f713          	andi	a4,a5,255
ffffffff8040cefc:	47bd                	li	a5,15
ffffffff8040cefe:	f2e7fbe3          	bgeu	a5,a4,ffffffff8040ce34 <fat32_open+0x31e>
ffffffff8040cf02:	f6843503          	ld	a0,-152(s0)
ffffffff8040cf06:	893f80ef          	jal	ra,ffffffff80405798 <kfree>
ffffffff8040cf0a:	67c1                	lui	a5,0x10
ffffffff8040cf0c:	17fd                	addi	a5,a5,-1
ffffffff8040cf0e:	a0b1                	j	ffffffff8040cf5a <fat32_open+0x444>
ffffffff8040cf10:	f6043503          	ld	a0,-160(s0)
ffffffff8040cf14:	bbafd0ef          	jal	ra,ffffffff8040a2ce <get_cluster_from_dentry>
ffffffff8040cf18:	87aa                	mv	a5,a0
ffffffff8040cf1a:	f8f42423          	sw	a5,-120(s0)
ffffffff8040cf1e:	f9843783          	ld	a5,-104(s0)
ffffffff8040cf22:	0785                	addi	a5,a5,1
ffffffff8040cf24:	f8f43c23          	sd	a5,-104(s0)
ffffffff8040cf28:	f9843783          	ld	a5,-104(s0)
ffffffff8040cf2c:	f8f43823          	sd	a5,-112(s0)
ffffffff8040cf30:	f8842783          	lw	a5,-120(s0)
ffffffff8040cf34:	4685                	li	a3,1
ffffffff8040cf36:	f6843603          	ld	a2,-152(s0)
ffffffff8040cf3a:	85be                	mv	a1,a5
ffffffff8040cf3c:	f9043503          	ld	a0,-112(s0)
ffffffff8040cf40:	e94ff0ef          	jal	ra,ffffffff8040c5d4 <search>
ffffffff8040cf44:	f6a43023          	sd	a0,-160(s0)
ffffffff8040cf48:	f6043783          	ld	a5,-160(s0)
ffffffff8040cf4c:	f3f1                	bnez	a5,ffffffff8040cf10 <fat32_open+0x3fa>
ffffffff8040cf4e:	f6843503          	ld	a0,-152(s0)
ffffffff8040cf52:	847f80ef          	jal	ra,ffffffff80405798 <kfree>
ffffffff8040cf56:	67c1                	lui	a5,0x10
ffffffff8040cf58:	17fd                	addi	a5,a5,-1
ffffffff8040cf5a:	816a                	mv	sp,s10
ffffffff8040cf5c:	853e                	mv	a0,a5
ffffffff8040cf5e:	f3040113          	addi	sp,s0,-208
ffffffff8040cf62:	60ae                	ld	ra,200(sp)
ffffffff8040cf64:	640e                	ld	s0,192(sp)
ffffffff8040cf66:	74ea                	ld	s1,184(sp)
ffffffff8040cf68:	794a                	ld	s2,176(sp)
ffffffff8040cf6a:	79aa                	ld	s3,168(sp)
ffffffff8040cf6c:	7a0a                	ld	s4,160(sp)
ffffffff8040cf6e:	6aea                	ld	s5,152(sp)
ffffffff8040cf70:	6b4a                	ld	s6,144(sp)
ffffffff8040cf72:	6baa                	ld	s7,136(sp)
ffffffff8040cf74:	6c0a                	ld	s8,128(sp)
ffffffff8040cf76:	7ce6                	ld	s9,120(sp)
ffffffff8040cf78:	7d46                	ld	s10,112(sp)
ffffffff8040cf7a:	6169                	addi	sp,sp,208
ffffffff8040cf7c:	8082                	ret

ffffffff8040cf7e <fat32_close>:
ffffffff8040cf7e:	1101                	addi	sp,sp,-32
ffffffff8040cf80:	ec22                	sd	s0,24(sp)
ffffffff8040cf82:	1000                	addi	s0,sp,32
ffffffff8040cf84:	87aa                	mv	a5,a0
ffffffff8040cf86:	fef42623          	sw	a5,-20(s0)
ffffffff8040cf8a:	00013797          	auipc	a5,0x13
ffffffff8040cf8e:	afe78793          	addi	a5,a5,-1282 # ffffffff8041fa88 <current_running>
ffffffff8040cf92:	6398                	ld	a4,0(a5)
ffffffff8040cf94:	fec46783          	lwu	a5,-20(s0)
ffffffff8040cf98:	0796                	slli	a5,a5,0x5
ffffffff8040cf9a:	97ba                	add	a5,a5,a4
ffffffff8040cf9c:	0d87c783          	lbu	a5,216(a5)
ffffffff8040cfa0:	cf91                	beqz	a5,ffffffff8040cfbc <fat32_close+0x3e>
ffffffff8040cfa2:	00013797          	auipc	a5,0x13
ffffffff8040cfa6:	ae678793          	addi	a5,a5,-1306 # ffffffff8041fa88 <current_running>
ffffffff8040cfaa:	6398                	ld	a4,0(a5)
ffffffff8040cfac:	fec46783          	lwu	a5,-20(s0)
ffffffff8040cfb0:	0796                	slli	a5,a5,0x5
ffffffff8040cfb2:	97ba                	add	a5,a5,a4
ffffffff8040cfb4:	0c078c23          	sb	zero,216(a5)
ffffffff8040cfb8:	4781                	li	a5,0
ffffffff8040cfba:	a011                	j	ffffffff8040cfbe <fat32_close+0x40>
ffffffff8040cfbc:	4785                	li	a5,1
ffffffff8040cfbe:	853e                	mv	a0,a5
ffffffff8040cfc0:	6462                	ld	s0,24(sp)
ffffffff8040cfc2:	6105                	addi	sp,sp,32
ffffffff8040cfc4:	8082                	ret

ffffffff8040cfc6 <is_zero_dentry>:
ffffffff8040cfc6:	7179                	addi	sp,sp,-48
ffffffff8040cfc8:	f422                	sd	s0,40(sp)
ffffffff8040cfca:	1800                	addi	s0,sp,48
ffffffff8040cfcc:	fca43c23          	sd	a0,-40(s0)
ffffffff8040cfd0:	fd843783          	ld	a5,-40(s0)
ffffffff8040cfd4:	fef43423          	sd	a5,-24(s0)
ffffffff8040cfd8:	fe0403a3          	sb	zero,-25(s0)
ffffffff8040cfdc:	a839                	j	ffffffff8040cffa <is_zero_dentry+0x34>
ffffffff8040cfde:	fe843783          	ld	a5,-24(s0)
ffffffff8040cfe2:	00178713          	addi	a4,a5,1
ffffffff8040cfe6:	fee43423          	sd	a4,-24(s0)
ffffffff8040cfea:	0007c783          	lbu	a5,0(a5)
ffffffff8040cfee:	ef91                	bnez	a5,ffffffff8040d00a <is_zero_dentry+0x44>
ffffffff8040cff0:	fe744783          	lbu	a5,-25(s0)
ffffffff8040cff4:	2785                	addiw	a5,a5,1
ffffffff8040cff6:	fef403a3          	sb	a5,-25(s0)
ffffffff8040cffa:	fe744783          	lbu	a5,-25(s0)
ffffffff8040cffe:	0ff7f713          	andi	a4,a5,255
ffffffff8040d002:	47fd                	li	a5,31
ffffffff8040d004:	fce7fde3          	bgeu	a5,a4,ffffffff8040cfde <is_zero_dentry+0x18>
ffffffff8040d008:	a011                	j	ffffffff8040d00c <is_zero_dentry+0x46>
ffffffff8040d00a:	0001                	nop
ffffffff8040d00c:	fe744783          	lbu	a5,-25(s0)
ffffffff8040d010:	0ff7f713          	andi	a4,a5,255
ffffffff8040d014:	02000793          	li	a5,32
ffffffff8040d018:	00f71463          	bne	a4,a5,ffffffff8040d020 <is_zero_dentry+0x5a>
ffffffff8040d01c:	4785                	li	a5,1
ffffffff8040d01e:	a011                	j	ffffffff8040d022 <is_zero_dentry+0x5c>
ffffffff8040d020:	4781                	li	a5,0
ffffffff8040d022:	853e                	mv	a0,a5
ffffffff8040d024:	7422                	ld	s0,40(sp)
ffffffff8040d026:	6145                	addi	sp,sp,48
ffffffff8040d028:	8082                	ret

ffffffff8040d02a <filenamecmp>:
ffffffff8040d02a:	7115                	addi	sp,sp,-224
ffffffff8040d02c:	ed86                	sd	ra,216(sp)
ffffffff8040d02e:	e9a2                	sd	s0,208(sp)
ffffffff8040d030:	e5a6                	sd	s1,200(sp)
ffffffff8040d032:	e1ca                	sd	s2,192(sp)
ffffffff8040d034:	fd4e                	sd	s3,184(sp)
ffffffff8040d036:	f952                	sd	s4,176(sp)
ffffffff8040d038:	f556                	sd	s5,168(sp)
ffffffff8040d03a:	f15a                	sd	s6,160(sp)
ffffffff8040d03c:	ed5e                	sd	s7,152(sp)
ffffffff8040d03e:	e962                	sd	s8,144(sp)
ffffffff8040d040:	e566                	sd	s9,136(sp)
ffffffff8040d042:	e16a                	sd	s10,128(sp)
ffffffff8040d044:	fcee                	sd	s11,120(sp)
ffffffff8040d046:	1180                	addi	s0,sp,224
ffffffff8040d048:	f4a43c23          	sd	a0,-168(s0)
ffffffff8040d04c:	f4b43823          	sd	a1,-176(s0)
ffffffff8040d050:	878a                	mv	a5,sp
ffffffff8040d052:	84be                	mv	s1,a5
ffffffff8040d054:	f5843503          	ld	a0,-168(s0)
ffffffff8040d058:	aebf80ef          	jal	ra,ffffffff80405b42 <strlen>
ffffffff8040d05c:	87aa                	mv	a5,a0
ffffffff8040d05e:	2785                	addiw	a5,a5,1
ffffffff8040d060:	2781                	sext.w	a5,a5
ffffffff8040d062:	873e                	mv	a4,a5
ffffffff8040d064:	177d                	addi	a4,a4,-1
ffffffff8040d066:	f8e43023          	sd	a4,-128(s0)
ffffffff8040d06a:	873e                	mv	a4,a5
ffffffff8040d06c:	f4e43023          	sd	a4,-192(s0)
ffffffff8040d070:	f4043423          	sd	zero,-184(s0)
ffffffff8040d074:	f4043703          	ld	a4,-192(s0)
ffffffff8040d078:	9375                	srli	a4,a4,0x3d
ffffffff8040d07a:	f4843683          	ld	a3,-184(s0)
ffffffff8040d07e:	00369c93          	slli	s9,a3,0x3
ffffffff8040d082:	01976cb3          	or	s9,a4,s9
ffffffff8040d086:	f4043703          	ld	a4,-192(s0)
ffffffff8040d08a:	00371c13          	slli	s8,a4,0x3
ffffffff8040d08e:	873e                	mv	a4,a5
ffffffff8040d090:	f2e43823          	sd	a4,-208(s0)
ffffffff8040d094:	f2043c23          	sd	zero,-200(s0)
ffffffff8040d098:	f3043703          	ld	a4,-208(s0)
ffffffff8040d09c:	9375                	srli	a4,a4,0x3d
ffffffff8040d09e:	f3843683          	ld	a3,-200(s0)
ffffffff8040d0a2:	00369b93          	slli	s7,a3,0x3
ffffffff8040d0a6:	01776bb3          	or	s7,a4,s7
ffffffff8040d0aa:	f3043703          	ld	a4,-208(s0)
ffffffff8040d0ae:	00371b13          	slli	s6,a4,0x3
ffffffff8040d0b2:	07bd                	addi	a5,a5,15
ffffffff8040d0b4:	8391                	srli	a5,a5,0x4
ffffffff8040d0b6:	0792                	slli	a5,a5,0x4
ffffffff8040d0b8:	40f10133          	sub	sp,sp,a5
ffffffff8040d0bc:	878a                	mv	a5,sp
ffffffff8040d0be:	00078793          	mv	a5,a5
ffffffff8040d0c2:	f6f43c23          	sd	a5,-136(s0)
ffffffff8040d0c6:	f5043503          	ld	a0,-176(s0)
ffffffff8040d0ca:	a79f80ef          	jal	ra,ffffffff80405b42 <strlen>
ffffffff8040d0ce:	87aa                	mv	a5,a0
ffffffff8040d0d0:	2785                	addiw	a5,a5,1
ffffffff8040d0d2:	2781                	sext.w	a5,a5
ffffffff8040d0d4:	873e                	mv	a4,a5
ffffffff8040d0d6:	177d                	addi	a4,a4,-1
ffffffff8040d0d8:	f6e43823          	sd	a4,-144(s0)
ffffffff8040d0dc:	873e                	mv	a4,a5
ffffffff8040d0de:	f2e43023          	sd	a4,-224(s0)
ffffffff8040d0e2:	f2043423          	sd	zero,-216(s0)
ffffffff8040d0e6:	f2043703          	ld	a4,-224(s0)
ffffffff8040d0ea:	9375                	srli	a4,a4,0x3d
ffffffff8040d0ec:	f2843683          	ld	a3,-216(s0)
ffffffff8040d0f0:	00369a93          	slli	s5,a3,0x3
ffffffff8040d0f4:	01576ab3          	or	s5,a4,s5
ffffffff8040d0f8:	f2043703          	ld	a4,-224(s0)
ffffffff8040d0fc:	00371a13          	slli	s4,a4,0x3
ffffffff8040d100:	873e                	mv	a4,a5
ffffffff8040d102:	8d3a                	mv	s10,a4
ffffffff8040d104:	4d81                	li	s11,0
ffffffff8040d106:	03dd5713          	srli	a4,s10,0x3d
ffffffff8040d10a:	003d9993          	slli	s3,s11,0x3
ffffffff8040d10e:	013769b3          	or	s3,a4,s3
ffffffff8040d112:	003d1913          	slli	s2,s10,0x3
ffffffff8040d116:	07bd                	addi	a5,a5,15
ffffffff8040d118:	8391                	srli	a5,a5,0x4
ffffffff8040d11a:	0792                	slli	a5,a5,0x4
ffffffff8040d11c:	40f10133          	sub	sp,sp,a5
ffffffff8040d120:	878a                	mv	a5,sp
ffffffff8040d122:	00078793          	mv	a5,a5
ffffffff8040d126:	f6f43423          	sd	a5,-152(s0)
ffffffff8040d12a:	f7843783          	ld	a5,-136(s0)
ffffffff8040d12e:	f5843583          	ld	a1,-168(s0)
ffffffff8040d132:	853e                	mv	a0,a5
ffffffff8040d134:	d0bf80ef          	jal	ra,ffffffff80405e3e <strcpy>
ffffffff8040d138:	f6843783          	ld	a5,-152(s0)
ffffffff8040d13c:	f5043583          	ld	a1,-176(s0)
ffffffff8040d140:	853e                	mv	a0,a5
ffffffff8040d142:	cfdf80ef          	jal	ra,ffffffff80405e3e <strcpy>
ffffffff8040d146:	f8042423          	sw	zero,-120(s0)
ffffffff8040d14a:	a085                	j	ffffffff8040d1aa <filenamecmp+0x180>
ffffffff8040d14c:	f7843703          	ld	a4,-136(s0)
ffffffff8040d150:	f8842783          	lw	a5,-120(s0)
ffffffff8040d154:	97ba                	add	a5,a5,a4
ffffffff8040d156:	0007c783          	lbu	a5,0(a5)
ffffffff8040d15a:	873e                	mv	a4,a5
ffffffff8040d15c:	04000793          	li	a5,64
ffffffff8040d160:	04e7f063          	bgeu	a5,a4,ffffffff8040d1a0 <filenamecmp+0x176>
ffffffff8040d164:	f7843703          	ld	a4,-136(s0)
ffffffff8040d168:	f8842783          	lw	a5,-120(s0)
ffffffff8040d16c:	97ba                	add	a5,a5,a4
ffffffff8040d16e:	0007c783          	lbu	a5,0(a5)
ffffffff8040d172:	873e                	mv	a4,a5
ffffffff8040d174:	05a00793          	li	a5,90
ffffffff8040d178:	02e7e463          	bltu	a5,a4,ffffffff8040d1a0 <filenamecmp+0x176>
ffffffff8040d17c:	f7843703          	ld	a4,-136(s0)
ffffffff8040d180:	f8842783          	lw	a5,-120(s0)
ffffffff8040d184:	97ba                	add	a5,a5,a4
ffffffff8040d186:	0007c783          	lbu	a5,0(a5)
ffffffff8040d18a:	0207879b          	addiw	a5,a5,32
ffffffff8040d18e:	0ff7f713          	andi	a4,a5,255
ffffffff8040d192:	f7843683          	ld	a3,-136(s0)
ffffffff8040d196:	f8842783          	lw	a5,-120(s0)
ffffffff8040d19a:	97b6                	add	a5,a5,a3
ffffffff8040d19c:	00e78023          	sb	a4,0(a5)
ffffffff8040d1a0:	f8842783          	lw	a5,-120(s0)
ffffffff8040d1a4:	2785                	addiw	a5,a5,1
ffffffff8040d1a6:	f8f42423          	sw	a5,-120(s0)
ffffffff8040d1aa:	f5843503          	ld	a0,-168(s0)
ffffffff8040d1ae:	995f80ef          	jal	ra,ffffffff80405b42 <strlen>
ffffffff8040d1b2:	87aa                	mv	a5,a0
ffffffff8040d1b4:	873e                	mv	a4,a5
ffffffff8040d1b6:	f8842783          	lw	a5,-120(s0)
ffffffff8040d1ba:	2781                	sext.w	a5,a5
ffffffff8040d1bc:	f8e7c8e3          	blt	a5,a4,ffffffff8040d14c <filenamecmp+0x122>
ffffffff8040d1c0:	f8042623          	sw	zero,-116(s0)
ffffffff8040d1c4:	a085                	j	ffffffff8040d224 <filenamecmp+0x1fa>
ffffffff8040d1c6:	f6843703          	ld	a4,-152(s0)
ffffffff8040d1ca:	f8c42783          	lw	a5,-116(s0)
ffffffff8040d1ce:	97ba                	add	a5,a5,a4
ffffffff8040d1d0:	0007c783          	lbu	a5,0(a5)
ffffffff8040d1d4:	873e                	mv	a4,a5
ffffffff8040d1d6:	04000793          	li	a5,64
ffffffff8040d1da:	04e7f063          	bgeu	a5,a4,ffffffff8040d21a <filenamecmp+0x1f0>
ffffffff8040d1de:	f6843703          	ld	a4,-152(s0)
ffffffff8040d1e2:	f8c42783          	lw	a5,-116(s0)
ffffffff8040d1e6:	97ba                	add	a5,a5,a4
ffffffff8040d1e8:	0007c783          	lbu	a5,0(a5)
ffffffff8040d1ec:	873e                	mv	a4,a5
ffffffff8040d1ee:	05a00793          	li	a5,90
ffffffff8040d1f2:	02e7e463          	bltu	a5,a4,ffffffff8040d21a <filenamecmp+0x1f0>
ffffffff8040d1f6:	f6843703          	ld	a4,-152(s0)
ffffffff8040d1fa:	f8c42783          	lw	a5,-116(s0)
ffffffff8040d1fe:	97ba                	add	a5,a5,a4
ffffffff8040d200:	0007c783          	lbu	a5,0(a5)
ffffffff8040d204:	0207879b          	addiw	a5,a5,32
ffffffff8040d208:	0ff7f713          	andi	a4,a5,255
ffffffff8040d20c:	f6843683          	ld	a3,-152(s0)
ffffffff8040d210:	f8c42783          	lw	a5,-116(s0)
ffffffff8040d214:	97b6                	add	a5,a5,a3
ffffffff8040d216:	00e78023          	sb	a4,0(a5)
ffffffff8040d21a:	f8c42783          	lw	a5,-116(s0)
ffffffff8040d21e:	2785                	addiw	a5,a5,1
ffffffff8040d220:	f8f42623          	sw	a5,-116(s0)
ffffffff8040d224:	f5843503          	ld	a0,-168(s0)
ffffffff8040d228:	91bf80ef          	jal	ra,ffffffff80405b42 <strlen>
ffffffff8040d22c:	87aa                	mv	a5,a0
ffffffff8040d22e:	873e                	mv	a4,a5
ffffffff8040d230:	f8c42783          	lw	a5,-116(s0)
ffffffff8040d234:	2781                	sext.w	a5,a5
ffffffff8040d236:	f8e7c8e3          	blt	a5,a4,ffffffff8040d1c6 <filenamecmp+0x19c>
ffffffff8040d23a:	f7843783          	ld	a5,-136(s0)
ffffffff8040d23e:	f6843703          	ld	a4,-152(s0)
ffffffff8040d242:	85ba                	mv	a1,a4
ffffffff8040d244:	853e                	mv	a0,a5
ffffffff8040d246:	b6bf80ef          	jal	ra,ffffffff80405db0 <strcmp>
ffffffff8040d24a:	87aa                	mv	a5,a0
ffffffff8040d24c:	0ff7f793          	andi	a5,a5,255
ffffffff8040d250:	8126                	mv	sp,s1
ffffffff8040d252:	853e                	mv	a0,a5
ffffffff8040d254:	f2040113          	addi	sp,s0,-224
ffffffff8040d258:	60ee                	ld	ra,216(sp)
ffffffff8040d25a:	644e                	ld	s0,208(sp)
ffffffff8040d25c:	64ae                	ld	s1,200(sp)
ffffffff8040d25e:	690e                	ld	s2,192(sp)
ffffffff8040d260:	79ea                	ld	s3,184(sp)
ffffffff8040d262:	7a4a                	ld	s4,176(sp)
ffffffff8040d264:	7aaa                	ld	s5,168(sp)
ffffffff8040d266:	7b0a                	ld	s6,160(sp)
ffffffff8040d268:	6bea                	ld	s7,152(sp)
ffffffff8040d26a:	6c4a                	ld	s8,144(sp)
ffffffff8040d26c:	6caa                	ld	s9,136(sp)
ffffffff8040d26e:	6d0a                	ld	s10,128(sp)
ffffffff8040d270:	7de6                	ld	s11,120(sp)
ffffffff8040d272:	612d                	addi	sp,sp,224
ffffffff8040d274:	8082                	ret

ffffffff8040d276 <do_uname>:
ffffffff8040d276:	1101                	addi	sp,sp,-32
ffffffff8040d278:	ec06                	sd	ra,24(sp)
ffffffff8040d27a:	e822                	sd	s0,16(sp)
ffffffff8040d27c:	1000                	addi	s0,sp,32
ffffffff8040d27e:	fea43423          	sd	a0,-24(s0)
ffffffff8040d282:	fe843783          	ld	a5,-24(s0)
ffffffff8040d286:	00001597          	auipc	a1,0x1
ffffffff8040d28a:	4fa58593          	addi	a1,a1,1274 # ffffffff8040e780 <utsname>
ffffffff8040d28e:	853e                	mv	a0,a5
ffffffff8040d290:	baff80ef          	jal	ra,ffffffff80405e3e <strcpy>
ffffffff8040d294:	fe843783          	ld	a5,-24(s0)
ffffffff8040d298:	04178793          	addi	a5,a5,65
ffffffff8040d29c:	00001597          	auipc	a1,0x1
ffffffff8040d2a0:	52558593          	addi	a1,a1,1317 # ffffffff8040e7c1 <utsname+0x41>
ffffffff8040d2a4:	853e                	mv	a0,a5
ffffffff8040d2a6:	b99f80ef          	jal	ra,ffffffff80405e3e <strcpy>
ffffffff8040d2aa:	fe843783          	ld	a5,-24(s0)
ffffffff8040d2ae:	08278793          	addi	a5,a5,130
ffffffff8040d2b2:	00001597          	auipc	a1,0x1
ffffffff8040d2b6:	55058593          	addi	a1,a1,1360 # ffffffff8040e802 <utsname+0x82>
ffffffff8040d2ba:	853e                	mv	a0,a5
ffffffff8040d2bc:	b83f80ef          	jal	ra,ffffffff80405e3e <strcpy>
ffffffff8040d2c0:	fe843783          	ld	a5,-24(s0)
ffffffff8040d2c4:	0c378793          	addi	a5,a5,195
ffffffff8040d2c8:	00001597          	auipc	a1,0x1
ffffffff8040d2cc:	57b58593          	addi	a1,a1,1403 # ffffffff8040e843 <utsname+0xc3>
ffffffff8040d2d0:	853e                	mv	a0,a5
ffffffff8040d2d2:	b6df80ef          	jal	ra,ffffffff80405e3e <strcpy>
ffffffff8040d2d6:	fe843783          	ld	a5,-24(s0)
ffffffff8040d2da:	10478793          	addi	a5,a5,260
ffffffff8040d2de:	00001597          	auipc	a1,0x1
ffffffff8040d2e2:	5a658593          	addi	a1,a1,1446 # ffffffff8040e884 <utsname+0x104>
ffffffff8040d2e6:	853e                	mv	a0,a5
ffffffff8040d2e8:	b57f80ef          	jal	ra,ffffffff80405e3e <strcpy>
ffffffff8040d2ec:	fe843783          	ld	a5,-24(s0)
ffffffff8040d2f0:	14578793          	addi	a5,a5,325
ffffffff8040d2f4:	00001597          	auipc	a1,0x1
ffffffff8040d2f8:	5d158593          	addi	a1,a1,1489 # ffffffff8040e8c5 <utsname+0x145>
ffffffff8040d2fc:	853e                	mv	a0,a5
ffffffff8040d2fe:	b41f80ef          	jal	ra,ffffffff80405e3e <strcpy>
ffffffff8040d302:	4781                	li	a5,0
ffffffff8040d304:	853e                	mv	a0,a5
ffffffff8040d306:	60e2                	ld	ra,24(sp)
ffffffff8040d308:	6442                	ld	s0,16(sp)
ffffffff8040d30a:	6105                	addi	sp,sp,32
ffffffff8040d30c:	8082                	ret

ffffffff8040d30e <get_elf_file>:
ffffffff8040d30e:	7139                	addi	sp,sp,-64
ffffffff8040d310:	fc06                	sd	ra,56(sp)
ffffffff8040d312:	f822                	sd	s0,48(sp)
ffffffff8040d314:	0080                	addi	s0,sp,64
ffffffff8040d316:	fca43c23          	sd	a0,-40(s0)
ffffffff8040d31a:	fcb43823          	sd	a1,-48(s0)
ffffffff8040d31e:	fcc43423          	sd	a2,-56(s0)
ffffffff8040d322:	fe042623          	sw	zero,-20(s0)
ffffffff8040d326:	a895                	j	ffffffff8040d39a <get_elf_file+0x8c>
ffffffff8040d328:	0000b697          	auipc	a3,0xb
ffffffff8040d32c:	2e868693          	addi	a3,a3,744 # ffffffff80418610 <elf_files>
ffffffff8040d330:	fec42703          	lw	a4,-20(s0)
ffffffff8040d334:	87ba                	mv	a5,a4
ffffffff8040d336:	0786                	slli	a5,a5,0x1
ffffffff8040d338:	97ba                	add	a5,a5,a4
ffffffff8040d33a:	078e                	slli	a5,a5,0x3
ffffffff8040d33c:	97b6                	add	a5,a5,a3
ffffffff8040d33e:	639c                	ld	a5,0(a5)
ffffffff8040d340:	fd843583          	ld	a1,-40(s0)
ffffffff8040d344:	853e                	mv	a0,a5
ffffffff8040d346:	a6bf80ef          	jal	ra,ffffffff80405db0 <strcmp>
ffffffff8040d34a:	87aa                	mv	a5,a0
ffffffff8040d34c:	e3b1                	bnez	a5,ffffffff8040d390 <get_elf_file+0x82>
ffffffff8040d34e:	0000b697          	auipc	a3,0xb
ffffffff8040d352:	2c268693          	addi	a3,a3,706 # ffffffff80418610 <elf_files>
ffffffff8040d356:	fec42703          	lw	a4,-20(s0)
ffffffff8040d35a:	87ba                	mv	a5,a4
ffffffff8040d35c:	0786                	slli	a5,a5,0x1
ffffffff8040d35e:	97ba                	add	a5,a5,a4
ffffffff8040d360:	078e                	slli	a5,a5,0x3
ffffffff8040d362:	97b6                	add	a5,a5,a3
ffffffff8040d364:	6798                	ld	a4,8(a5)
ffffffff8040d366:	fd043783          	ld	a5,-48(s0)
ffffffff8040d36a:	e398                	sd	a4,0(a5)
ffffffff8040d36c:	0000b697          	auipc	a3,0xb
ffffffff8040d370:	2a468693          	addi	a3,a3,676 # ffffffff80418610 <elf_files>
ffffffff8040d374:	fec42703          	lw	a4,-20(s0)
ffffffff8040d378:	87ba                	mv	a5,a4
ffffffff8040d37a:	0786                	slli	a5,a5,0x1
ffffffff8040d37c:	97ba                	add	a5,a5,a4
ffffffff8040d37e:	078e                	slli	a5,a5,0x3
ffffffff8040d380:	97b6                	add	a5,a5,a3
ffffffff8040d382:	6b9c                	ld	a5,16(a5)
ffffffff8040d384:	4398                	lw	a4,0(a5)
ffffffff8040d386:	fc843783          	ld	a5,-56(s0)
ffffffff8040d38a:	c398                	sw	a4,0(a5)
ffffffff8040d38c:	4785                	li	a5,1
ffffffff8040d38e:	a821                	j	ffffffff8040d3a6 <get_elf_file+0x98>
ffffffff8040d390:	fec42783          	lw	a5,-20(s0)
ffffffff8040d394:	2785                	addiw	a5,a5,1
ffffffff8040d396:	fef42623          	sw	a5,-20(s0)
ffffffff8040d39a:	fec42783          	lw	a5,-20(s0)
ffffffff8040d39e:	2781                	sext.w	a5,a5
ffffffff8040d3a0:	f8f054e3          	blez	a5,ffffffff8040d328 <get_elf_file+0x1a>
ffffffff8040d3a4:	4781                	li	a5,0
ffffffff8040d3a6:	853e                	mv	a0,a5
ffffffff8040d3a8:	70e2                	ld	ra,56(sp)
ffffffff8040d3aa:	7442                	ld	s0,48(sp)
ffffffff8040d3ac:	6121                	addi	sp,sp,64
ffffffff8040d3ae:	8082                	ret
